EXPORTS 
	?$TSS0@?1??get@ShutdownData@internal@protobuf@google@@SAPEAU2345@XZ@4HA 	 DATA
	??_R0?AV?$_Iosb@H@std@@@8 	 DATA
	??_R0?AV?$basic_ios@DU?$char_traits@D@std@@@std@@@8 	 DATA
	??_R0?AV?$basic_ios@_WU?$char_traits@_W@std@@@std@@@8 	 DATA
	??_R0?AV?$basic_iostream@_WU?$char_traits@_W@std@@@std@@@8 	 DATA
	??_R0?AV?$basic_istream@_WU?$char_traits@_W@std@@@std@@@8 	 DATA
	??_R0?AV?$basic_ostream@DU?$char_traits@D@std@@@std@@@8 	 DATA
	??_R0?AV?$basic_ostream@_WU?$char_traits@_W@std@@@std@@@8 	 DATA
	??_R0?AV?$basic_ostringstream@DU?$char_traits@D@std@@V?$allocator@D@2@@std@@@8 	 DATA
	??_R0?AV?$basic_streambuf@DU?$char_traits@D@std@@@std@@@8 	 DATA
	??_R0?AV?$basic_streambuf@_WU?$char_traits@_W@std@@@std@@@8 	 DATA
	??_R0?AV?$basic_stringbuf@DU?$char_traits@D@std@@V?$allocator@D@2@@std@@@8 	 DATA
	??_R0?AV?$basic_stringbuf@_WU?$char_traits@_W@std@@V?$allocator@_W@2@@std@@@8 	 DATA
	??_R0?AV?$basic_stringstream@_WU?$char_traits@_W@std@@V?$allocator@_W@2@@std@@@8 	 DATA
	??_R0?AVArrayInputStream@io@protobuf@google@@@8 	 DATA
	??_R0?AVArrayOutputStream@io@protobuf@google@@@8 	 DATA
	??_R0?AVClosure@protobuf@google@@@8 	 DATA
	??_R0?AVCodedOutputStreamFieldSkipper@internal@protobuf@google@@@8 	 DATA
	??_R0?AVConcatenatingInputStream@io@protobuf@google@@@8 	 DATA
	??_R0?AVCopyingFileInputStream@FileInputStream@io@protobuf@google@@@8 	 DATA
	??_R0?AVCopyingFileOutputStream@FileOutputStream@io@protobuf@google@@@8 	 DATA
	??_R0?AVCopyingInputStream@io@protobuf@google@@@8 	 DATA
	??_R0?AVCopyingInputStreamAdaptor@io@protobuf@google@@@8 	 DATA
	??_R0?AVCopyingIstreamInputStream@IstreamInputStream@io@protobuf@google@@@8 	 DATA
	??_R0?AVCopyingOstreamOutputStream@OstreamOutputStream@io@protobuf@google@@@8 	 DATA
	??_R0?AVCopyingOutputStream@io@protobuf@google@@@8 	 DATA
	??_R0?AVCopyingOutputStreamAdaptor@io@protobuf@google@@@8 	 DATA
	??_R0?AVCordInputStream@io@protobuf@google@@@8 	 DATA
	??_R0?AVCordOutputStream@io@protobuf@google@@@8 	 DATA
	??_R0?AVFieldSkipper@internal@protobuf@google@@@8 	 DATA
	??_R0?AVFileInputStream@io@protobuf@google@@@8 	 DATA
	??_R0?AVFileOutputStream@io@protobuf@google@@@8 	 DATA
	??_R0?AVFunctionClosure0@internal@protobuf@google@@@8 	 DATA
	??_R0?AVImplicitWeakMessage@internal@protobuf@google@@@8 	 DATA
	??_R0?AVIstreamInputStream@io@protobuf@google@@@8 	 DATA
	??_R0?AVLazyMessageExtension@ExtensionSet@internal@protobuf@google@@@8 	 DATA
	??_R0?AVLimitingInputStream@io@protobuf@google@@@8 	 DATA
	??_R0?AVMessageLite@protobuf@google@@@8 	 DATA
	??_R0?AVOstreamOutputStream@io@protobuf@google@@@8 	 DATA
	??_R0?AVStringOutputStream@io@protobuf@google@@@8 	 DATA
	??_R0?AVZeroCopyCodedInputStream@protobuf@google@@@8 	 DATA
	??_R0?AVZeroCopyInputStream@io@protobuf@google@@@8 	 DATA
	??_R0?AVZeroCopyOutputStream@io@protobuf@google@@@8 	 DATA
	??_R0?AVbad_alloc@std@@@8 	 DATA
	??_R0?AVbad_array_new_length@std@@@8 	 DATA
	??_R0?AVexception@std@@@8 	 DATA
	??_R0?AVios_base@std@@@8 	 DATA
	?_OptionsStorage@?1??__local_stdio_printf_options@@9@4_KA 	 DATA
	?data@?1??get@ShutdownData@internal@protobuf@google@@SAPEAU2345@XZ@4PEAU2345@EA 	 DATA
	?default_recursion_limit_@CodedInputStream@io@protobuf@google@@0HA 	 DATA
	?default_serialization_deterministic_@CodedOutputStream@io@protobuf@google@@0U?$atomic@_N@std@@A 	 DATA
	?empty_cord_@internal@protobuf@google@@3TEmptyCord@123@B 	 DATA
	?fixed_address_empty_string@internal@protobuf@google@@3V?$ExplicitlyConstructed@V?$basic_string@DU?$char_traits@D@std@@V?$allocator@D@2@@std@@$07@123@A 	 DATA
	?implicit_weak_message_default_instance@internal@protobuf@google@@3UImplicitWeakMessageDefaultType@123@A 	 DATA
	?init_protobuf_defaults_state@internal@protobuf@google@@3U?$atomic@_N@std@@A 	 DATA
	?lifecycle_id_@ThreadSafeArena@internal@protobuf@google@@0U?$atomic@_K@std@@A 	 DATA
	?maybe_create_lazy_extension_@ExtensionSet@internal@protobuf@google@@0U?$atomic@P6APEAVLazyMessageExtension@ExtensionSet@internal@protobuf@google@@PEAVArena@45@@Z@std@@A 	 DATA
	?table_@ImplicitWeakMessage@internal@protobuf@google@@0U?$TcParseTable@$0A@$0A@$0A@$0A@$01@234@B 	 DATA
	_Avx2WmemEnabledWeakValue 	 DATA
	?<lambda_invoker_cdecl>@<lambda_cf7b09850b9da235518932334cd6ce91>@@CA@PEBX@Z
	?<lambda_invoker_cdecl>@<lambda_fdbd2ac71c472ff59552055b3285981a>@@CA@PEBX@Z
	??$?0$$BY05D@FormatArgImpl@str_format_internal@lts_20250814@absl@@QEAA@AEAY05$$CBD@Z
	??$?0$$CBHUExtension@ExtensionSet@internal@protobuf@google@@$0A@@?$pair@$$CBHUExtension@ExtensionSet@internal@protobuf@google@@@std@@QEAA@AEBHAEBUExtension@ExtensionSet@internal@protobuf@google@@@Z
	??$?0$$CBHUExtension@ExtensionSet@internal@protobuf@google@@$0A@@?$pair@HUExtension@ExtensionSet@internal@protobuf@google@@@std@@QEAA@$$QEAU?$pair@$$CBHUExtension@ExtensionSet@internal@protobuf@google@@@1@@Z
	??$?0$$CBV?$btree_node@U?$map_params@HUExtension@ExtensionSet@internal@protobuf@google@@U?$less@H@std@@V?$allocator@U?$pair@$$CBHUExtension@ExtensionSet@internal@protobuf@google@@@std@@@7@$0BAA@$0A@@container_internal@lts_20250814@absl@@@container_internal@lts_20250814@absl@@AEBU?$pair@$$CBHUExtension@ExtensionSet@internal@protobuf@google@@@std@@PEBU45@$0A@@?$btree_iterator@V?$btree_node@U?$map_params@HUExtension@ExtensionSet@internal@protobuf@google@@U?$less@H@std@@V?$allocator@U?$pair@$$CBHUExtension@ExtensionSet@internal@protobuf@google@@@std@@@7@$0BAA@$0A@@container_internal@lts_20250814@absl@@@container_internal@lts_20250814@absl@@AEAU?$pair@$$CBHUExtension@ExtensionSet@internal@protobuf@google@@@std@@PEAU56@@container_internal@lts_20250814@absl@@AEAA@V?$btree_iterator@$$CBV?$btree_node@U?$map_params@HUExtension@ExtensionSet@internal@protobuf@google@@U?$less@H@std@@V?$allocator@U?$pair@$$CBHUExtension@ExtensionSet@internal@protobuf@google@@@std@@@7@$0BAA@$0A@@container_internal@lts_20250814@absl@@@container_internal@lts_20250814@absl@@AEBU?$pair@$$CBHUExtension@ExtensionSet@internal@protobuf@google@@@std@@PEBU56@@123@@Z
	??$?0$$CBVFormatArgImpl@str_format_internal@lts_20250814@absl@@$$CBV0123@@?$Span@$$CBVFormatArgImpl@str_format_internal@lts_20250814@absl@@@lts_20250814@absl@@QEAA@V?$initializer_list@VFormatArgImpl@str_format_internal@lts_20250814@absl@@@std@@@Z
	??$?0$$CBVMessageLite@protobuf@google@@@Hex@lts_20250814@absl@@QEAA@PEBVMessageLite@protobuf@google@@W4PadSpec@12@@Z
	??$?0$$QEAUVariantKey@internal@protobuf@google@@$$ZAEAPEAUNodeBase@123@@?$pair@$$CBUVariantKey@internal@protobuf@google@@PEAUNodeBase@234@@std@@QEAA@Upiecewise_construct_t@1@V?$tuple@$$QEAUVariantKey@internal@protobuf@google@@@1@V?$tuple@AEAPEAUNodeBase@internal@protobuf@google@@@1@@Z
	??$?0$$QEAUVariantKey@internal@protobuf@google@@$$ZAEAPEAUNodeBase@123@@?$pair@UVariantKey@internal@protobuf@google@@PEAUNodeBase@234@@std@@QEAA@Upiecewise_construct_t@1@V?$tuple@$$QEAUVariantKey@internal@protobuf@google@@@1@V?$tuple@AEAPEAUNodeBase@internal@protobuf@google@@@1@@Z
	??$?0$$TH$0A@@?$pair@PEBDH@std@@QEAA@$$QEA$$T$$QEAH@Z
	??$?0$$TH$0A@@?$pair@PEBDI@std@@QEAA@$$QEA$$T$$QEAH@Z
	??$?0$$TH$0A@@?$pair@PEBD_K@std@@QEAA@$$QEA$$T$$QEAH@Z
	??$?0$$T_N$0A@@?$pair@PEBD_N@std@@QEAA@$$QEA$$T$$QEA_N@Z
	??$?0$$V@?$_Compressed_pair@U?$default_delete@$$BY0A@E@std@@PEAE$00@std@@QEAA@U_Zero_then_variadic_args_t@1@@Z
	??$?0$$V@?$_Compressed_pair@V?$allocator@D@std@@V?$_String_val@U?$_Simple_types@D@std@@@2@$00@std@@QEAA@U_Zero_then_variadic_args_t@1@@Z
	??$?0$$V@?$_Compressed_pair@V?$allocator@H@std@@V?$_Vector_val@U?$_Simple_types@H@std@@@2@$00@std@@QEAA@U_Zero_then_variadic_args_t@1@@Z
	??$?0$$V@?$_Compressed_pair@V?$allocator@I@std@@V?$_Vector_val@U?$_Simple_types@I@std@@@2@$00@std@@QEAA@U_Zero_then_variadic_args_t@1@@Z
	??$?0$$V@?$_Compressed_pair@V?$allocator@PEAX@std@@V?$_Vector_val@U?$_Simple_types@PEAX@std@@@2@$00@std@@QEAA@U_Zero_then_variadic_args_t@1@@Z
	??$?0$$V@?$_Compressed_pair@V?$allocator@U?$_Tree_node@U?$pair@$$CBV?$basic_string_view@DU?$char_traits@D@std@@@std@@PEBVRealDebugCounter@internal@protobuf@google@@@std@@PEAX@std@@@std@@V?$_Tree_val@U?$_Tree_simple_types@U?$pair@$$CBV?$basic_string_view@DU?$char_traits@D@std@@@std@@PEBVRealDebugCounter@internal@protobuf@google@@@std@@@std@@@2@$00@std@@QEAA@U_Zero_then_variadic_args_t@1@@Z
	??$?0$$V@?$_Compressed_pair@V?$allocator@U?$_Tree_node@U?$pair@$$CBV?$basic_string_view@DU?$char_traits@D@std@@@std@@V?$map@V?$basic_string_view@DU?$char_traits@D@std@@@std@@PEBVRealDebugCounter@internal@protobuf@google@@U?$less@V?$basic_string_view@DU?$char_traits@D@std@@@std@@@2@V?$allocator@U?$pair@$$CBV?$basic_string_view@DU?$char_traits@D@std@@@std@@PEBVRealDebugCounter@internal@protobuf@google@@@std@@@2@@2@@std@@PEAX@std@@@std@@V?$_Tree_val@U?$_Tree_simple_types@U?$pair@$$CBV?$basic_string_view@DU?$char_traits@D@std@@@std@@V?$map@V?$basic_string_view@DU?$char_traits@D@std@@@std@@PEBVRealDebugCounter@internal@protobuf@google@@U?$less@V?$basic_string_view@DU?$char_traits@D@std@@@std@@@2@V?$allocator@U?$pair@$$CBV?$basic_string_view@DU?$char_traits@D@std@@@std@@PEBVRealDebugCounter@internal@protobuf@google@@@std@@@2@@2@@std@@@std@@@2@$00@std@@QEAA@U_Zero_then_variadic_args_t@1@@Z
	??$?0$$V@?$_Compressed_pair@V?$allocator@U?$pair@P6AXPEBX@ZPEBX@std@@@std@@V?$_Vector_val@U?$_Simple_types@U?$pair@P6AXPEBX@ZPEBX@std@@@std@@@2@$00@std@@QEAA@U_Zero_then_variadic_args_t@1@@Z
	??$?0$$V@?$_Compressed_pair@V?$allocator@V?$basic_string@_WU?$char_traits@_W@std@@V?$allocator@_W@2@@std@@@std@@V?$_Vector_val@U?$_Simple_types@V?$basic_string@_WU?$char_traits@_W@std@@V?$allocator@_W@2@@std@@@std@@@2@$00@std@@QEAA@U_Zero_then_variadic_args_t@1@@Z
	??$?0$$V@?$_Compressed_pair@V?$allocator@_W@std@@V?$_String_val@U?$_Simple_types@_W@std@@@2@$00@std@@QEAA@U_Zero_then_variadic_args_t@1@@Z
	??$?0AEAHUExtension@ExtensionSet@internal@protobuf@google@@$0A@@?$pair@$$CBHUExtension@ExtensionSet@internal@protobuf@google@@@std@@QEAA@AEAH$$QEAUExtension@ExtensionSet@internal@protobuf@google@@@Z
	??$?0AEAIAEA_N$0A@@?$pair@I_N@std@@QEAA@AEAIAEA_N@Z
	??$?0AEAI_N$0A@@?$pair@I_N@std@@QEAA@AEAI$$QEA_N@Z
	??$?0AEAP6AXPEBX@ZAEAPEBX$0A@@?$pair@P6AXPEBX@ZPEBX@std@@QEAA@AEAP6AXPEBX@ZAEAPEBX@Z
	??$?0AEAPEAD@?$_Compressed_pair@U?$default_delete@$$BY0A@D@std@@PEAD$00@std@@QEAA@U_Zero_then_variadic_args_t@1@AEAPEAD@Z
	??$?0AEAPEAD_N$0A@@?$pair@PEAD_N@std@@QEAA@AEAPEAD$$QEA_N@Z
	??$?0AEAPEAUExtension@ExtensionSet@internal@protobuf@google@@$0A@@?$tuple@AEAPEAUExtension@ExtensionSet@internal@protobuf@google@@AEA_N@std@@QEAA@AEAPEAUExtension@ExtensionSet@internal@protobuf@google@@AEA_N@Z
	??$?0AEAPEAUExtension@ExtensionSet@internal@protobuf@google@@@?$_Tuple_val@AEAPEAUExtension@ExtensionSet@internal@protobuf@google@@@std@@QEAA@AEAPEAUExtension@ExtensionSet@internal@protobuf@google@@@Z
	??$?0AEAPEAUNodeBase@internal@protobuf@google@@$0A@@?$tuple@AEAPEAUNodeBase@internal@protobuf@google@@@std@@QEAA@AEAPEAUNodeBase@internal@protobuf@google@@@Z
	??$?0AEAPEAUNodeBase@internal@protobuf@google@@@?$_Tuple_val@AEAPEAUNodeBase@internal@protobuf@google@@@std@@QEAA@AEAPEAUNodeBase@internal@protobuf@google@@@Z
	??$?0AEAPEAVMessageLite@protobuf@google@@@?$_Compressed_pair@U?$default_delete@VMessageLite@protobuf@google@@@std@@PEAVMessageLite@protobuf@google@@$00@std@@QEAA@U_Zero_then_variadic_args_t@1@AEAPEAVMessageLite@protobuf@google@@@Z
	??$?0AEAPEAVZeroCopyInputStream@io@protobuf@google@@@ParseContext@internal@protobuf@google@@QEAA@H_NPEAPEBDAEAPEAVZeroCopyInputStream@io@23@@Z
	??$?0AEAPEAVZeroCopyInputStream@io@protobuf@google@@AEAH@ParseContext@internal@protobuf@google@@QEAA@H_NPEAPEBDAEAPEAVZeroCopyInputStream@io@23@AEAH@Z
	??$?0AEAPEA_W@?$_Compressed_pair@U?$default_delete@$$BY0A@_W@std@@PEA_W$00@std@@QEAA@U_Zero_then_variadic_args_t@1@AEAPEA_W@Z
	??$?0AEAPEBD_N$0A@@?$pair@PEBD_N@std@@QEAA@AEAPEBD$$QEA_N@Z
	??$?0AEAV?$basic_string@DU?$char_traits@D@std@@V?$allocator@D@2@@std@@@ParseContext@internal@protobuf@google@@QEAA@USpawn@0123@AEBV0123@PEAPEBDAEAV?$basic_string@DU?$char_traits@D@std@@V?$allocator@D@2@@std@@@Z
	??$?0AEAV?$basic_string_view@DU?$char_traits@D@std@@@std@@@ParseContext@internal@protobuf@google@@QEAA@H_NPEAPEBDAEAV?$basic_string_view@DU?$char_traits@D@std@@@std@@@Z
	??$?0AEAV?$btree_iterator@V?$btree_node@U?$map_params@HUExtension@ExtensionSet@internal@protobuf@google@@U?$less@H@std@@V?$allocator@U?$pair@$$CBHUExtension@ExtensionSet@internal@protobuf@google@@@std@@@7@$0BAA@$0A@@container_internal@lts_20250814@absl@@@container_internal@lts_20250814@absl@@AEAU?$pair@$$CBHUExtension@ExtensionSet@internal@protobuf@google@@@std@@PEAU56@@container_internal@lts_20250814@absl@@_N$0A@@?$pair@V?$btree_iterator@V?$btree_node@U?$map_params@HUExtension@ExtensionSet@internal@protobuf@google@@U?$less@H@std@@V?$allocator@U?$pair@$$CBHUExtension@ExtensionSet@internal@protobuf@google@@@std@@@7@$0BAA@$0A@@container_internal@lts_20250814@absl@@@container_internal@lts_20250814@absl@@AEAU?$pair@$$CBHUExtension@ExtensionSet@internal@protobuf@google@@@std@@PEAU56@@container_internal@lts_20250814@absl@@_N@std@@QEAA@AEAV?$btree_iterator@V?$btree_node@U?$map_params@HUExtension@ExtensionSet@internal@protobuf@google@@U?$less@H@std@@V?$allocator@U?$pair@$$CBHUExtension@ExtensionSet@internal@protobuf@google@@@std@@@7@$0BAA@$0A@@container_internal@lts_20250814@absl@@@container_internal@lts_20250814@absl@@AEAU?$pair@$$CBHUExtension@ExtensionSet@internal@protobuf@google@@@std@@PEAU56@@container_internal@lts_20250814@absl@@$$QEA_N@Z
	??$?0AEAV?$btree_iterator@V?$btree_node@U?$map_params@UVariantKey@internal@protobuf@google@@PEAUNodeBase@234@U?$less@UVariantKey@internal@protobuf@google@@@std@@V?$MapAllocator@U?$pair@$$CBUVariantKey@internal@protobuf@google@@PEAUNodeBase@234@@std@@@234@$0BAA@$0A@@container_internal@lts_20250814@absl@@@container_internal@lts_20250814@absl@@AEAU?$pair@$$CBUVariantKey@internal@protobuf@google@@PEAUNodeBase@234@@std@@PEAU56@@container_internal@lts_20250814@absl@@_N$0A@@?$pair@V?$btree_iterator@V?$btree_node@U?$map_params@UVariantKey@internal@protobuf@google@@PEAUNodeBase@234@U?$less@UVariantKey@internal@protobuf@google@@@std@@V?$MapAllocator@U?$pair@$$CBUVariantKey@internal@protobuf@google@@PEAUNodeBase@234@@std@@@234@$0BAA@$0A@@container_internal@lts_20250814@absl@@@container_internal@lts_20250814@absl@@AEAU?$pair@$$CBUVariantKey@internal@protobuf@google@@PEAUNodeBase@234@@std@@PEAU56@@container_internal@lts_20250814@absl@@_N@std@@QEAA@AEAV?$btree_iterator@V?$btree_node@U?$map_params@UVariantKey@internal@protobuf@google@@PEAUNodeBase@234@U?$less@UVariantKey@internal@protobuf@google@@@std@@V?$MapAllocator@U?$pair@$$CBUVariantKey@internal@protobuf@google@@PEAUNodeBase@234@@std@@@234@$0BAA@$0A@@container_internal@lts_20250814@absl@@@container_internal@lts_20250814@absl@@AEAU?$pair@$$CBUVariantKey@internal@protobuf@google@@PEAUNodeBase@234@@std@@PEAU56@@container_internal@lts_20250814@absl@@$$QEA_N@Z
	??$?0AEA_KAEAV?$btree_iterator@V?$btree_node@U?$map_params@HUExtension@ExtensionSet@internal@protobuf@google@@U?$less@H@std@@V?$allocator@U?$pair@$$CBHUExtension@ExtensionSet@internal@protobuf@google@@@std@@@7@$0BAA@$0A@@container_internal@lts_20250814@absl@@@container_internal@lts_20250814@absl@@AEAU?$pair@$$CBHUExtension@ExtensionSet@internal@protobuf@google@@@std@@PEAU56@@container_internal@lts_20250814@absl@@$0A@@?$pair@_KV?$btree_iterator@V?$btree_node@U?$map_params@HUExtension@ExtensionSet@internal@protobuf@google@@U?$less@H@std@@V?$allocator@U?$pair@$$CBHUExtension@ExtensionSet@internal@protobuf@google@@@std@@@7@$0BAA@$0A@@container_internal@lts_20250814@absl@@@container_internal@lts_20250814@absl@@AEAU?$pair@$$CBHUExtension@ExtensionSet@internal@protobuf@google@@@std@@PEAU56@@container_internal@lts_20250814@absl@@@std@@QEAA@AEA_KAEAV?$btree_iterator@V?$btree_node@U?$map_params@HUExtension@ExtensionSet@internal@protobuf@google@@U?$less@H@std@@V?$allocator@U?$pair@$$CBHUExtension@ExtensionSet@internal@protobuf@google@@@std@@@7@$0BAA@$0A@@container_internal@lts_20250814@absl@@@container_internal@lts_20250814@absl@@AEAU?$pair@$$CBHUExtension@ExtensionSet@internal@protobuf@google@@@std@@PEAU56@@container_internal@lts_20250814@absl@@@Z
	??$?0AEA_KAEA_N$0A@@?$pair@_K_N@std@@QEAA@AEA_KAEA_N@Z
	??$?0AEA_KV?$btree_iterator@V?$btree_node@U?$map_params@HUExtension@ExtensionSet@internal@protobuf@google@@U?$less@H@std@@V?$allocator@U?$pair@$$CBHUExtension@ExtensionSet@internal@protobuf@google@@@std@@@7@$0BAA@$0A@@container_internal@lts_20250814@absl@@@container_internal@lts_20250814@absl@@AEAU?$pair@$$CBHUExtension@ExtensionSet@internal@protobuf@google@@@std@@PEAU56@@container_internal@lts_20250814@absl@@$0A@@?$pair@_KV?$btree_iterator@V?$btree_node@U?$map_params@HUExtension@ExtensionSet@internal@protobuf@google@@U?$less@H@std@@V?$allocator@U?$pair@$$CBHUExtension@ExtensionSet@internal@protobuf@google@@@std@@@7@$0BAA@$0A@@container_internal@lts_20250814@absl@@@container_internal@lts_20250814@absl@@AEAU?$pair@$$CBHUExtension@ExtensionSet@internal@protobuf@google@@@std@@PEAU56@@container_internal@lts_20250814@absl@@@std@@QEAA@AEA_K$$QEAV?$btree_iterator@V?$btree_node@U?$map_params@HUExtension@ExtensionSet@internal@protobuf@google@@U?$less@H@std@@V?$allocator@U?$pair@$$CBHUExtension@ExtensionSet@internal@protobuf@google@@@std@@@7@$0BAA@$0A@@container_internal@lts_20250814@absl@@@container_internal@lts_20250814@absl@@AEAU?$pair@$$CBHUExtension@ExtensionSet@internal@protobuf@google@@@std@@PEAU56@@container_internal@lts_20250814@absl@@@Z
	??$?0AEA_K_N$0A@@?$pair@_K_N@std@@QEAA@AEA_K$$QEA_N@Z
	??$?0AEA_N@?$_Tuple_val@AEA_N@std@@QEAA@AEA_N@Z
	??$?0AEBH@?$_Tuple_val@AEBH@std@@QEAA@AEBH@Z
	??$?0AEBI$0A@@?$tuple@AEBIAEBV?$basic_string_view@DU?$char_traits@D@std@@@std@@@std@@QEAA@AEBIAEBV?$basic_string_view@DU?$char_traits@D@std@@@1@@Z
	??$?0AEBI@?$_Tuple_val@AEBI@std@@QEAA@AEBI@Z
	??$?0AEBI_N$0A@@?$pair@I_N@std@@QEAA@AEBI$$QEA_N@Z
	??$?0AEBQEAU?$_Tree_node@U?$pair@$$CBV?$basic_string_view@DU?$char_traits@D@std@@@std@@PEBVRealDebugCounter@internal@protobuf@google@@@std@@PEAX@std@@_N$0A@@?$pair@PEAU?$_Tree_node@U?$pair@$$CBV?$basic_string_view@DU?$char_traits@D@std@@@std@@PEBVRealDebugCounter@internal@protobuf@google@@@std@@PEAX@std@@_N@std@@QEAA@AEBQEAU?$_Tree_node@U?$pair@$$CBV?$basic_string_view@DU?$char_traits@D@std@@@std@@PEBVRealDebugCounter@internal@protobuf@google@@@std@@PEAX@1@$$QEA_N@Z
	??$?0AEBQEAU?$_Tree_node@U?$pair@$$CBV?$basic_string_view@DU?$char_traits@D@std@@@std@@V?$map@V?$basic_string_view@DU?$char_traits@D@std@@@std@@PEBVRealDebugCounter@internal@protobuf@google@@U?$less@V?$basic_string_view@DU?$char_traits@D@std@@@std@@@2@V?$allocator@U?$pair@$$CBV?$basic_string_view@DU?$char_traits@D@std@@@std@@PEBVRealDebugCounter@internal@protobuf@google@@@std@@@2@@2@@std@@PEAX@std@@_N$0A@@?$pair@PEAU?$_Tree_node@U?$pair@$$CBV?$basic_string_view@DU?$char_traits@D@std@@@std@@V?$map@V?$basic_string_view@DU?$char_traits@D@std@@@std@@PEBVRealDebugCounter@internal@protobuf@google@@U?$less@V?$basic_string_view@DU?$char_traits@D@std@@@std@@@2@V?$allocator@U?$pair@$$CBV?$basic_string_view@DU?$char_traits@D@std@@@std@@PEBVRealDebugCounter@internal@protobuf@google@@@std@@@2@@2@@std@@PEAX@std@@_N@std@@QEAA@AEBQEAU?$_Tree_node@U?$pair@$$CBV?$basic_string_view@DU?$char_traits@D@std@@@std@@V?$map@V?$basic_string_view@DU?$char_traits@D@std@@@std@@PEBVRealDebugCounter@internal@protobuf@google@@U?$less@V?$basic_string_view@DU?$char_traits@D@std@@@std@@@2@V?$allocator@U?$pair@$$CBV?$basic_string_view@DU?$char_traits@D@std@@@std@@PEBVRealDebugCounter@internal@protobuf@google@@@std@@@2@@2@@std@@PEAX@1@$$QEA_N@Z
	??$?0AEBQEAW4TableEntryPtr@internal@protobuf@google@@@?$_Tuple_val@AEBQEAW4TableEntryPtr@internal@protobuf@google@@@std@@QEAA@AEBQEAW4TableEntryPtr@internal@protobuf@google@@@Z
	??$?0AEBQEBVMessageLite@protobuf@google@@$0A@@?$tuple@AEBQEBVMessageLite@protobuf@google@@AEBH@std@@QEAA@AEBQEBVMessageLite@protobuf@google@@AEBH@Z
	??$?0AEBQEBVMessageLite@protobuf@google@@@?$_Tuple_val@AEBQEBVMessageLite@protobuf@google@@@std@@QEAA@AEBQEBVMessageLite@protobuf@google@@@Z
	??$?0AEBQEBX@?$_Tuple_val@AEBQEBX@std@@QEAA@AEBQEBX@Z
	??$?0AEBU?$less@V?$basic_string_view@DU?$char_traits@D@std@@@std@@@std@@U_Zero_then_variadic_args_t@1@@?$_Compressed_pair@U?$less@V?$basic_string_view@DU?$char_traits@D@std@@@std@@@std@@V?$_Compressed_pair@V?$allocator@U?$_Tree_node@U?$pair@$$CBV?$basic_string_view@DU?$char_traits@D@std@@@std@@PEBVRealDebugCounter@internal@protobuf@google@@@std@@PEAX@std@@@std@@V?$_Tree_val@U?$_Tree_simple_types@U?$pair@$$CBV?$basic_string_view@DU?$char_traits@D@std@@@std@@PEBVRealDebugCounter@internal@protobuf@google@@@std@@@std@@@2@$00@2@$00@std@@QEAA@U_One_then_variadic_args_t@1@AEBU?$less@V?$basic_string_view@DU?$char_traits@D@std@@@std@@@1@$$QEAU_Zero_then_variadic_args_t@1@@Z
	??$?0AEBU?$less@V?$basic_string_view@DU?$char_traits@D@std@@@std@@@std@@U_Zero_then_variadic_args_t@1@@?$_Compressed_pair@U?$less@V?$basic_string_view@DU?$char_traits@D@std@@@std@@@std@@V?$_Compressed_pair@V?$allocator@U?$_Tree_node@U?$pair@$$CBV?$basic_string_view@DU?$char_traits@D@std@@@std@@V?$map@V?$basic_string_view@DU?$char_traits@D@std@@@std@@PEBVRealDebugCounter@internal@protobuf@google@@U?$less@V?$basic_string_view@DU?$char_traits@D@std@@@std@@@2@V?$allocator@U?$pair@$$CBV?$basic_string_view@DU?$char_traits@D@std@@@std@@PEBVRealDebugCounter@internal@protobuf@google@@@std@@@2@@2@@std@@PEAX@std@@@std@@V?$_Tree_val@U?$_Tree_simple_types@U?$pair@$$CBV?$basic_string_view@DU?$char_traits@D@std@@@std@@V?$map@V?$basic_string_view@DU?$char_traits@D@std@@@std@@PEBVRealDebugCounter@internal@protobuf@google@@U?$less@V?$basic_string_view@DU?$char_traits@D@std@@@std@@@2@V?$allocator@U?$pair@$$CBV?$basic_string_view@DU?$char_traits@D@std@@@std@@PEBVRealDebugCounter@internal@protobuf@google@@@std@@@2@@2@@std@@@std@@@2@$00@2@$00@std@@QEAA@U_One_then_variadic_args_t@1@AEBU?$less@V?$basic_string_view@DU?$char_traits@D@std@@@std@@@1@$$QEAU_Zero_then_variadic_args_t@1@@Z
	??$?0AEBUchecked_compare@?$key_compare_adapter@U?$less@H@std@@H@container_internal@lts_20250814@absl@@@?$Storage@Uchecked_compare@?$key_compare_adapter@U?$less@H@std@@H@container_internal@lts_20250814@absl@@$0A@U?$StorageTag@Uchecked_compare@?$key_compare_adapter@U?$less@H@std@@H@container_internal@lts_20250814@absl@@V?$allocator@U?$pair@$$CBHUExtension@ExtensionSet@internal@protobuf@google@@@std@@@std@@PEAV?$btree_node@U?$map_params@HUExtension@ExtensionSet@internal@protobuf@google@@U?$less@H@std@@V?$allocator@U?$pair@$$CBHUExtension@ExtensionSet@internal@protobuf@google@@@std@@@7@$0BAA@$0A@@container_internal@lts_20250814@absl@@@345@@internal_compressed_tuple@345@$00@internal_compressed_tuple@container_internal@lts_20250814@absl@@QEAA@Uin_place_t@std@@AEBUchecked_compare@?$key_compare_adapter@U?$less@H@std@@H@234@@Z
	??$?0AEBUchecked_compare@?$key_compare_adapter@U?$less@H@std@@H@container_internal@lts_20250814@absl@@AEBV?$allocator@U?$pair@$$CBHUExtension@ExtensionSet@internal@protobuf@google@@@std@@@std@@PEAV?$btree_node@U?$map_params@HUExtension@ExtensionSet@internal@protobuf@google@@U?$less@H@std@@V?$allocator@U?$pair@$$CBHUExtension@ExtensionSet@internal@protobuf@google@@@std@@@7@$0BAA@$0A@@container_internal@lts_20250814@absl@@@234@$00@?$CompressedTuple@Uchecked_compare@?$key_compare_adapter@U?$less@H@std@@H@container_internal@lts_20250814@absl@@V?$allocator@U?$pair@$$CBHUExtension@ExtensionSet@internal@protobuf@google@@@std@@@std@@PEAV?$btree_node@U?$map_params@HUExtension@ExtensionSet@internal@protobuf@google@@U?$less@H@std@@V?$allocator@U?$pair@$$CBHUExtension@ExtensionSet@internal@protobuf@google@@@std@@@7@$0BAA@$0A@@container_internal@lts_20250814@absl@@@345@@container_internal@lts_20250814@absl@@QEAA@AEBUchecked_compare@?$key_compare_adapter@U?$less@H@std@@H@123@AEBV?$allocator@U?$pair@$$CBHUExtension@ExtensionSet@internal@protobuf@google@@@std@@@std@@$$QEAPEAV?$btree_node@U?$map_params@HUExtension@ExtensionSet@internal@protobuf@google@@U?$less@H@std@@V?$allocator@U?$pair@$$CBHUExtension@ExtensionSet@internal@protobuf@google@@@std@@@7@$0BAA@$0A@@container_internal@lts_20250814@absl@@@123@@Z
	??$?0AEBUchecked_compare@?$key_compare_adapter@U?$less@H@std@@H@container_internal@lts_20250814@absl@@AEBV?$allocator@U?$pair@$$CBHUExtension@ExtensionSet@internal@protobuf@google@@@std@@@std@@PEAV?$btree_node@U?$map_params@HUExtension@ExtensionSet@internal@protobuf@google@@U?$less@H@std@@V?$allocator@U?$pair@$$CBHUExtension@ExtensionSet@internal@protobuf@google@@@std@@@7@$0BAA@$0A@@container_internal@lts_20250814@absl@@@234@@?$CompressedTupleImpl@V?$CompressedTuple@Uchecked_compare@?$key_compare_adapter@U?$less@H@std@@H@container_internal@lts_20250814@absl@@V?$allocator@U?$pair@$$CBHUExtension@ExtensionSet@internal@protobuf@google@@@std@@@std@@PEAV?$btree_node@U?$map_params@HUExtension@ExtensionSet@internal@protobuf@google@@U?$less@H@std@@V?$allocator@U?$pair@$$CBHUExtension@ExtensionSet@internal@protobuf@google@@@std@@@7@$0BAA@$0A@@container_internal@lts_20250814@absl@@@345@@container_internal@lts_20250814@absl@@U?$integer_sequence@_K$0A@$00$01@std@@$00@internal_compressed_tuple@container_internal@lts_20250814@absl@@QEAA@Uin_place_t@std@@AEBUchecked_compare@?$key_compare_adapter@U?$less@H@std@@H@234@AEBV?$allocator@U?$pair@$$CBHUExtension@ExtensionSet@internal@protobuf@google@@@std@@@6@$$QEAPEAV?$btree_node@U?$map_params@HUExtension@ExtensionSet@internal@protobuf@google@@U?$less@H@std@@V?$allocator@U?$pair@$$CBHUExtension@ExtensionSet@internal@protobuf@google@@@std@@@7@$0BAA@$0A@@container_internal@lts_20250814@absl@@@234@@Z
	??$?0AEBUchecked_compare@?$key_compare_adapter@U?$less@UVariantKey@internal@protobuf@google@@@std@@UVariantKey@internal@protobuf@google@@@container_internal@lts_20250814@absl@@@?$Storage@Uchecked_compare@?$key_compare_adapter@U?$less@UVariantKey@internal@protobuf@google@@@std@@UVariantKey@internal@protobuf@google@@@container_internal@lts_20250814@absl@@$0A@U?$StorageTag@Uchecked_compare@?$key_compare_adapter@U?$less@UVariantKey@internal@protobuf@google@@@std@@UVariantKey@internal@protobuf@google@@@container_internal@lts_20250814@absl@@V?$MapAllocator@U?$pair@$$CBUVariantKey@internal@protobuf@google@@PEAUNodeBase@234@@std@@@internal@protobuf@google@@PEAV?$btree_node@U?$map_params@UVariantKey@internal@protobuf@google@@PEAUNodeBase@234@U?$less@UVariantKey@internal@protobuf@google@@@std@@V?$MapAllocator@U?$pair@$$CBUVariantKey@internal@protobuf@google@@PEAUNodeBase@234@@std@@@234@$0BAA@$0A@@container_internal@lts_20250814@absl@@@345@@internal_compressed_tuple@345@$00@internal_compressed_tuple@container_internal@lts_20250814@absl@@QEAA@Uin_place_t@std@@AEBUchecked_compare@?$key_compare_adapter@U?$less@UVariantKey@internal@protobuf@google@@@std@@UVariantKey@internal@protobuf@google@@@234@@Z
	??$?0AEBUchecked_compare@?$key_compare_adapter@U?$less@UVariantKey@internal@protobuf@google@@@std@@UVariantKey@internal@protobuf@google@@@container_internal@lts_20250814@absl@@AEBV?$MapAllocator@U?$pair@$$CBUVariantKey@internal@protobuf@google@@PEAUNodeBase@234@@std@@@internal@protobuf@google@@PEAV?$btree_node@U?$map_params@UVariantKey@internal@protobuf@google@@PEAUNodeBase@234@U?$less@UVariantKey@internal@protobuf@google@@@std@@V?$MapAllocator@U?$pair@$$CBUVariantKey@internal@protobuf@google@@PEAUNodeBase@234@@std@@@234@$0BAA@$0A@@container_internal@lts_20250814@absl@@@234@$00@?$CompressedTuple@Uchecked_compare@?$key_compare_adapter@U?$less@UVariantKey@internal@protobuf@google@@@std@@UVariantKey@internal@protobuf@google@@@container_internal@lts_20250814@absl@@V?$MapAllocator@U?$pair@$$CBUVariantKey@internal@protobuf@google@@PEAUNodeBase@234@@std@@@internal@protobuf@google@@PEAV?$btree_node@U?$map_params@UVariantKey@internal@protobuf@google@@PEAUNodeBase@234@U?$less@UVariantKey@internal@protobuf@google@@@std@@V?$MapAllocator@U?$pair@$$CBUVariantKey@internal@protobuf@google@@PEAUNodeBase@234@@std@@@234@$0BAA@$0A@@container_internal@lts_20250814@absl@@@345@@container_internal@lts_20250814@absl@@QEAA@AEBUchecked_compare@?$key_compare_adapter@U?$less@UVariantKey@internal@protobuf@google@@@std@@UVariantKey@internal@protobuf@google@@@123@AEBV?$MapAllocator@U?$pair@$$CBUVariantKey@internal@protobuf@google@@PEAUNodeBase@234@@std@@@internal@protobuf@google@@$$QEAPEAV?$btree_node@U?$map_params@UVariantKey@internal@protobuf@google@@PEAUNodeBase@234@U?$less@UVariantKey@internal@protobuf@google@@@std@@V?$MapAllocator@U?$pair@$$CBUVariantKey@internal@protobuf@google@@PEAUNodeBase@234@@std@@@234@$0BAA@$0A@@container_internal@lts_20250814@absl@@@123@@Z
	??$?0AEBUchecked_compare@?$key_compare_adapter@U?$less@UVariantKey@internal@protobuf@google@@@std@@UVariantKey@internal@protobuf@google@@@container_internal@lts_20250814@absl@@AEBV?$MapAllocator@U?$pair@$$CBUVariantKey@internal@protobuf@google@@PEAUNodeBase@234@@std@@@internal@protobuf@google@@PEAV?$btree_node@U?$map_params@UVariantKey@internal@protobuf@google@@PEAUNodeBase@234@U?$less@UVariantKey@internal@protobuf@google@@@std@@V?$MapAllocator@U?$pair@$$CBUVariantKey@internal@protobuf@google@@PEAUNodeBase@234@@std@@@234@$0BAA@$0A@@container_internal@lts_20250814@absl@@@234@@?$CompressedTupleImpl@V?$CompressedTuple@Uchecked_compare@?$key_compare_adapter@U?$less@UVariantKey@internal@protobuf@google@@@std@@UVariantKey@internal@protobuf@google@@@container_internal@lts_20250814@absl@@V?$MapAllocator@U?$pair@$$CBUVariantKey@internal@protobuf@google@@PEAUNodeBase@234@@std@@@internal@protobuf@google@@PEAV?$btree_node@U?$map_params@UVariantKey@internal@protobuf@google@@PEAUNodeBase@234@U?$less@UVariantKey@internal@protobuf@google@@@std@@V?$MapAllocator@U?$pair@$$CBUVariantKey@internal@protobuf@google@@PEAUNodeBase@234@@std@@@234@$0BAA@$0A@@container_internal@lts_20250814@absl@@@345@@container_internal@lts_20250814@absl@@U?$integer_sequence@_K$0A@$00$01@std@@$00@internal_compressed_tuple@container_internal@lts_20250814@absl@@QEAA@Uin_place_t@std@@AEBUchecked_compare@?$key_compare_adapter@U?$less@UVariantKey@internal@protobuf@google@@@std@@UVariantKey@internal@protobuf@google@@@234@AEBV?$MapAllocator@U?$pair@$$CBUVariantKey@internal@protobuf@google@@PEAUNodeBase@234@@std@@@internal@protobuf@google@@$$QEAPEAV?$btree_node@U?$map_params@UVariantKey@internal@protobuf@google@@PEAUNodeBase@234@U?$less@UVariantKey@internal@protobuf@google@@@std@@V?$MapAllocator@U?$pair@$$CBUVariantKey@internal@protobuf@google@@PEAUNodeBase@234@@std@@@234@$0BAA@$0A@@container_internal@lts_20250814@absl@@@234@@Z
	??$?0AEBUpiecewise_construct_t@std@@V?$tuple@AEBV?$basic_string_view@DU?$char_traits@D@std@@@std@@@1@V?$tuple@$$V@1@@?$_Tree_temp_node@V?$allocator@U?$_Tree_node@U?$pair@$$CBV?$basic_string_view@DU?$char_traits@D@std@@@std@@PEBVRealDebugCounter@internal@protobuf@google@@@std@@PEAX@std@@@std@@@std@@QEAA@AEAV?$allocator@U?$_Tree_node@U?$pair@$$CBV?$basic_string_view@DU?$char_traits@D@std@@@std@@PEBVRealDebugCounter@internal@protobuf@google@@@std@@PEAX@std@@@1@PEAU?$_Tree_node@U?$pair@$$CBV?$basic_string_view@DU?$char_traits@D@std@@@std@@PEBVRealDebugCounter@internal@protobuf@google@@@std@@PEAX@1@AEBUpiecewise_construct_t@1@$$QEAV?$tuple@AEBV?$basic_string_view@DU?$char_traits@D@std@@@std@@@1@$$QEAV?$tuple@$$V@1@@Z
	??$?0AEBUpiecewise_construct_t@std@@V?$tuple@AEBV?$basic_string_view@DU?$char_traits@D@std@@@std@@@1@V?$tuple@$$V@1@@?$_Tree_temp_node@V?$allocator@U?$_Tree_node@U?$pair@$$CBV?$basic_string_view@DU?$char_traits@D@std@@@std@@V?$map@V?$basic_string_view@DU?$char_traits@D@std@@@std@@PEBVRealDebugCounter@internal@protobuf@google@@U?$less@V?$basic_string_view@DU?$char_traits@D@std@@@std@@@2@V?$allocator@U?$pair@$$CBV?$basic_string_view@DU?$char_traits@D@std@@@std@@PEBVRealDebugCounter@internal@protobuf@google@@@std@@@2@@2@@std@@PEAX@std@@@std@@@std@@QEAA@AEAV?$allocator@U?$_Tree_node@U?$pair@$$CBV?$basic_string_view@DU?$char_traits@D@std@@@std@@V?$map@V?$basic_string_view@DU?$char_traits@D@std@@@std@@PEBVRealDebugCounter@internal@protobuf@google@@U?$less@V?$basic_string_view@DU?$char_traits@D@std@@@std@@@2@V?$allocator@U?$pair@$$CBV?$basic_string_view@DU?$char_traits@D@std@@@std@@PEBVRealDebugCounter@internal@protobuf@google@@@std@@@2@@2@@std@@PEAX@std@@@1@PEAU?$_Tree_node@U?$pair@$$CBV?$basic_string_view@DU?$char_traits@D@std@@@std@@V?$map@V?$basic_string_view@DU?$char_traits@D@std@@@std@@PEBVRealDebugCounter@internal@protobuf@google@@U?$less@V?$basic_string_view@DU?$char_traits@D@std@@@std@@@2@V?$allocator@U?$pair@$$CBV?$basic_string_view@DU?$char_traits@D@std@@@std@@PEBVRealDebugCounter@internal@protobuf@google@@@std@@@2@@2@@std@@PEAX@1@AEBUpiecewise_construct_t@1@$$QEAV?$tuple@AEBV?$basic_string_view@DU?$char_traits@D@std@@@std@@@1@$$QEAV?$tuple@$$V@1@@Z
	??$?0AEBV?$MapAllocator@U?$pair@$$CBUVariantKey@internal@protobuf@google@@PEAUNodeBase@234@@std@@@internal@protobuf@google@@@?$Storage@V?$MapAllocator@U?$pair@$$CBUVariantKey@internal@protobuf@google@@PEAUNodeBase@234@@std@@@internal@protobuf@google@@$00U?$StorageTag@Uchecked_compare@?$key_compare_adapter@U?$less@UVariantKey@internal@protobuf@google@@@std@@UVariantKey@internal@protobuf@google@@@container_internal@lts_20250814@absl@@V?$MapAllocator@U?$pair@$$CBUVariantKey@internal@protobuf@google@@PEAUNodeBase@234@@std@@@internal@protobuf@google@@PEAV?$btree_node@U?$map_params@UVariantKey@internal@protobuf@google@@PEAUNodeBase@234@U?$less@UVariantKey@internal@protobuf@google@@@std@@V?$MapAllocator@U?$pair@$$CBUVariantKey@internal@protobuf@google@@PEAUNodeBase@234@@std@@@234@$0BAA@$0A@@container_internal@lts_20250814@absl@@@345@@internal_compressed_tuple@container_internal@lts_20250814@absl@@$0A@@internal_compressed_tuple@container_internal@lts_20250814@absl@@QEAA@Uin_place_t@std@@AEBV?$MapAllocator@U?$pair@$$CBUVariantKey@internal@protobuf@google@@PEAUNodeBase@234@@std@@@internal@protobuf@google@@@Z
	??$?0AEBV?$allocator@D@std@@$$V@?$_Compressed_pair@V?$allocator@D@std@@V?$_String_val@U?$_Simple_types@D@std@@@2@$00@std@@QEAA@U_One_then_variadic_args_t@1@AEBV?$allocator@D@1@@Z
	??$?0AEBV?$allocator@I@std@@$$V@?$_Compressed_pair@V?$allocator@I@std@@V?$_Vector_val@U?$_Simple_types@I@std@@@2@$00@std@@QEAA@U_One_then_variadic_args_t@1@AEBV?$allocator@I@1@@Z
	??$?0AEBV?$allocator@U?$pair@$$CBHUExtension@ExtensionSet@internal@protobuf@google@@@std@@@std@@@?$Storage@V?$allocator@U?$pair@$$CBHUExtension@ExtensionSet@internal@protobuf@google@@@std@@@std@@$00U?$StorageTag@Uchecked_compare@?$key_compare_adapter@U?$less@H@std@@H@container_internal@lts_20250814@absl@@V?$allocator@U?$pair@$$CBHUExtension@ExtensionSet@internal@protobuf@google@@@std@@@std@@PEAV?$btree_node@U?$map_params@HUExtension@ExtensionSet@internal@protobuf@google@@U?$less@H@std@@V?$allocator@U?$pair@$$CBHUExtension@ExtensionSet@internal@protobuf@google@@@std@@@7@$0BAA@$0A@@container_internal@lts_20250814@absl@@@345@@internal_compressed_tuple@container_internal@lts_20250814@absl@@$00@internal_compressed_tuple@container_internal@lts_20250814@absl@@QEAA@Uin_place_t@std@@AEBV?$allocator@U?$pair@$$CBHUExtension@ExtensionSet@internal@protobuf@google@@@std@@@6@@Z
	??$?0AEBV?$allocator@_W@std@@$$V@?$_Compressed_pair@V?$allocator@_W@std@@V?$_String_val@U?$_Simple_types@_W@std@@@2@$00@std@@QEAA@U_One_then_variadic_args_t@1@AEBV?$allocator@_W@1@@Z
	??$?0AEBV?$basic_string_view@DU?$char_traits@D@std@@@std@@$$Z$$V@?$pair@$$CBV?$basic_string_view@DU?$char_traits@D@std@@@std@@PEBVRealDebugCounter@internal@protobuf@google@@@std@@QEAA@Upiecewise_construct_t@1@V?$tuple@AEBV?$basic_string_view@DU?$char_traits@D@std@@@std@@@1@V?$tuple@$$V@1@@Z
	??$?0AEBV?$basic_string_view@DU?$char_traits@D@std@@@std@@$$Z$$V@?$pair@$$CBV?$basic_string_view@DU?$char_traits@D@std@@@std@@V?$map@V?$basic_string_view@DU?$char_traits@D@std@@@std@@PEBVRealDebugCounter@internal@protobuf@google@@U?$less@V?$basic_string_view@DU?$char_traits@D@std@@@std@@@2@V?$allocator@U?$pair@$$CBV?$basic_string_view@DU?$char_traits@D@std@@@std@@PEBVRealDebugCounter@internal@protobuf@google@@@std@@@2@@2@@std@@QEAA@Upiecewise_construct_t@1@V?$tuple@AEBV?$basic_string_view@DU?$char_traits@D@std@@@std@@@1@V?$tuple@$$V@1@@Z
	??$?0AEBV?$basic_string_view@DU?$char_traits@D@std@@@std@@$0A@@?$tuple@AEBV?$basic_string_view@DU?$char_traits@D@std@@@std@@@std@@QEAA@AEBV?$basic_string_view@DU?$char_traits@D@std@@@1@@Z
	??$?0AEBV?$basic_string_view@DU?$char_traits@D@std@@@std@@@?$_Tuple_val@AEBV?$basic_string_view@DU?$char_traits@D@std@@@std@@@std@@QEAA@AEBV?$basic_string_view@DU?$char_traits@D@std@@@1@@Z
	??$?0AEBV?$btree_iterator@V?$btree_node@U?$map_params@HUExtension@ExtensionSet@internal@protobuf@google@@U?$less@H@std@@V?$allocator@U?$pair@$$CBHUExtension@ExtensionSet@internal@protobuf@google@@@std@@@7@$0BAA@$0A@@container_internal@lts_20250814@absl@@@container_internal@lts_20250814@absl@@AEAU?$pair@$$CBHUExtension@ExtensionSet@internal@protobuf@google@@@std@@PEAU56@@container_internal@lts_20250814@absl@@V0123@$0A@@?$pair@V?$btree_iterator@V?$btree_node@U?$map_params@HUExtension@ExtensionSet@internal@protobuf@google@@U?$less@H@std@@V?$allocator@U?$pair@$$CBHUExtension@ExtensionSet@internal@protobuf@google@@@std@@@7@$0BAA@$0A@@container_internal@lts_20250814@absl@@@container_internal@lts_20250814@absl@@AEAU?$pair@$$CBHUExtension@ExtensionSet@internal@protobuf@google@@@std@@PEAU56@@container_internal@lts_20250814@absl@@V1234@@std@@QEAA@AEBV?$btree_iterator@V?$btree_node@U?$map_params@HUExtension@ExtensionSet@internal@protobuf@google@@U?$less@H@std@@V?$allocator@U?$pair@$$CBHUExtension@ExtensionSet@internal@protobuf@google@@@std@@@7@$0BAA@$0A@@container_internal@lts_20250814@absl@@@container_internal@lts_20250814@absl@@AEAU?$pair@$$CBHUExtension@ExtensionSet@internal@protobuf@google@@@std@@PEAU56@@container_internal@lts_20250814@absl@@$$QEAV2345@@Z
	??$?0AEB_K$0A@@?$tuple@AEB_K@std@@QEAA@AEB_K@Z
	??$?0AEB_K$0A@@?$tuple@AEB_KAEBQEAW4TableEntryPtr@internal@protobuf@google@@AEBQEBX@std@@QEAA@AEB_KAEBQEAW4TableEntryPtr@internal@protobuf@google@@AEBQEBX@Z
	??$?0AEB_K@?$_Tuple_val@AEB_K@std@@QEAA@AEB_K@Z
	??$?0D@?$allocator@U?$AlignedType@$07@container_internal@lts_20250814@absl@@@std@@QEAA@AEBV?$allocator@D@1@@Z
	??$?0D@?$allocator@UExtensionInfo@internal@protobuf@google@@@std@@QEAA@AEBV?$allocator@D@1@@Z
	??$?0HAEAH$0A@@?$pair@HH@std@@QEAA@$$QEAHAEAH@Z
	??$?0HAEAV?$btree_iterator@V?$btree_node@U?$map_params@HUExtension@ExtensionSet@internal@protobuf@google@@U?$less@H@std@@V?$allocator@U?$pair@$$CBHUExtension@ExtensionSet@internal@protobuf@google@@@std@@@7@$0BAA@$0A@@container_internal@lts_20250814@absl@@@container_internal@lts_20250814@absl@@AEAU?$pair@$$CBHUExtension@ExtensionSet@internal@protobuf@google@@@std@@PEAU56@@container_internal@lts_20250814@absl@@$0A@@?$pair@_KV?$btree_iterator@V?$btree_node@U?$map_params@HUExtension@ExtensionSet@internal@protobuf@google@@U?$less@H@std@@V?$allocator@U?$pair@$$CBHUExtension@ExtensionSet@internal@protobuf@google@@@std@@@7@$0BAA@$0A@@container_internal@lts_20250814@absl@@@container_internal@lts_20250814@absl@@AEAU?$pair@$$CBHUExtension@ExtensionSet@internal@protobuf@google@@@std@@PEAU56@@container_internal@lts_20250814@absl@@@std@@QEAA@$$QEAHAEAV?$btree_iterator@V?$btree_node@U?$map_params@HUExtension@ExtensionSet@internal@protobuf@google@@U?$less@H@std@@V?$allocator@U?$pair@$$CBHUExtension@ExtensionSet@internal@protobuf@google@@@std@@@7@$0BAA@$0A@@container_internal@lts_20250814@absl@@@container_internal@lts_20250814@absl@@AEAU?$pair@$$CBHUExtension@ExtensionSet@internal@protobuf@google@@@std@@PEAU56@@container_internal@lts_20250814@absl@@@Z
	??$?0H_N$0A@@?$pair@H_N@std@@QEAA@$$QEAH$$QEA_N@Z
	??$?0H_N$0A@@?$pair@_K_N@std@@QEAA@$$QEAU?$pair@H_N@1@@Z
	??$?0N@FormatArgImpl@str_format_internal@lts_20250814@absl@@QEAA@AEBN@Z
	??$?0PEADU?$default_delete@$$BY0A@D@std@@$0A@$0A@@?$unique_ptr@$$BY0A@DU?$default_delete@$$BY0A@D@std@@@std@@QEAA@PEAD@Z
	??$?0PEAU?$_Tree_node@U?$pair@$$CBV?$basic_string_view@DU?$char_traits@D@std@@@std@@PEBVRealDebugCounter@internal@protobuf@google@@@std@@PEAX@std@@_N$0A@@?$pair@PEAU?$_Tree_node@U?$pair@$$CBV?$basic_string_view@DU?$char_traits@D@std@@@std@@PEBVRealDebugCounter@internal@protobuf@google@@@std@@PEAX@std@@_N@std@@QEAA@$$QEAPEAU?$_Tree_node@U?$pair@$$CBV?$basic_string_view@DU?$char_traits@D@std@@@std@@PEBVRealDebugCounter@internal@protobuf@google@@@std@@PEAX@1@$$QEA_N@Z
	??$?0PEAU?$_Tree_node@U?$pair@$$CBV?$basic_string_view@DU?$char_traits@D@std@@@std@@V?$map@V?$basic_string_view@DU?$char_traits@D@std@@@std@@PEBVRealDebugCounter@internal@protobuf@google@@U?$less@V?$basic_string_view@DU?$char_traits@D@std@@@std@@@2@V?$allocator@U?$pair@$$CBV?$basic_string_view@DU?$char_traits@D@std@@@std@@PEBVRealDebugCounter@internal@protobuf@google@@@std@@@2@@2@@std@@PEAX@std@@_N$0A@@?$pair@PEAU?$_Tree_node@U?$pair@$$CBV?$basic_string_view@DU?$char_traits@D@std@@@std@@V?$map@V?$basic_string_view@DU?$char_traits@D@std@@@std@@PEBVRealDebugCounter@internal@protobuf@google@@U?$less@V?$basic_string_view@DU?$char_traits@D@std@@@std@@@2@V?$allocator@U?$pair@$$CBV?$basic_string_view@DU?$char_traits@D@std@@@std@@PEBVRealDebugCounter@internal@protobuf@google@@@std@@@2@@2@@std@@PEAX@std@@_N@std@@QEAA@$$QEAPEAU?$_Tree_node@U?$pair@$$CBV?$basic_string_view@DU?$char_traits@D@std@@@std@@V?$map@V?$basic_string_view@DU?$char_traits@D@std@@@std@@PEBVRealDebugCounter@internal@protobuf@google@@U?$less@V?$basic_string_view@DU?$char_traits@D@std@@@std@@@2@V?$allocator@U?$pair@$$CBV?$basic_string_view@DU?$char_traits@D@std@@@std@@PEBVRealDebugCounter@internal@protobuf@google@@@std@@@2@@2@@std@@PEAX@1@$$QEA_N@Z
	??$?0PEAUExtension@ExtensionSet@internal@protobuf@google@@AEA_N$0A@@?$pair@PEAUExtension@ExtensionSet@internal@protobuf@google@@_N@std@@QEAA@$$QEAPEAUExtension@ExtensionSet@internal@protobuf@google@@AEA_N@Z
	??$?0PEAUExtension@ExtensionSet@internal@protobuf@google@@_N$0A@@?$pair@PEAUExtension@ExtensionSet@internal@protobuf@google@@_N@std@@QEAA@$$QEAPEAUExtension@ExtensionSet@internal@protobuf@google@@$$QEA_N@Z
	??$?0PEAV?$btree_node@U?$map_params@HUExtension@ExtensionSet@internal@protobuf@google@@U?$less@H@std@@V?$allocator@U?$pair@$$CBHUExtension@ExtensionSet@internal@protobuf@google@@@std@@@7@$0BAA@$0A@@container_internal@lts_20250814@absl@@@container_internal@lts_20250814@absl@@@?$Storage@PEAV?$btree_node@U?$map_params@HUExtension@ExtensionSet@internal@protobuf@google@@U?$less@H@std@@V?$allocator@U?$pair@$$CBHUExtension@ExtensionSet@internal@protobuf@google@@@std@@@7@$0BAA@$0A@@container_internal@lts_20250814@absl@@@container_internal@lts_20250814@absl@@$01U?$StorageTag@Uchecked_compare@?$key_compare_adapter@U?$less@H@std@@H@container_internal@lts_20250814@absl@@V?$allocator@U?$pair@$$CBHUExtension@ExtensionSet@internal@protobuf@google@@@std@@@std@@PEAV?$btree_node@U?$map_params@HUExtension@ExtensionSet@internal@protobuf@google@@U?$less@H@std@@V?$allocator@U?$pair@$$CBHUExtension@ExtensionSet@internal@protobuf@google@@@std@@@7@$0BAA@$0A@@container_internal@lts_20250814@absl@@@345@@internal_compressed_tuple@234@$0A@@internal_compressed_tuple@container_internal@lts_20250814@absl@@QEAA@Uin_place_t@std@@$$QEAPEAV?$btree_node@U?$map_params@HUExtension@ExtensionSet@internal@protobuf@google@@U?$less@H@std@@V?$allocator@U?$pair@$$CBHUExtension@ExtensionSet@internal@protobuf@google@@@std@@@7@$0BAA@$0A@@container_internal@lts_20250814@absl@@@234@@Z
	??$?0PEAV?$btree_node@U?$map_params@UVariantKey@internal@protobuf@google@@PEAUNodeBase@234@U?$less@UVariantKey@internal@protobuf@google@@@std@@V?$MapAllocator@U?$pair@$$CBUVariantKey@internal@protobuf@google@@PEAUNodeBase@234@@std@@@234@$0BAA@$0A@@container_internal@lts_20250814@absl@@@container_internal@lts_20250814@absl@@@?$Storage@PEAV?$btree_node@U?$map_params@UVariantKey@internal@protobuf@google@@PEAUNodeBase@234@U?$less@UVariantKey@internal@protobuf@google@@@std@@V?$MapAllocator@U?$pair@$$CBUVariantKey@internal@protobuf@google@@PEAUNodeBase@234@@std@@@234@$0BAA@$0A@@container_internal@lts_20250814@absl@@@container_internal@lts_20250814@absl@@$01U?$StorageTag@Uchecked_compare@?$key_compare_adapter@U?$less@UVariantKey@internal@protobuf@google@@@std@@UVariantKey@internal@protobuf@google@@@container_internal@lts_20250814@absl@@V?$MapAllocator@U?$pair@$$CBUVariantKey@internal@protobuf@google@@PEAUNodeBase@234@@std@@@internal@protobuf@google@@PEAV?$btree_node@U?$map_params@UVariantKey@internal@protobuf@google@@PEAUNodeBase@234@U?$less@UVariantKey@internal@protobuf@google@@@std@@V?$MapAllocator@U?$pair@$$CBUVariantKey@internal@protobuf@google@@PEAUNodeBase@234@@std@@@234@$0BAA@$0A@@container_internal@lts_20250814@absl@@@345@@internal_compressed_tuple@234@$0A@@internal_compressed_tuple@container_internal@lts_20250814@absl@@QEAA@Uin_place_t@std@@$$QEAPEAV?$btree_node@U?$map_params@UVariantKey@internal@protobuf@google@@PEAUNodeBase@234@U?$less@UVariantKey@internal@protobuf@google@@@std@@V?$MapAllocator@U?$pair@$$CBUVariantKey@internal@protobuf@google@@PEAUNodeBase@234@@std@@@234@$0BAA@$0A@@container_internal@lts_20250814@absl@@@234@@Z
	??$?0PEAVZeroCopyCodedInputStream@protobuf@google@@@ParseContext@internal@protobuf@google@@QEAA@H_NPEAPEBD$$QEAPEAVZeroCopyCodedInputStream@23@@Z
	??$?0PEAX@?$MapAllocator@U?$pair@$$CBUVariantKey@internal@protobuf@google@@PEAUNodeBase@234@@std@@@internal@protobuf@google@@QEAA@AEBV?$MapAllocator@PEAX@123@@Z
	??$?0PEAX@?$MapAllocator@UNodeBase@internal@protobuf@google@@@internal@protobuf@google@@QEAA@AEBV?$MapAllocator@PEAX@123@@Z
	??$?0PEAX@?$MapAllocator@W4TableEntryPtr@internal@protobuf@google@@@internal@protobuf@google@@QEAA@AEBV?$MapAllocator@PEAX@123@@Z
	??$?0PEA_WU?$default_delete@$$BY0A@_W@std@@$0A@$0A@@?$unique_ptr@$$BY0A@_WU?$default_delete@$$BY0A@_W@std@@@std@@QEAA@PEA_W@Z
	??$?0PEBDAEAI$0A@@?$pair@PEBDH@std@@QEAA@$$QEAPEBDAEAI@Z
	??$?0PEBDAEAI$0A@@?$pair@PEBDI@std@@QEAA@$$QEAPEBDAEAI@Z
	??$?0PEBDAEA_K$0A@@?$pair@PEBD_K@std@@QEAA@$$QEAPEBDAEA_K@Z
	??$?0PEBV?$basic_string@DU?$char_traits@D@std@@V?$allocator@D@2@@std@@$0A@@?$atomic@PEBV?$basic_string@DU?$char_traits@D@std@@V?$allocator@D@2@@std@@@std@@QEAA@XZ
	??$?0PEB_W$0A@@?$basic_string@_WU?$char_traits@_W@std@@V?$allocator@_W@2@@std@@QEAA@AEBQEB_W_K1AEBV?$allocator@_W@1@@Z
	??$?0U?$default_delete@$$BY0A@E@std@@$0A@@?$unique_ptr@$$BY0A@EU?$default_delete@$$BY0A@E@std@@@std@@QEAA@XZ
	??$?0U?$default_delete@VMessageLite@protobuf@google@@@std@@$0A@@?$unique_ptr@VMessageLite@protobuf@google@@U?$default_delete@VMessageLite@protobuf@google@@@std@@@std@@QEAA@PEAVMessageLite@protobuf@google@@@Z
	??$?0U?$pair@$$CBHUExtension@ExtensionSet@internal@protobuf@google@@@std@@@?$allocator@U?$AlignedType@$07@container_internal@lts_20250814@absl@@@std@@QEAA@AEBV?$allocator@U?$pair@$$CBHUExtension@ExtensionSet@internal@protobuf@google@@@std@@@1@@Z
	??$?0U?$pair@$$CBUVariantKey@internal@protobuf@google@@PEAUNodeBase@234@@std@@@?$MapAllocator@U?$AlignedType@$07@container_internal@lts_20250814@absl@@@internal@protobuf@google@@QEAA@AEBV?$MapAllocator@U?$pair@$$CBUVariantKey@internal@protobuf@google@@PEAUNodeBase@234@@std@@@123@@Z
	??$?0UHex@lts_20250814@absl@@X@AlphaNum@lts_20250814@absl@@QEAA@AEBUHex@12@$$QEAVStringifySink@strings_internal@12@@Z
	??$?0UVariantKey@internal@protobuf@google@@$$V$0A@@?$tuple@$$QEAUVariantKey@internal@protobuf@google@@@std@@QEAA@$$QEAUVariantKey@internal@protobuf@google@@@Z
	??$?0UVariantKey@internal@protobuf@google@@@?$_Tuple_val@$$QEAUVariantKey@internal@protobuf@google@@@std@@QEAA@$$QEAUVariantKey@internal@protobuf@google@@@Z
	??$?0U_Exact_args_t@std@@$0A@@?$tuple@$$V@std@@QEAA@U_Exact_args_t@1@@Z
	??$?0U_Exact_args_t@std@@AEAPEAUExtension@ExtensionSet@internal@protobuf@google@@AEA_N$0A@@?$tuple@AEAPEAUExtension@ExtensionSet@internal@protobuf@google@@AEA_N@std@@QEAA@U_Exact_args_t@1@AEAPEAUExtension@ExtensionSet@internal@protobuf@google@@AEA_N@Z
	??$?0U_Exact_args_t@std@@AEAPEAUNodeBase@internal@protobuf@google@@$$V$0A@@?$tuple@AEAPEAUNodeBase@internal@protobuf@google@@@std@@QEAA@U_Exact_args_t@1@AEAPEAUNodeBase@internal@protobuf@google@@@Z
	??$?0U_Exact_args_t@std@@AEA_N$$V$0A@@?$tuple@AEA_N@std@@QEAA@U_Exact_args_t@1@AEA_N@Z
	??$?0U_Exact_args_t@std@@AEBH$$V$0A@@?$tuple@AEBH@std@@QEAA@U_Exact_args_t@1@AEBH@Z
	??$?0U_Exact_args_t@std@@AEBIAEBV?$basic_string_view@DU?$char_traits@D@std@@@1@$0A@@?$tuple@AEBIAEBV?$basic_string_view@DU?$char_traits@D@std@@@std@@@std@@QEAA@U_Exact_args_t@1@AEBIAEBV?$basic_string_view@DU?$char_traits@D@std@@@1@@Z
	??$?0U_Exact_args_t@std@@AEBQEAW4TableEntryPtr@internal@protobuf@google@@AEBQEBX$0A@@?$tuple@AEBQEAW4TableEntryPtr@internal@protobuf@google@@AEBQEBX@std@@QEAA@U_Exact_args_t@1@AEBQEAW4TableEntryPtr@internal@protobuf@google@@AEBQEBX@Z
	??$?0U_Exact_args_t@std@@AEBQEBVMessageLite@protobuf@google@@AEBH$0A@@?$tuple@AEBQEBVMessageLite@protobuf@google@@AEBH@std@@QEAA@U_Exact_args_t@1@AEBQEBVMessageLite@protobuf@google@@AEBH@Z
	??$?0U_Exact_args_t@std@@AEBQEBX$$V$0A@@?$tuple@AEBQEBX@std@@QEAA@U_Exact_args_t@1@AEBQEBX@Z
	??$?0U_Exact_args_t@std@@AEBV?$basic_string_view@DU?$char_traits@D@std@@@1@$$V$0A@@?$tuple@AEBV?$basic_string_view@DU?$char_traits@D@std@@@std@@@std@@QEAA@U_Exact_args_t@1@AEBV?$basic_string_view@DU?$char_traits@D@std@@@1@@Z
	??$?0U_Exact_args_t@std@@AEB_K$$V$0A@@?$tuple@AEB_K@std@@QEAA@U_Exact_args_t@1@AEB_K@Z
	??$?0U_Exact_args_t@std@@AEB_KAEBQEAW4TableEntryPtr@internal@protobuf@google@@AEBQEBX$0A@@?$tuple@AEB_KAEBQEAW4TableEntryPtr@internal@protobuf@google@@AEBQEBX@std@@QEAA@U_Exact_args_t@1@AEB_KAEBQEAW4TableEntryPtr@internal@protobuf@google@@AEBQEBX@Z
	??$?0U_Exact_args_t@std@@UVariantKey@internal@protobuf@google@@$$V$0A@@?$tuple@$$QEAUVariantKey@internal@protobuf@google@@@std@@QEAA@U_Exact_args_t@1@$$QEAUVariantKey@internal@protobuf@google@@@Z
	??$?0V?$allocator@D@std@@$$V@?$_Compressed_pair@V?$allocator@D@std@@V?$_String_val@U?$_Simple_types@D@std@@@2@$00@std@@QEAA@U_One_then_variadic_args_t@1@$$QEAV?$allocator@D@1@@Z
	??$?0V?$allocator@D@std@@@AlphaNum@lts_20250814@absl@@QEAA@AEBV?$basic_string@DU?$char_traits@D@std@@V?$allocator@D@2@@std@@@Z
	??$?0V?$allocator@I@std@@PEAIPEAIPEAI@?$_Compressed_pair@V?$allocator@I@std@@V?$_Vector_val@U?$_Simple_types@I@std@@@2@$00@std@@QEAA@U_One_then_variadic_args_t@1@$$QEAV?$allocator@I@1@$$QEAPEAI22@Z
	??$?0V?$allocator@PEAX@std@@PEAPEAXPEAPEAXPEAPEAX@?$_Compressed_pair@V?$allocator@PEAX@std@@V?$_Vector_val@U?$_Simple_types@PEAX@std@@@2@$00@std@@QEAA@U_One_then_variadic_args_t@1@$$QEAV?$allocator@PEAX@1@$$QEAPEAPEAX22@Z
	??$?0V?$allocator@_W@std@@$$V@?$_Compressed_pair@V?$allocator@_W@std@@V?$_String_val@U?$_Simple_types@_W@std@@@2@$00@std@@QEAA@U_One_then_variadic_args_t@1@$$QEAV?$allocator@_W@1@@Z
	??$?0V?$basic_string_view@DU?$char_traits@D@std@@@std@@$0A@@?$basic_string@DU?$char_traits@D@std@@V?$allocator@D@2@@std@@QEAA@AEBV?$basic_string_view@DU?$char_traits@D@std@@@1@AEBV?$allocator@D@1@@Z
	??$?0V?$basic_string_view@DU?$char_traits@D@std@@@std@@$0A@@?$optional@V?$basic_string_view@DU?$char_traits@D@std@@@std@@@std@@QEAA@$$QEAV?$basic_string_view@DU?$char_traits@D@std@@@1@@Z
	??$?0V?$basic_string_view@DU?$char_traits@D@std@@@std@@@?$_Optional_construct_base@V?$basic_string_view@DU?$char_traits@D@std@@@std@@@std@@QEAA@Uin_place_t@1@$$QEAV?$basic_string_view@DU?$char_traits@D@std@@@1@@Z
	??$?0V?$basic_string_view@DU?$char_traits@D@std@@@std@@@?$_Optional_destruct_base@V?$basic_string_view@DU?$char_traits@D@std@@@std@@$00@std@@QEAA@Uin_place_t@1@$$QEAV?$basic_string_view@DU?$char_traits@D@std@@@1@@Z
	??$?0V?$basic_string_view@DU?$char_traits@D@std@@@std@@@FormatArgImpl@str_format_internal@lts_20250814@absl@@QEAA@AEBV?$basic_string_view@DU?$char_traits@D@std@@@std@@@Z
	??$?0V?$basic_string_view@DU?$char_traits@D@std@@@std@@V01@$0A@@?$pair@V?$basic_string_view@DU?$char_traits@D@std@@@std@@V12@@std@@QEAA@$$QEAV?$basic_string_view@DU?$char_traits@D@std@@@1@0@Z
	??$?0V?$btree_iterator@V?$btree_node@U?$map_params@HUExtension@ExtensionSet@internal@protobuf@google@@U?$less@H@std@@V?$allocator@U?$pair@$$CBHUExtension@ExtensionSet@internal@protobuf@google@@@std@@@7@$0BAA@$0A@@container_internal@lts_20250814@absl@@@container_internal@lts_20250814@absl@@AEAU?$pair@$$CBHUExtension@ExtensionSet@internal@protobuf@google@@@std@@PEAU56@@container_internal@lts_20250814@absl@@V0123@$0A@@?$pair@V?$btree_iterator@V?$btree_node@U?$map_params@HUExtension@ExtensionSet@internal@protobuf@google@@U?$less@H@std@@V?$allocator@U?$pair@$$CBHUExtension@ExtensionSet@internal@protobuf@google@@@std@@@7@$0BAA@$0A@@container_internal@lts_20250814@absl@@@container_internal@lts_20250814@absl@@AEAU?$pair@$$CBHUExtension@ExtensionSet@internal@protobuf@google@@@std@@PEAU56@@container_internal@lts_20250814@absl@@V1234@@std@@QEAA@AEBV?$btree_iterator@V?$btree_node@U?$map_params@HUExtension@ExtensionSet@internal@protobuf@google@@U?$less@H@std@@V?$allocator@U?$pair@$$CBHUExtension@ExtensionSet@internal@protobuf@google@@@std@@@7@$0BAA@$0A@@container_internal@lts_20250814@absl@@@container_internal@lts_20250814@absl@@AEAU?$pair@$$CBHUExtension@ExtensionSet@internal@protobuf@google@@@std@@PEAU56@@container_internal@lts_20250814@absl@@0@Z
	??$?0V?$btree_iterator@V?$btree_node@U?$map_params@HUExtension@ExtensionSet@internal@protobuf@google@@U?$less@H@std@@V?$allocator@U?$pair@$$CBHUExtension@ExtensionSet@internal@protobuf@google@@@std@@@7@$0BAA@$0A@@container_internal@lts_20250814@absl@@@container_internal@lts_20250814@absl@@AEAU?$pair@$$CBHUExtension@ExtensionSet@internal@protobuf@google@@@std@@PEAU56@@container_internal@lts_20250814@absl@@_N$0A@@?$pair@V?$btree_iterator@V?$btree_node@U?$map_params@HUExtension@ExtensionSet@internal@protobuf@google@@U?$less@H@std@@V?$allocator@U?$pair@$$CBHUExtension@ExtensionSet@internal@protobuf@google@@@std@@@7@$0BAA@$0A@@container_internal@lts_20250814@absl@@@container_internal@lts_20250814@absl@@AEAU?$pair@$$CBHUExtension@ExtensionSet@internal@protobuf@google@@@std@@PEAU56@@container_internal@lts_20250814@absl@@_N@std@@QEAA@$$QEAV?$btree_iterator@V?$btree_node@U?$map_params@HUExtension@ExtensionSet@internal@protobuf@google@@U?$less@H@std@@V?$allocator@U?$pair@$$CBHUExtension@ExtensionSet@internal@protobuf@google@@@std@@@7@$0BAA@$0A@@container_internal@lts_20250814@absl@@@container_internal@lts_20250814@absl@@AEAU?$pair@$$CBHUExtension@ExtensionSet@internal@protobuf@google@@@std@@PEAU56@@container_internal@lts_20250814@absl@@$$QEA_N@Z
	??$?0V?$btree_iterator@V?$btree_node@U?$map_params@HUExtension@ExtensionSet@internal@protobuf@google@@U?$less@H@std@@V?$allocator@U?$pair@$$CBHUExtension@ExtensionSet@internal@protobuf@google@@@std@@@7@$0BAA@$0A@@container_internal@lts_20250814@absl@@@container_internal@lts_20250814@absl@@AEAU?$pair@$$CBHUExtension@ExtensionSet@internal@protobuf@google@@@std@@PEAU56@@container_internal@lts_20250814@absl@@_N$0A@@?$pair@V?$btree_iterator@V?$btree_node@U?$map_params@HUExtension@ExtensionSet@internal@protobuf@google@@U?$less@H@std@@V?$allocator@U?$pair@$$CBHUExtension@ExtensionSet@internal@protobuf@google@@@std@@@7@$0BAA@$0A@@container_internal@lts_20250814@absl@@@container_internal@lts_20250814@absl@@AEAU?$pair@$$CBHUExtension@ExtensionSet@internal@protobuf@google@@@std@@PEAU56@@container_internal@lts_20250814@absl@@_N@std@@QEAA@AEBV?$btree_iterator@V?$btree_node@U?$map_params@HUExtension@ExtensionSet@internal@protobuf@google@@U?$less@H@std@@V?$allocator@U?$pair@$$CBHUExtension@ExtensionSet@internal@protobuf@google@@@std@@@7@$0BAA@$0A@@container_internal@lts_20250814@absl@@@container_internal@lts_20250814@absl@@AEAU?$pair@$$CBHUExtension@ExtensionSet@internal@protobuf@google@@@std@@PEAU56@@container_internal@lts_20250814@absl@@AEB_N@Z
	??$?0V?$btree_iterator@V?$btree_node@U?$map_params@UVariantKey@internal@protobuf@google@@PEAUNodeBase@234@U?$less@UVariantKey@internal@protobuf@google@@@std@@V?$MapAllocator@U?$pair@$$CBUVariantKey@internal@protobuf@google@@PEAUNodeBase@234@@std@@@234@$0BAA@$0A@@container_internal@lts_20250814@absl@@@container_internal@lts_20250814@absl@@AEAU?$pair@$$CBUVariantKey@internal@protobuf@google@@PEAUNodeBase@234@@std@@PEAU56@@container_internal@lts_20250814@absl@@_N$0A@@?$pair@V?$btree_iterator@V?$btree_node@U?$map_params@UVariantKey@internal@protobuf@google@@PEAUNodeBase@234@U?$less@UVariantKey@internal@protobuf@google@@@std@@V?$MapAllocator@U?$pair@$$CBUVariantKey@internal@protobuf@google@@PEAUNodeBase@234@@std@@@234@$0BAA@$0A@@container_internal@lts_20250814@absl@@@container_internal@lts_20250814@absl@@AEAU?$pair@$$CBUVariantKey@internal@protobuf@google@@PEAUNodeBase@234@@std@@PEAU56@@container_internal@lts_20250814@absl@@_N@std@@QEAA@$$QEAV?$btree_iterator@V?$btree_node@U?$map_params@UVariantKey@internal@protobuf@google@@PEAUNodeBase@234@U?$less@UVariantKey@internal@protobuf@google@@@std@@V?$MapAllocator@U?$pair@$$CBUVariantKey@internal@protobuf@google@@PEAUNodeBase@234@@std@@@234@$0BAA@$0A@@container_internal@lts_20250814@absl@@@container_internal@lts_20250814@absl@@AEAU?$pair@$$CBUVariantKey@internal@protobuf@google@@PEAUNodeBase@234@@std@@PEAU56@@container_internal@lts_20250814@absl@@$$QEA_N@Z
	??$?0V?$btree_node@U?$map_params@HUExtension@ExtensionSet@internal@protobuf@google@@U?$less@H@std@@V?$allocator@U?$pair@$$CBHUExtension@ExtensionSet@internal@protobuf@google@@@std@@@7@$0BAA@$0A@@container_internal@lts_20250814@absl@@@container_internal@lts_20250814@absl@@AEAU?$pair@$$CBHUExtension@ExtensionSet@internal@protobuf@google@@@std@@PEAU45@$0A@@?$btree_iterator@$$CBV?$btree_node@U?$map_params@HUExtension@ExtensionSet@internal@protobuf@google@@U?$less@H@std@@V?$allocator@U?$pair@$$CBHUExtension@ExtensionSet@internal@protobuf@google@@@std@@@7@$0BAA@$0A@@container_internal@lts_20250814@absl@@@container_internal@lts_20250814@absl@@AEBU?$pair@$$CBHUExtension@ExtensionSet@internal@protobuf@google@@@std@@PEBU56@@container_internal@lts_20250814@absl@@QEAA@V?$btree_iterator@V?$btree_node@U?$map_params@HUExtension@ExtensionSet@internal@protobuf@google@@U?$less@H@std@@V?$allocator@U?$pair@$$CBHUExtension@ExtensionSet@internal@protobuf@google@@@std@@@7@$0BAA@$0A@@container_internal@lts_20250814@absl@@@container_internal@lts_20250814@absl@@AEAU?$pair@$$CBHUExtension@ExtensionSet@internal@protobuf@google@@@std@@PEAU56@@123@@Z
	??$?0V?$btree_node@U?$map_params@UVariantKey@internal@protobuf@google@@PEAUNodeBase@234@U?$less@UVariantKey@internal@protobuf@google@@@std@@V?$MapAllocator@U?$pair@$$CBUVariantKey@internal@protobuf@google@@PEAUNodeBase@234@@std@@@234@$0BAA@$0A@@container_internal@lts_20250814@absl@@@container_internal@lts_20250814@absl@@AEAU?$pair@$$CBUVariantKey@internal@protobuf@google@@PEAUNodeBase@234@@std@@PEAU45@$0A@@?$btree_iterator@$$CBV?$btree_node@U?$map_params@UVariantKey@internal@protobuf@google@@PEAUNodeBase@234@U?$less@UVariantKey@internal@protobuf@google@@@std@@V?$MapAllocator@U?$pair@$$CBUVariantKey@internal@protobuf@google@@PEAUNodeBase@234@@std@@@234@$0BAA@$0A@@container_internal@lts_20250814@absl@@@container_internal@lts_20250814@absl@@AEBU?$pair@$$CBUVariantKey@internal@protobuf@google@@PEAUNodeBase@234@@std@@PEBU56@@container_internal@lts_20250814@absl@@QEAA@V?$btree_iterator@V?$btree_node@U?$map_params@UVariantKey@internal@protobuf@google@@PEAUNodeBase@234@U?$less@UVariantKey@internal@protobuf@google@@@std@@V?$MapAllocator@U?$pair@$$CBUVariantKey@internal@protobuf@google@@PEAUNodeBase@234@@std@@@234@$0BAA@$0A@@container_internal@lts_20250814@absl@@@container_internal@lts_20250814@absl@@AEAU?$pair@$$CBUVariantKey@internal@protobuf@google@@PEAUNodeBase@234@@std@@PEAU56@@123@@Z
	??$?0V?$tuple@$$QEAUVariantKey@internal@protobuf@google@@@std@@V?$tuple@AEAPEAUNodeBase@internal@protobuf@google@@@1@$0A@$$Z$0A@@?$pair@$$CBUVariantKey@internal@protobuf@google@@PEAUNodeBase@234@@std@@AEAA@AEAV?$tuple@$$QEAUVariantKey@internal@protobuf@google@@@1@AEAV?$tuple@AEAPEAUNodeBase@internal@protobuf@google@@@1@U?$integer_sequence@_K$0A@@1@2@Z
	??$?0V?$tuple@$$QEAUVariantKey@internal@protobuf@google@@@std@@V?$tuple@AEAPEAUNodeBase@internal@protobuf@google@@@1@$0A@$$Z$0A@@?$pair@UVariantKey@internal@protobuf@google@@PEAUNodeBase@234@@std@@AEAA@AEAV?$tuple@$$QEAUVariantKey@internal@protobuf@google@@@1@AEAV?$tuple@AEAPEAUNodeBase@internal@protobuf@google@@@1@U?$integer_sequence@_K$0A@@1@2@Z
	??$?0V?$tuple@AEBV?$basic_string_view@DU?$char_traits@D@std@@@std@@@std@@V?$tuple@$$V@1@$0A@$$Z$S@?$pair@$$CBV?$basic_string_view@DU?$char_traits@D@std@@@std@@PEBVRealDebugCounter@internal@protobuf@google@@@std@@AEAA@AEAV?$tuple@AEBV?$basic_string_view@DU?$char_traits@D@std@@@std@@@1@AEAV?$tuple@$$V@1@U?$integer_sequence@_K$0A@@1@U?$integer_sequence@_K$S@1@@Z
	??$?0V?$tuple@AEBV?$basic_string_view@DU?$char_traits@D@std@@@std@@@std@@V?$tuple@$$V@1@$0A@$$Z$S@?$pair@$$CBV?$basic_string_view@DU?$char_traits@D@std@@@std@@V?$map@V?$basic_string_view@DU?$char_traits@D@std@@@std@@PEBVRealDebugCounter@internal@protobuf@google@@U?$less@V?$basic_string_view@DU?$char_traits@D@std@@@std@@@2@V?$allocator@U?$pair@$$CBV?$basic_string_view@DU?$char_traits@D@std@@@std@@PEBVRealDebugCounter@internal@protobuf@google@@@std@@@2@@2@@std@@AEAA@AEAV?$tuple@AEBV?$basic_string_view@DU?$char_traits@D@std@@@std@@@1@AEAV?$tuple@$$V@1@U?$integer_sequence@_K$0A@@1@U?$integer_sequence@_K$S@1@@Z
	??$?0V?$vector@HV?$allocator@H@std@@@std@@XV01@H@?$Span@$$CBH@lts_20250814@absl@@QEAA@AEBV?$vector@HV?$allocator@H@std@@@std@@@Z
	??$?0VArrayOutputStream@io@protobuf@google@@X@CodedOutputStream@io@protobuf@google@@QEAA@PEAVArrayOutputStream@123@@Z
	??$?0VStringOutputStream@io@protobuf@google@@X@CodedOutputStream@io@protobuf@google@@QEAA@PEAVStringOutputStream@123@@Z
	??$?0_K$0A@@?$atomic@_K@std@@QEAA@XZ
	??$?0_K@FormatArgImpl@str_format_internal@lts_20250814@absl@@QEAA@AEB_K@Z
	??$?0_NAEAPEBE$0A@@?$pair@_NPEBE@std@@QEAA@$$QEA_NAEAPEBE@Z
	??$?0_NPEBE$0A@@?$pair@_NPEBE@std@@QEAA@$$QEA_N$$QEAPEBE@Z
	??$?4AEAH$0A@@?$optional@F@std@@QEAAAEAV01@AEAH@Z
	??$?4PEAUExtension@ExtensionSet@internal@protobuf@google@@_N$0A@@?$tuple@AEAPEAUExtension@ExtensionSet@internal@protobuf@google@@AEA_N@std@@QEAAAEAV01@$$QEAU?$pair@PEAUExtension@ExtensionSet@internal@protobuf@google@@_N@1@@Z
	??$?6$$BY02D@log_internal@lts_20250814@absl@@YAAEAVNullStream@012@AEAV3012@AEAY02$$CBD@Z
	??$?6$$BY0DA@D@log_internal@lts_20250814@absl@@YAAEAVNullStream@012@AEAV3012@AEAY0DA@$$CBD@Z
	??$?6$$BY0DL@D@log_internal@lts_20250814@absl@@YAAEAVNullStream@012@AEAV3012@AEAY0DL@$$CBD@Z
	??$?6$$BY0DO@D@log_internal@lts_20250814@absl@@YAAEAVNullStream@012@AEAV3012@AEAY0DO@$$CBD@Z
	??$?6$$BY0EA@D@log_internal@lts_20250814@absl@@YAAEAVNullStream@012@AEAV3012@AEAY0EA@$$CBD@Z
	??$?6$$BY0L@D@log_internal@lts_20250814@absl@@YAAEAVNullStream@012@AEAV3012@AEAY0L@$$CBD@Z
	??$?6$01@LogMessage@log_internal@lts_20250814@absl@@QEAAAEAV0123@AEAY01$$CBD@Z
	??$?6$03@LogMessage@log_internal@lts_20250814@absl@@QEAAAEAV0123@AEAY03$$CBD@Z
	??$?6$04@LogMessage@log_internal@lts_20250814@absl@@QEAAAEAV0123@AEAY04$$CBD@Z
	??$?6$05@LogMessage@log_internal@lts_20250814@absl@@QEAAAEAV0123@AEAY05$$CBD@Z
	??$?6$0BA@@LogMessage@log_internal@lts_20250814@absl@@QEAAAEAV0123@AEAY0BA@$$CBD@Z
	??$?6$0BB@@LogMessage@log_internal@lts_20250814@absl@@QEAAAEAV0123@AEAY0BB@$$CBD@Z
	??$?6$0BD@@LogMessage@log_internal@lts_20250814@absl@@QEAAAEAV0123@AEAY0BD@$$CBD@Z
	??$?6$0BF@@LogMessage@log_internal@lts_20250814@absl@@QEAAAEAV0123@AEAY0BF@$$CBD@Z
	??$?6$0BG@@LogMessage@log_internal@lts_20250814@absl@@QEAAAEAV0123@AEAY0BG@$$CBD@Z
	??$?6$0BJ@@LogMessage@log_internal@lts_20250814@absl@@QEAAAEAV0123@AEAY0BJ@$$CBD@Z
	??$?6$0BK@@LogMessage@log_internal@lts_20250814@absl@@QEAAAEAV0123@AEAY0BK@$$CBD@Z
	??$?6$0BN@@LogMessage@log_internal@lts_20250814@absl@@QEAAAEAV0123@AEAY0BN@$$CBD@Z
	??$?6$0BO@@LogMessage@log_internal@lts_20250814@absl@@QEAAAEAV0123@AEAY0BO@$$CBD@Z
	??$?6$0BP@@LogMessage@log_internal@lts_20250814@absl@@QEAAAEAV0123@AEAY0BP@$$CBD@Z
	??$?6$0CE@@LogMessage@log_internal@lts_20250814@absl@@QEAAAEAV0123@AEAY0CE@$$CBD@Z
	??$?6$0CF@@LogMessage@log_internal@lts_20250814@absl@@QEAAAEAV0123@AEAY0CF@$$CBD@Z
	??$?6$0CG@@LogMessage@log_internal@lts_20250814@absl@@QEAAAEAV0123@AEAY0CG@$$CBD@Z
	??$?6$0CH@@LogMessage@log_internal@lts_20250814@absl@@QEAAAEAV0123@AEAY0CH@$$CBD@Z
	??$?6$0CI@@LogMessage@log_internal@lts_20250814@absl@@QEAAAEAV0123@AEAY0CI@$$CBD@Z
	??$?6$0CJ@@LogMessage@log_internal@lts_20250814@absl@@QEAAAEAV0123@AEAY0CJ@$$CBD@Z
	??$?6$0CK@@LogMessage@log_internal@lts_20250814@absl@@QEAAAEAV0123@AEAY0CK@$$CBD@Z
	??$?6$0CL@@LogMessage@log_internal@lts_20250814@absl@@QEAAAEAV0123@AEAY0CL@$$CBD@Z
	??$?6$0CM@@LogMessage@log_internal@lts_20250814@absl@@QEAAAEAV0123@AEAY0CM@$$CBD@Z
	??$?6$0DA@@LogMessage@log_internal@lts_20250814@absl@@QEAAAEAV0123@AEAY0DA@$$CBD@Z
	??$?6$0DB@@LogMessage@log_internal@lts_20250814@absl@@QEAAAEAV0123@AEAY0DB@$$CBD@Z
	??$?6$0DF@@LogMessage@log_internal@lts_20250814@absl@@QEAAAEAV0123@AEAY0DF@$$CBD@Z
	??$?6$0DH@@LogMessage@log_internal@lts_20250814@absl@@QEAAAEAV0123@AEAY0DH@$$CBD@Z
	??$?6$0DJ@@LogMessage@log_internal@lts_20250814@absl@@QEAAAEAV0123@AEAY0DJ@$$CBD@Z
	??$?6$0DK@@LogMessage@log_internal@lts_20250814@absl@@QEAAAEAV0123@AEAY0DK@$$CBD@Z
	??$?6$0ED@@LogMessage@log_internal@lts_20250814@absl@@QEAAAEAV0123@AEAY0ED@$$CBD@Z
	??$?6$0EO@@LogMessage@log_internal@lts_20250814@absl@@QEAAAEAV0123@AEAY0EO@$$CBD@Z
	??$?6$0HL@@LogMessage@log_internal@lts_20250814@absl@@QEAAAEAV0123@AEAY0HL@$$CBD@Z
	??$?6$0JG@@LogMessage@log_internal@lts_20250814@absl@@QEAAAEAV0123@AEAY0JG@$$CBD@Z
	??$?6$0JL@@LogMessage@log_internal@lts_20250814@absl@@QEAAAEAV0123@AEAY0JL@$$CBD@Z
	??$?6$0M@@LogMessage@log_internal@lts_20250814@absl@@QEAAAEAV0123@AEAY0M@$$CBD@Z
	??$?6$0MN@@LogMessage@log_internal@lts_20250814@absl@@QEAAAEAV0123@AEAY0MN@$$CBD@Z
	??$?6$0N@@LogMessage@log_internal@lts_20250814@absl@@QEAAAEAV0123@AEAY0N@$$CBD@Z
	??$?6$0O@@LogMessage@log_internal@lts_20250814@absl@@QEAAAEAV0123@AEAY0O@$$CBD@Z
	??$?6H@log_internal@lts_20250814@absl@@YAAEAVNullStream@012@AEAV3012@AEBH@Z
	??$?6I@log_internal@lts_20250814@absl@@YAAEAVNullStream@012@AEAV3012@AEBI@Z
	??$?6PEAD@LogMessage@log_internal@lts_20250814@absl@@QEAAAEAV0123@AEBQEAD@Z
	??$?6PEAV?$RepeatedField@H@protobuf@google@@@LogMessage@log_internal@lts_20250814@absl@@QEAAAEAV0123@AEBQEAV?$RepeatedField@H@protobuf@google@@@Z
	??$?6PEAV?$RepeatedField@I@protobuf@google@@@LogMessage@log_internal@lts_20250814@absl@@QEAAAEAV0123@AEBQEAV?$RepeatedField@I@protobuf@google@@@Z
	??$?6PEAV?$RepeatedField@M@protobuf@google@@@LogMessage@log_internal@lts_20250814@absl@@QEAAAEAV0123@AEBQEAV?$RepeatedField@M@protobuf@google@@@Z
	??$?6PEAV?$RepeatedField@N@protobuf@google@@@LogMessage@log_internal@lts_20250814@absl@@QEAAAEAV0123@AEBQEAV?$RepeatedField@N@protobuf@google@@@Z
	??$?6PEAV?$RepeatedField@_J@protobuf@google@@@LogMessage@log_internal@lts_20250814@absl@@QEAAAEAV0123@AEBQEAV?$RepeatedField@_J@protobuf@google@@@Z
	??$?6PEAV?$RepeatedField@_K@protobuf@google@@@LogMessage@log_internal@lts_20250814@absl@@QEAAAEAV0123@AEBQEAV?$RepeatedField@_K@protobuf@google@@@Z
	??$?6PEBD@LogMessage@log_internal@lts_20250814@absl@@QEAAAEAV0123@AEBQEBD@Z
	??$?6U?$char_traits@D@std@@@std@@YAAEAV?$basic_ostream@DU?$char_traits@D@std@@@0@AEAV10@PEBD@Z
	??$?6V?$basic_string@DU?$char_traits@D@std@@V?$allocator@D@2@@std@@@log_internal@lts_20250814@absl@@YAAEAVNullStream@012@AEAV3012@AEBV?$basic_string@DU?$char_traits@D@std@@V?$allocator@D@2@@std@@@Z
	??$?6_WU?$char_traits@_W@std@@@std@@YAAEAV?$basic_ostream@_WU?$char_traits@_W@std@@@0@AEAV10@_W@Z
	??$?6_WU?$char_traits@_W@std@@V?$allocator@_W@1@@std@@YAAEAV?$basic_ostream@_WU?$char_traits@_W@std@@@0@AEAV10@AEBV?$basic_string@_WU?$char_traits@_W@std@@V?$allocator@_W@2@@0@@Z
	??$?8$$BY0A@EU?$default_delete@$$BY0A@E@std@@@std@@YA_NAEBV?$unique_ptr@$$BY0A@EU?$default_delete@$$BY0A@E@std@@@0@$$T@Z
	??$?8DU?$char_traits@D@std@@@std@@YA_NV?$basic_string_view@DU?$char_traits@D@std@@@0@0@Z
	??$?8_WU?$char_traits@_W@std@@V?$allocator@_W@1@@std@@YA_NAEBV?$basic_string@_WU?$char_traits@_W@std@@V?$allocator@_W@2@@0@0@Z
	??$?8_WU?$char_traits@_W@std@@V?$allocator@_W@1@@std@@YA_NAEBV?$basic_string@_WU?$char_traits@_W@std@@V?$allocator@_W@2@@0@QEB_W@Z
	??$?9PEAU?$atomic@PEAVSerialArena@internal@protobuf@google@@@std@@PEAU01@@std@@YA_NAEBV?$reverse_iterator@PEAU?$atomic@PEAVSerialArena@internal@protobuf@google@@@std@@@0@0@Z
	??$?9_WU?$char_traits@_W@std@@V?$allocator@_W@1@@std@@YA_NAEBV?$basic_string@_WU?$char_traits@_W@std@@V?$allocator@_W@2@@0@0@Z
	??$?9_WU?$char_traits@_W@std@@V?$allocator@_W@1@@std@@YA_NAEBV?$basic_string@_WU?$char_traits@_W@std@@V?$allocator@_W@2@@0@QEB_W@Z
	??$?BV?$basic_string_view@DU?$char_traits@D@std@@@std@@V01@$0A@@?$Splitter@VByChar@lts_20250814@absl@@UAllowEmpty@23@V?$basic_string_view@DU?$char_traits@D@std@@@std@@@strings_internal@lts_20250814@absl@@QEBA?AU?$pair@V?$basic_string_view@DU?$char_traits@D@std@@@std@@V12@@std@@XZ
	??$?HDU?$char_traits@D@std@@V?$allocator@D@1@@std@@YA?AV?$basic_string@DU?$char_traits@D@std@@V?$allocator@D@2@@0@AEBV10@0@Z
	??$?H_WU?$char_traits@_W@std@@V?$allocator@_W@1@@std@@YA?AV?$basic_string@_WU?$char_traits@_W@std@@V?$allocator@_W@2@@0@$$QEAV10@AEBV10@@Z
	??$?H_WU?$char_traits@_W@std@@V?$allocator@_W@1@@std@@YA?AV?$basic_string@_WU?$char_traits@_W@std@@V?$allocator@_W@2@@0@AEBV10@$$QEAV10@@Z
	??$?H_WU?$char_traits@_W@std@@V?$allocator@_W@1@@std@@YA?AV?$basic_string@_WU?$char_traits@_W@std@@V?$allocator@_W@2@@0@AEBV10@0@Z
	??$?H_WU?$char_traits@_W@std@@V?$allocator@_W@1@@std@@YA?AV?$basic_string@_WU?$char_traits@_W@std@@V?$allocator@_W@2@@0@AEBV10@_W@Z
	??$?MDU?$char_traits@D@std@@@std@@YA_NV?$basic_string_view@DU?$char_traits@D@std@@@0@0@Z
	??$?RAEAHAEAH@?$less@X@std@@QEBA_NAEAH0@Z
	??$?RAEA_KAEBE@?$plus@X@std@@QEBA_KAEA_KAEBE@Z
	??$?RD$0A@@?$default_delete@$$BY0A@D@std@@QEBAXPEAD@Z
	??$?RE$0A@@?$default_delete@$$BY0A@E@std@@QEBAXPEAE@Z
	??$?RHH$0A@@checked_compare@?$key_compare_adapter@U?$less@H@std@@H@container_internal@lts_20250814@absl@@QEBA_NAEBH0@Z
	??$?RHH@?$upper_bound_adapter@Uchecked_compare@?$key_compare_adapter@U?$less@H@std@@H@container_internal@lts_20250814@absl@@@container_internal@lts_20250814@absl@@QEBA_NAEBH0@Z
	??$?RUVariantKey@internal@protobuf@google@@U0123@$0A@@checked_compare@?$key_compare_adapter@U?$less@UVariantKey@internal@protobuf@google@@@std@@UVariantKey@internal@protobuf@google@@@container_internal@lts_20250814@absl@@QEBA_NAEBUVariantKey@internal@protobuf@google@@0@Z
	??$?RV?$basic_string@DU?$char_traits@D@std@@V?$allocator@D@2@@std@@@?$RealKeyToVariantKey@V?$basic_string@DU?$char_traits@D@std@@V?$allocator@D@2@@std@@@internal@protobuf@google@@QEBA?AUVariantKey@123@AEBV?$basic_string@DU?$char_traits@D@std@@V?$allocator@D@2@@std@@@Z
	??$?RV?$basic_string_view@DU?$char_traits@D@std@@@std@@@?$RealKeyToVariantKey@V?$basic_string@DU?$char_traits@D@std@@V?$allocator@D@2@@std@@@internal@protobuf@google@@QEBA?AUVariantKey@123@AEBV?$basic_string_view@DU?$char_traits@D@std@@@std@@@Z
	??$?RVMixingHashState@hash_internal@lts_20250814@absl@@@CombineRaw@hash_internal@lts_20250814@absl@@QEBA?AVMixingHashState@123@V4123@_K@Z
	??$?R_W$0A@@?$default_delete@$$BY0A@_W@std@@QEBAXPEA_W@Z
	??$?VAEAVLogMessage@log_internal@lts_20250814@absl@@@Voidify@log_internal@lts_20250814@absl@@QEHBAXAEAVLogMessage@123@@Z
	??$AbslHashValue@VMixingHashState@hash_internal@lts_20250814@absl@@@hash_internal@lts_20250814@absl@@YA?AVMixingHashState@012@V3012@V?$basic_string_view@DU?$char_traits@D@std@@@std@@@Z
	??$AbslHashValue@VMixingHashState@hash_internal@lts_20250814@absl@@AEBIAEBV?$basic_string_view@DU?$char_traits@D@std@@@std@@@hash_internal@lts_20250814@absl@@YA?AVMixingHashState@012@V3012@AEBV?$tuple@AEBIAEBV?$basic_string_view@DU?$char_traits@D@std@@@std@@@std@@@Z
	??$AbslHashValue@VMixingHashState@hash_internal@lts_20250814@absl@@AEBQEBVMessageLite@protobuf@google@@AEBH@hash_internal@lts_20250814@absl@@YA?AVMixingHashState@012@V3012@AEBV?$tuple@AEBQEBVMessageLite@protobuf@google@@AEBH@std@@@Z
	??$AbslHashValue@VMixingHashState@hash_internal@lts_20250814@absl@@AEB_K@hash_internal@lts_20250814@absl@@YA?AVMixingHashState@012@V3012@AEBV?$tuple@AEB_K@std@@@Z
	??$AbslHashValue@VMixingHashState@hash_internal@lts_20250814@absl@@AEB_KAEBQEAW4TableEntryPtr@internal@protobuf@google@@AEBQEBX@hash_internal@lts_20250814@absl@@YA?AVMixingHashState@012@V3012@AEBV?$tuple@AEB_KAEBQEAW4TableEntryPtr@internal@protobuf@google@@AEBQEBX@std@@@Z
	??$AbslHashValue@VMixingHashState@hash_internal@lts_20250814@absl@@PEAW4TableEntryPtr@internal@protobuf@google@@@hash_internal@lts_20250814@absl@@YA?AVMixingHashState@012@V3012@PEAW4TableEntryPtr@internal@protobuf@google@@@Z
	??$AbslHashValue@VMixingHashState@hash_internal@lts_20250814@absl@@PEBVMessageLite@protobuf@google@@@hash_internal@lts_20250814@absl@@YA?AVMixingHashState@012@V3012@PEBVMessageLite@protobuf@google@@@Z
	??$AbslHashValue@VMixingHashState@hash_internal@lts_20250814@absl@@PEBX@hash_internal@lts_20250814@absl@@YA?AVMixingHashState@012@V3012@PEBX@Z
	??$AbslStringify@VStringifySink@strings_internal@lts_20250814@absl@@@lts_20250814@absl@@YAXAEAVStringifySink@strings_internal@01@UHex@01@@Z
	??$Add@V?$GenericTypeHandler@V?$basic_string@DU?$char_traits@D@std@@V?$allocator@D@2@@std@@@internal@protobuf@google@@@RepeatedPtrFieldBase@internal@protobuf@google@@IEAAPEAV?$basic_string@DU?$char_traits@D@std@@V?$allocator@D@2@@std@@XZ
	??$AddInternal@P6APEAXPEAVArena@protobuf@google@@@Z@RepeatedPtrFieldBase@internal@protobuf@google@@AEAAPEAXP6APEAXPEAVArena@23@@Z@Z
	??$Allocate@$07V?$MapAllocator@U?$pair@$$CBUVariantKey@internal@protobuf@google@@PEAUNodeBase@234@@std@@@internal@protobuf@google@@@container_internal@lts_20250814@absl@@YAPEAXPEAV?$MapAllocator@U?$pair@$$CBUVariantKey@internal@protobuf@google@@PEAUNodeBase@234@@std@@@internal@protobuf@google@@_K@Z
	??$Allocate@$07V?$allocator@D@std@@@container_internal@lts_20250814@absl@@YAPEAXPEAV?$allocator@D@std@@_K@Z
	??$Allocate@$07V?$allocator@U?$pair@$$CBHUExtension@ExtensionSet@internal@protobuf@google@@@std@@@std@@@container_internal@lts_20250814@absl@@YAPEAXPEAV?$allocator@U?$pair@$$CBHUExtension@ExtensionSet@internal@protobuf@google@@@std@@@std@@_K@Z
	??$AllocateAligned@$00@SerialArena@internal@protobuf@google@@QEAAPEAX_K@Z
	??$AllocateAligned@$00@ThreadSafeArena@internal@protobuf@google@@QEAAPEAX_K@Z
	??$AllocateAligned@$0A@@SerialArena@internal@protobuf@google@@QEAAPEAX_K@Z
	??$AllocateAligned@$0A@@ThreadSafeArena@internal@protobuf@google@@QEAAPEAX_K@Z
	??$AllocateAlignedFallback@$00@ThreadSafeArena@internal@protobuf@google@@AEAAPEAX_K@Z
	??$AllocateAlignedFallback@$0A@@ThreadSafeArena@internal@protobuf@google@@AEAAPEAX_K@Z
	??$AllocateBackingArray@$07V?$allocator@D@std@@@container_internal@lts_20250814@absl@@YAPEAXPEAX_K@Z
	??$AllocateInternal@U?$Container@V?$basic_string@DU?$char_traits@D@std@@V?$allocator@D@2@@std@@@InternalMetadata@internal@protobuf@google@@$0A@@Arena@protobuf@google@@AEAAPEAXXZ
	??$AllocateInternal@V?$RepeatedField@H@protobuf@google@@$00@Arena@protobuf@google@@AEAAPEAXXZ
	??$AllocateInternal@V?$RepeatedField@I@protobuf@google@@$00@Arena@protobuf@google@@AEAAPEAXXZ
	??$AllocateInternal@V?$RepeatedField@M@protobuf@google@@$00@Arena@protobuf@google@@AEAAPEAXXZ
	??$AllocateInternal@V?$RepeatedField@N@protobuf@google@@$00@Arena@protobuf@google@@AEAAPEAXXZ
	??$AllocateInternal@V?$RepeatedField@_J@protobuf@google@@$00@Arena@protobuf@google@@AEAAPEAXXZ
	??$AllocateInternal@V?$RepeatedField@_K@protobuf@google@@$00@Arena@protobuf@google@@AEAAPEAXXZ
	??$AllocateInternal@V?$RepeatedField@_N@protobuf@google@@$00@Arena@protobuf@google@@AEAAPEAXXZ
	??$AllocateInternal@V?$RepeatedPtrField@V?$basic_string@DU?$char_traits@D@std@@V?$allocator@D@2@@std@@@protobuf@google@@$00@Arena@protobuf@google@@AEAAPEAXXZ
	??$AllocateInternal@V?$RepeatedPtrField@VMessageLite@protobuf@google@@@protobuf@google@@$00@Arena@protobuf@google@@AEAAPEAXXZ
	??$AllocateInternal@V?$basic_string@DU?$char_traits@D@std@@V?$allocator@D@2@@std@@$0A@@Arena@protobuf@google@@AEAAPEAXXZ
	??$AllocateInternal@V?$btree_map@HUExtension@ExtensionSet@internal@protobuf@google@@U?$less@H@std@@V?$allocator@U?$pair@$$CBHUExtension@ExtensionSet@internal@protobuf@google@@@std@@@7@@lts_20250814@absl@@$0A@@Arena@protobuf@google@@AEAAPEAXXZ
	??$AllocateInternal@V?$btree_map@UVariantKey@internal@protobuf@google@@PEAUNodeBase@234@U?$less@UVariantKey@internal@protobuf@google@@@std@@V?$MapAllocator@U?$pair@$$CBUVariantKey@internal@protobuf@google@@PEAUNodeBase@234@@std@@@234@@lts_20250814@absl@@$0A@@Arena@protobuf@google@@AEAAPEAXXZ
	??$AllocateInternal@VCord@lts_20250814@absl@@$0A@@Arena@protobuf@google@@AEAAPEAXXZ
	??$AllocateInternal@VRepeatedPtrFieldBase@internal@protobuf@google@@$00@Arena@protobuf@google@@AEAAPEAXXZ
	??$AppendUntilEnd@V<lambda_2a2a8cefb56710607aa8bf74eb61d0f6>@@@EpsCopyInputStream@internal@protobuf@google@@AEAAPEBDPEBDAEBV<lambda_2a2a8cefb56710607aa8bf74eb61d0f6>@@@Z
	??$CalculateReserveSize@H$07@internal@protobuf@google@@YAHHH@Z
	??$CalculateReserveSize@I$07@internal@protobuf@google@@YAHHH@Z
	??$CalculateReserveSize@M$07@internal@protobuf@google@@YAHHH@Z
	??$CalculateReserveSize@N$07@internal@protobuf@google@@YAHHH@Z
	??$CalculateReserveSize@PEAX$07@internal@protobuf@google@@YAHHH@Z
	??$CalculateReserveSize@_J$07@internal@protobuf@google@@YAHHH@Z
	??$CalculateReserveSize@_K$07@internal@protobuf@google@@YAHHH@Z
	??$CalculateReserveSize@_N$07@internal@protobuf@google@@YAHHH@Z
	??$Ceil@D@ArenaAlign@internal@protobuf@google@@QEBAPEADPEAD@Z
	??$Ceil@X@ArenaAlign@internal@protobuf@google@@QEBAPEAXPEAX@Z
	??$CeilDefaultAligned@D@ArenaAlign@internal@protobuf@google@@QEBAPEADPEAD@Z
	??$CeilDefaultAligned@X@ArenaAlign@internal@protobuf@google@@QEBAPEAXPEAX@Z
	??$CeilDefaultAligned@X@ArenaAlignDefault@internal@protobuf@google@@SAPEAXPEAX@Z
	??$Check_EQImpl@EW4FieldType@WireFormatLite@internal@protobuf@google@@@log_internal@lts_20250814@absl@@YAPEBDAEBEAEBW4FieldType@WireFormatLite@internal@protobuf@google@@PEBD@Z
	??$Check_EQImpl@HH@log_internal@lts_20250814@absl@@YAPEBDAEBH0PEBD@Z
	??$Check_EQImpl@PEBUClassData@internal@protobuf@google@@PEBU1234@@log_internal@lts_20250814@absl@@YAPEBDAEBQEBUClassData@internal@protobuf@google@@0PEBD@Z
	??$Check_EQImpl@_K_K@log_internal@lts_20250814@absl@@YAPEBDAEB_K0PEBD@Z
	??$Check_GEImpl@HH@log_internal@lts_20250814@absl@@YAPEBDAEBH0PEBD@Z
	??$Check_GTImpl@HH@log_internal@lts_20250814@absl@@YAPEBDAEBH0PEBD@Z
	??$Check_LEImpl@HH@log_internal@lts_20250814@absl@@YAPEBDAEBH0PEBD@Z
	??$Check_LEImpl@HW4<unnamed-enum-kSlopBytes>@EpsCopyInputStream@internal@protobuf@google@@@log_internal@lts_20250814@absl@@YAPEBDAEBHAEBW4<unnamed-enum-kSlopBytes>@EpsCopyInputStream@internal@protobuf@google@@PEBD@Z
	??$Check_LEImpl@_K_K@log_internal@lts_20250814@absl@@YAPEBDAEB_K0PEBD@Z
	??$Check_NEImpl@EW4FieldType@WireFormatLite@internal@protobuf@google@@@log_internal@lts_20250814@absl@@YAPEBDAEBEAEBW4FieldType@WireFormatLite@internal@protobuf@google@@PEBD@Z
	??$Clear@V?$GenericTypeHandler@V?$basic_string@DU?$char_traits@D@std@@V?$allocator@D@2@@std@@@internal@protobuf@google@@@RepeatedPtrFieldBase@internal@protobuf@google@@QEAAXXZ
	??$Clear@V?$GenericTypeHandler@VMessageLite@protobuf@google@@@internal@protobuf@google@@@RepeatedPtrFieldBase@internal@protobuf@google@@QEAAXXZ
	??$ClearNonEmpty@V?$GenericTypeHandler@V?$basic_string@DU?$char_traits@D@std@@V?$allocator@D@2@@std@@@internal@protobuf@google@@@RepeatedPtrFieldBase@internal@protobuf@google@@AEAAXXZ
	??$ClearNonEmpty@V?$GenericTypeHandler@VMessageLite@protobuf@google@@@internal@protobuf@google@@@RepeatedPtrFieldBase@internal@protobuf@google@@AEAAXXZ
	??$Construct@AEBV?$basic_string_view@DU?$char_traits@D@std@@@std@@@?$ExplicitlyConstructed@V?$basic_string@DU?$char_traits@D@std@@V?$allocator@D@2@@std@@$00@internal@protobuf@google@@QEAAXAEBV?$basic_string_view@DU?$char_traits@D@std@@@std@@@Z
	??$Construct@PEAVArena@protobuf@google@@@?$InternalHelper@V?$RepeatedField@H@protobuf@google@@@Arena@protobuf@google@@CAPEAV?$RepeatedField@H@23@PEAX$$QEAPEAV123@@Z
	??$Construct@PEAVArena@protobuf@google@@@?$InternalHelper@V?$RepeatedField@I@protobuf@google@@@Arena@protobuf@google@@CAPEAV?$RepeatedField@I@23@PEAX$$QEAPEAV123@@Z
	??$Construct@PEAVArena@protobuf@google@@@?$InternalHelper@V?$RepeatedField@M@protobuf@google@@@Arena@protobuf@google@@CAPEAV?$RepeatedField@M@23@PEAX$$QEAPEAV123@@Z
	??$Construct@PEAVArena@protobuf@google@@@?$InternalHelper@V?$RepeatedField@N@protobuf@google@@@Arena@protobuf@google@@CAPEAV?$RepeatedField@N@23@PEAX$$QEAPEAV123@@Z
	??$Construct@PEAVArena@protobuf@google@@@?$InternalHelper@V?$RepeatedField@_J@protobuf@google@@@Arena@protobuf@google@@CAPEAV?$RepeatedField@_J@23@PEAX$$QEAPEAV123@@Z
	??$Construct@PEAVArena@protobuf@google@@@?$InternalHelper@V?$RepeatedField@_K@protobuf@google@@@Arena@protobuf@google@@CAPEAV?$RepeatedField@_K@23@PEAX$$QEAPEAV123@@Z
	??$Construct@PEAVArena@protobuf@google@@@?$InternalHelper@V?$RepeatedField@_N@protobuf@google@@@Arena@protobuf@google@@CAPEAV?$RepeatedField@_N@23@PEAX$$QEAPEAV123@@Z
	??$Construct@PEAVArena@protobuf@google@@@?$InternalHelper@V?$RepeatedPtrField@V?$basic_string@DU?$char_traits@D@std@@V?$allocator@D@2@@std@@@protobuf@google@@@Arena@protobuf@google@@CAPEAV?$RepeatedPtrField@V?$basic_string@DU?$char_traits@D@std@@V?$allocator@D@2@@std@@@23@PEAX$$QEAPEAV123@@Z
	??$Construct@PEAVArena@protobuf@google@@@?$InternalHelper@V?$RepeatedPtrField@VMessageLite@protobuf@google@@@protobuf@google@@@Arena@protobuf@google@@CAPEAV?$RepeatedPtrField@VMessageLite@protobuf@google@@@23@PEAX$$QEAPEAV123@@Z
	??$Construct@PEAVArena@protobuf@google@@@?$InternalHelper@VRepeatedPtrFieldBase@internal@protobuf@google@@@Arena@protobuf@google@@CAPEAVRepeatedPtrFieldBase@internal@23@PEAX$$QEAPEAV123@@Z
	??$ConvertToPair@V?$basic_string_view@DU?$char_traits@D@std@@@std@@V12@@?$Splitter@VByChar@lts_20250814@absl@@UAllowEmpty@23@V?$basic_string_view@DU?$char_traits@D@std@@@std@@@strings_internal@lts_20250814@absl@@AEBA?AU?$pair@V?$basic_string_view@DU?$char_traits@D@std@@@std@@V12@@std@@XZ
	??$CountLeadingZeroes@I@numeric_internal@lts_20250814@absl@@YAHI@Z
	??$CountLeadingZeroes@_K@numeric_internal@lts_20250814@absl@@YAH_K@Z
	??$CountTrailingZeroes@G@numeric_internal@lts_20250814@absl@@YAHG@Z
	??$CountTrailingZeroes@_K@numeric_internal@lts_20250814@absl@@YAH_K@Z
	??$Create@U?$Container@V?$basic_string@DU?$char_traits@D@std@@V?$allocator@D@2@@std@@@InternalMetadata@internal@protobuf@google@@$$V@Arena@protobuf@google@@SAPEAU?$Container@V?$basic_string@DU?$char_traits@D@std@@V?$allocator@D@2@@std@@@InternalMetadata@internal@12@PEAV012@@Z
	??$Create@V?$RepeatedField@H@protobuf@google@@$$V@Arena@protobuf@google@@SAPEAV?$RepeatedField@H@12@PEAV012@@Z
	??$Create@V?$RepeatedField@I@protobuf@google@@$$V@Arena@protobuf@google@@SAPEAV?$RepeatedField@I@12@PEAV012@@Z
	??$Create@V?$RepeatedField@M@protobuf@google@@$$V@Arena@protobuf@google@@SAPEAV?$RepeatedField@M@12@PEAV012@@Z
	??$Create@V?$RepeatedField@N@protobuf@google@@$$V@Arena@protobuf@google@@SAPEAV?$RepeatedField@N@12@PEAV012@@Z
	??$Create@V?$RepeatedField@_J@protobuf@google@@$$V@Arena@protobuf@google@@SAPEAV?$RepeatedField@_J@12@PEAV012@@Z
	??$Create@V?$RepeatedField@_K@protobuf@google@@$$V@Arena@protobuf@google@@SAPEAV?$RepeatedField@_K@12@PEAV012@@Z
	??$Create@V?$RepeatedField@_N@protobuf@google@@$$V@Arena@protobuf@google@@SAPEAV?$RepeatedField@_N@12@PEAV012@@Z
	??$Create@V?$RepeatedPtrField@V?$basic_string@DU?$char_traits@D@std@@V?$allocator@D@2@@std@@@protobuf@google@@$$V@Arena@protobuf@google@@SAPEAV?$RepeatedPtrField@V?$basic_string@DU?$char_traits@D@std@@V?$allocator@D@2@@std@@@12@PEAV012@@Z
	??$Create@V?$RepeatedPtrField@VMessageLite@protobuf@google@@@protobuf@google@@$$V@Arena@protobuf@google@@SAPEAV?$RepeatedPtrField@VMessageLite@protobuf@google@@@12@PEAV012@@Z
	??$Create@V?$basic_string@DU?$char_traits@D@std@@V?$allocator@D@2@@std@@$$V@Arena@protobuf@google@@SAPEAV?$basic_string@DU?$char_traits@D@std@@V?$allocator@D@2@@std@@PEAV012@@Z
	??$Create@V?$basic_string@DU?$char_traits@D@std@@V?$allocator@D@2@@std@@AEAV12@@Arena@protobuf@google@@SAPEAV?$basic_string@DU?$char_traits@D@std@@V?$allocator@D@2@@std@@PEAV012@AEAV34@@Z
	??$Create@V?$basic_string@DU?$char_traits@D@std@@V?$allocator@D@2@@std@@AEBV12@@Arena@protobuf@google@@SAPEAV?$basic_string@DU?$char_traits@D@std@@V?$allocator@D@2@@std@@PEAV012@AEBV34@@Z
	??$Create@V?$basic_string@DU?$char_traits@D@std@@V?$allocator@D@2@@std@@PEBD_K@Arena@protobuf@google@@SAPEAV?$basic_string@DU?$char_traits@D@std@@V?$allocator@D@2@@std@@PEAV012@$$QEAPEBD$$QEA_K@Z
	??$Create@V?$basic_string@DU?$char_traits@D@std@@V?$allocator@D@2@@std@@V12@@Arena@protobuf@google@@SAPEAV?$basic_string@DU?$char_traits@D@std@@V?$allocator@D@2@@std@@PEAV012@$$QEAV34@@Z
	??$Create@V?$btree_map@HUExtension@ExtensionSet@internal@protobuf@google@@U?$less@H@std@@V?$allocator@U?$pair@$$CBHUExtension@ExtensionSet@internal@protobuf@google@@@std@@@7@@lts_20250814@absl@@$$V@Arena@protobuf@google@@SAPEAV?$btree_map@HUExtension@ExtensionSet@internal@protobuf@google@@U?$less@H@std@@V?$allocator@U?$pair@$$CBHUExtension@ExtensionSet@internal@protobuf@google@@@std@@@7@@lts_20250814@absl@@PEAV012@@Z
	??$Create@V?$btree_map@UVariantKey@internal@protobuf@google@@PEAUNodeBase@234@U?$less@UVariantKey@internal@protobuf@google@@@std@@V?$MapAllocator@U?$pair@$$CBUVariantKey@internal@protobuf@google@@PEAUNodeBase@234@@std@@@234@@lts_20250814@absl@@U?$less@UVariantKey@internal@protobuf@google@@@std@@V?$MapAllocator@U?$pair@$$CBUVariantKey@internal@protobuf@google@@PEAUNodeBase@234@@std@@@internal@protobuf@google@@@Arena@protobuf@google@@SAPEAV?$btree_map@UVariantKey@internal@protobuf@google@@PEAUNodeBase@234@U?$less@UVariantKey@internal@protobuf@google@@@std@@V?$MapAllocator@U?$pair@$$CBUVariantKey@internal@protobuf@google@@PEAUNodeBase@234@@std@@@234@@lts_20250814@absl@@PEAV012@$$QEAU?$less@UVariantKey@internal@protobuf@google@@@std@@$$QEAV?$MapAllocator@U?$pair@$$CBUVariantKey@internal@protobuf@google@@PEAUNodeBase@234@@std@@@internal@12@@Z
	??$Create@VCord@lts_20250814@absl@@$$V@Arena@protobuf@google@@SAPEAVCord@lts_20250814@absl@@PEAV012@@Z
	??$Create@VRepeatedPtrFieldBase@internal@protobuf@google@@$$V@Arena@protobuf@google@@SAPEAVRepeatedPtrFieldBase@internal@12@PEAV012@@Z
	??$CreateArenaCompatible@V?$RepeatedField@H@protobuf@google@@@Arena@protobuf@google@@CAPEAV?$RepeatedField@H@12@PEAV012@@Z
	??$CreateArenaCompatible@V?$RepeatedField@I@protobuf@google@@@Arena@protobuf@google@@CAPEAV?$RepeatedField@I@12@PEAV012@@Z
	??$CreateArenaCompatible@V?$RepeatedField@M@protobuf@google@@@Arena@protobuf@google@@CAPEAV?$RepeatedField@M@12@PEAV012@@Z
	??$CreateArenaCompatible@V?$RepeatedField@N@protobuf@google@@@Arena@protobuf@google@@CAPEAV?$RepeatedField@N@12@PEAV012@@Z
	??$CreateArenaCompatible@V?$RepeatedField@_J@protobuf@google@@@Arena@protobuf@google@@CAPEAV?$RepeatedField@_J@12@PEAV012@@Z
	??$CreateArenaCompatible@V?$RepeatedField@_K@protobuf@google@@@Arena@protobuf@google@@CAPEAV?$RepeatedField@_K@12@PEAV012@@Z
	??$CreateArenaCompatible@V?$RepeatedField@_N@protobuf@google@@@Arena@protobuf@google@@CAPEAV?$RepeatedField@_N@12@PEAV012@@Z
	??$CreateArenaCompatible@V?$RepeatedPtrField@V?$basic_string@DU?$char_traits@D@std@@V?$allocator@D@2@@std@@@protobuf@google@@@Arena@protobuf@google@@CAPEAV?$RepeatedPtrField@V?$basic_string@DU?$char_traits@D@std@@V?$allocator@D@2@@std@@@12@PEAV012@@Z
	??$CreateArenaCompatible@V?$RepeatedPtrField@VMessageLite@protobuf@google@@@protobuf@google@@@Arena@protobuf@google@@CAPEAV?$RepeatedPtrField@VMessageLite@protobuf@google@@@12@PEAV012@@Z
	??$CreateArenaCompatible@VRepeatedPtrFieldBase@internal@protobuf@google@@@Arena@protobuf@google@@CAPEAVRepeatedPtrFieldBase@internal@12@PEAV012@@Z
	??$CreateArray@D@Arena@protobuf@google@@SAPEADPEAV012@_K@Z
	??$CreateArray@E@Arena@protobuf@google@@SAPEAEPEAV012@_K@Z
	??$CreateArray@UKeyValue@ExtensionSet@internal@protobuf@google@@@Arena@protobuf@google@@SAPEAUKeyValue@ExtensionSet@internal@12@PEAV012@_K@Z
	??$CreateDefault@$0A@@CommonFields@container_internal@lts_20250814@absl@@SA?AV0123@XZ
	??$CreateInArenaStorage@V?$basic_string@DU?$char_traits@D@std@@V?$allocator@D@2@@std@@$$V@Arena@protobuf@google@@CAXPEAV?$basic_string@DU?$char_traits@D@std@@V?$allocator@D@2@@std@@PEAV012@@Z
	??$CreateInArenaStorageInternal@V?$basic_string@DU?$char_traits@D@std@@V?$allocator@D@2@@std@@$$V@Arena@protobuf@google@@CAXPEAV?$basic_string@DU?$char_traits@D@std@@V?$allocator@D@2@@std@@PEAV012@U?$integral_constant@_N$0A@@4@@Z
	??$Deallocate@$07V?$MapAllocator@U?$pair@$$CBUVariantKey@internal@protobuf@google@@PEAUNodeBase@234@@std@@@internal@protobuf@google@@@container_internal@lts_20250814@absl@@YAXPEAV?$MapAllocator@U?$pair@$$CBUVariantKey@internal@protobuf@google@@PEAUNodeBase@234@@std@@@internal@protobuf@google@@PEAX_K@Z
	??$Deallocate@$07V?$allocator@D@std@@@container_internal@lts_20250814@absl@@YAXPEAV?$allocator@D@std@@PEAX_K@Z
	??$Deallocate@$07V?$allocator@U?$pair@$$CBHUExtension@ExtensionSet@internal@protobuf@google@@@std@@@std@@@container_internal@lts_20250814@absl@@YAXPEAV?$allocator@U?$pair@$$CBHUExtension@ExtensionSet@internal@protobuf@google@@@std@@@std@@PEAX_K@Z
	??$DeallocateBackingArray@$07V?$allocator@D@std@@@container_internal@lts_20250814@absl@@YAXPEAX_KPEAW4ctrl_t@012@11_N@Z
	??$Delete@V?$GenericTypeHandler@V?$basic_string@DU?$char_traits@D@std@@V?$allocator@D@2@@std@@@internal@protobuf@google@@@RepeatedPtrFieldBase@internal@protobuf@google@@CAXPEAXPEAVArena@23@@Z
	??$Delete@V?$GenericTypeHandler@VMessageLite@protobuf@google@@@internal@protobuf@google@@@RepeatedPtrFieldBase@internal@protobuf@google@@CAXPEAXPEAVArena@23@@Z
	??$Destroy@V?$GenericTypeHandler@V?$basic_string@DU?$char_traits@D@std@@V?$allocator@D@2@@std@@@internal@protobuf@google@@@RepeatedPtrFieldBase@internal@protobuf@google@@IEAAXXZ
	??$Destroy@V?$GenericTypeHandler@VMessageLite@protobuf@google@@@internal@protobuf@google@@@RepeatedPtrFieldBase@internal@protobuf@google@@IEAAXXZ
	??$DoClear@V?$basic_string@DU?$char_traits@D@std@@V?$allocator@D@2@@std@@@InternalMetadata@internal@protobuf@google@@AEAAXXZ
	??$DoCreateMessage@V?$RepeatedField@H@protobuf@google@@$$V@Arena@protobuf@google@@AEAAPEAV?$RepeatedField@H@12@XZ
	??$DoCreateMessage@V?$RepeatedField@I@protobuf@google@@$$V@Arena@protobuf@google@@AEAAPEAV?$RepeatedField@I@12@XZ
	??$DoCreateMessage@V?$RepeatedField@M@protobuf@google@@$$V@Arena@protobuf@google@@AEAAPEAV?$RepeatedField@M@12@XZ
	??$DoCreateMessage@V?$RepeatedField@N@protobuf@google@@$$V@Arena@protobuf@google@@AEAAPEAV?$RepeatedField@N@12@XZ
	??$DoCreateMessage@V?$RepeatedField@_J@protobuf@google@@$$V@Arena@protobuf@google@@AEAAPEAV?$RepeatedField@_J@12@XZ
	??$DoCreateMessage@V?$RepeatedField@_K@protobuf@google@@$$V@Arena@protobuf@google@@AEAAPEAV?$RepeatedField@_K@12@XZ
	??$DoCreateMessage@V?$RepeatedField@_N@protobuf@google@@$$V@Arena@protobuf@google@@AEAAPEAV?$RepeatedField@_N@12@XZ
	??$DoCreateMessage@V?$RepeatedPtrField@V?$basic_string@DU?$char_traits@D@std@@V?$allocator@D@2@@std@@@protobuf@google@@$$V@Arena@protobuf@google@@AEAAPEAV?$RepeatedPtrField@V?$basic_string@DU?$char_traits@D@std@@V?$allocator@D@2@@std@@@12@XZ
	??$DoCreateMessage@V?$RepeatedPtrField@VMessageLite@protobuf@google@@@protobuf@google@@$$V@Arena@protobuf@google@@AEAAPEAV?$RepeatedPtrField@VMessageLite@protobuf@google@@@12@XZ
	??$DoCreateMessage@VRepeatedPtrFieldBase@internal@protobuf@google@@$$V@Arena@protobuf@google@@AEAAPEAVRepeatedPtrFieldBase@internal@12@XZ
	??$DoMergeFrom@V?$basic_string@DU?$char_traits@D@std@@V?$allocator@D@2@@std@@@InternalMetadata@internal@protobuf@google@@AEAAXAEBV?$basic_string@DU?$char_traits@D@std@@V?$allocator@D@2@@std@@@Z
	??$DoSwap@V?$basic_string@DU?$char_traits@D@std@@V?$allocator@D@2@@std@@@InternalMetadata@internal@protobuf@google@@AEAAXPEAV?$basic_string@DU?$char_traits@D@std@@V?$allocator@D@2@@std@@@Z
	??$Equals@AEBV?$basic_string@DU?$char_traits@D@std@@V?$allocator@D@2@@std@@AEAV?$basic_string_view@DU?$char_traits@D@std@@@2@@?$TransparentSupport@V?$basic_string@DU?$char_traits@D@std@@V?$allocator@D@2@@std@@@internal@protobuf@google@@SA_NAEBV?$basic_string@DU?$char_traits@D@std@@V?$allocator@D@2@@std@@AEAV?$basic_string_view@DU?$char_traits@D@std@@@5@@Z
	??$Extract@V?$FormatSpecTemplate@$0EAAAE@$0JPPPL@@str_format_internal@lts_20250814@absl@@@UntypedFormatSpecImpl@str_format_internal@lts_20250814@absl@@SAAEBV0123@AEBV?$FormatSpecTemplate@$0EAAAE@$0JPPPL@@123@@Z
	??$Extract@V?$FormatSpecTemplate@$0IAAAE@$0JPPPL@@str_format_internal@lts_20250814@absl@@@UntypedFormatSpecImpl@str_format_internal@lts_20250814@absl@@SAAEBV0123@AEBV?$FormatSpecTemplate@$0IAAAE@$0JPPPL@@123@@Z
	??$Extract@V?$FormatSpecTemplate@$0IAAAE@@str_format_internal@lts_20250814@absl@@@UntypedFormatSpecImpl@str_format_internal@lts_20250814@absl@@SAAEBV0123@AEBV?$FormatSpecTemplate@$0IAAAE@@123@@Z
	??$Extract@V?$FormatSpecTemplate@$0JPOAA@@str_format_internal@lts_20250814@absl@@@UntypedFormatSpecImpl@str_format_internal@lts_20250814@absl@@SAAEBV0123@AEBV?$FormatSpecTemplate@$0JPOAA@@123@@Z
	??$Extract@V?$FormatSpecTemplate@$S@str_format_internal@lts_20250814@absl@@@UntypedFormatSpecImpl@str_format_internal@lts_20250814@absl@@SAAEBV0123@AEBV?$FormatSpecTemplate@$S@123@@Z
	??$ExtractStringification@UHex@lts_20250814@absl@@@strings_internal@lts_20250814@absl@@YA?AV?$basic_string_view@DU?$char_traits@D@std@@@std@@AEAVStringifySink@012@AEBUHex@12@@Z
	??$FPrintF@$$BY05D_K@lts_20250814@absl@@YAHPEAU_iobuf@@AEBV?$FormatSpecTemplate@$0EAAAE@$0JPPPL@@str_format_internal@01@AEAY05$$CBDAEB_K@Z
	??$FPrintF@$$V@lts_20250814@absl@@YAHPEAU_iobuf@@AEBV?$FormatSpecTemplate@$S@str_format_internal@01@@Z
	??$FPrintF@N@lts_20250814@absl@@YAHPEAU_iobuf@@AEBV?$FormatSpecTemplate@$0JPOAA@@str_format_internal@01@AEBN@Z
	??$FPrintF@V?$basic_string_view@DU?$char_traits@D@std@@@std@@@lts_20250814@absl@@YAHPEAU_iobuf@@AEBV?$FormatSpecTemplate@$0IAAAE@@str_format_internal@01@AEBV?$basic_string_view@DU?$char_traits@D@std@@@std@@@Z
	??$FPrintF@V?$basic_string_view@DU?$char_traits@D@std@@@std@@_K@lts_20250814@absl@@YAHPEAU_iobuf@@AEBV?$FormatSpecTemplate@$0IAAAE@$0JPPPL@@str_format_internal@01@AEBV?$basic_string_view@DU?$char_traits@D@std@@@std@@AEB_K@Z
	??$FastEndGroupImpl@E@TcParser@internal@protobuf@google@@CAPEBDPEAVMessageLite@23@PEBDPEAVParseContext@123@UTcFieldData@123@PEBUTcParseTableBase@123@_K@Z
	??$FastEndGroupImpl@G@TcParser@internal@protobuf@google@@CAPEBDPEAVMessageLite@23@PEBDPEAVParseContext@123@UTcFieldData@123@PEBUTcParseTableBase@123@_K@Z
	??$FastVarintS1@I@TcParser@internal@protobuf@google@@CAPEBDPEAVMessageLite@23@PEBDPEAVParseContext@123@UTcFieldData@123@PEBUTcParseTableBase@123@_K@Z
	??$FastVarintS1@_K@TcParser@internal@protobuf@google@@CAPEBDPEAVMessageLite@23@PEBDPEAVParseContext@123@UTcFieldData@123@PEBUTcParseTableBase@123@_K@Z
	??$FieldParser@VUnknownFieldLiteParserHelper@internal@protobuf@google@@@internal@protobuf@google@@YAPEBD_KAEAVUnknownFieldLiteParserHelper@012@PEBDPEAVParseContext@012@@Z
	??$FindExtensionInfoFromFieldNumber@VGeneratedExtensionFinder@internal@protobuf@google@@@ExtensionSet@internal@protobuf@google@@AEBA_NHHPEAVGeneratedExtensionFinder@123@PEAUExtensionInfo@123@PEA_N@Z
	??$FixedParser@H@internal@protobuf@google@@YAPEBDPEAXPEBDPEAVParseContext@012@@Z
	??$FixedParser@I@internal@protobuf@google@@YAPEBDPEAXPEBDPEAVParseContext@012@@Z
	??$FixedParser@M@internal@protobuf@google@@YAPEBDPEAXPEBDPEAVParseContext@012@@Z
	??$FixedParser@N@internal@protobuf@google@@YAPEBDPEAXPEBDPEAVParseContext@012@@Z
	??$FixedParser@_J@internal@protobuf@google@@YAPEBDPEAXPEBDPEAVParseContext@012@@Z
	??$FixedParser@_K@internal@protobuf@google@@YAPEBDPEAXPEBDPEAVParseContext@012@@Z
	??$GenericFallbackImpl@VMessageLite@protobuf@google@@V?$basic_string@DU?$char_traits@D@std@@V?$allocator@D@2@@std@@@TcParser@internal@protobuf@google@@CAPEBDPEAVMessageLite@23@PEBDPEAVParseContext@123@UTcFieldData@123@PEBUTcParseTableBase@123@_K@Z
	??$Get@PEBVMessageLite@protobuf@google@@@internal@protobuf@google@@YAAEBQEBVMessageLite@12@PEBX@Z
	??$Get@V?$GenericTypeHandler@V?$basic_string@DU?$char_traits@D@std@@V?$allocator@D@2@@std@@@internal@protobuf@google@@@RepeatedPtrFieldBase@internal@protobuf@google@@QEBAAEBV?$basic_string@DU?$char_traits@D@std@@V?$allocator@D@2@@std@@H@Z
	??$Get@V?$GenericTypeHandler@VMessageLite@protobuf@google@@@internal@protobuf@google@@@RepeatedPtrFieldBase@internal@protobuf@google@@QEBAAEBVMessageLite@23@H@Z
	??$GetData@$$CBV?$vector@HV?$allocator@H@std@@@std@@@span_internal@lts_20250814@absl@@YAPEBHAEBV?$vector@HV?$allocator@H@std@@@std@@@Z
	??$GetDataImpl@$$CBV?$vector@HV?$allocator@H@std@@@std@@@span_internal@lts_20250814@absl@@YAPEBHAEBV?$vector@HV?$allocator@H@std@@@std@@D@Z
	??$GetField@$00@?$btree_node@U?$map_params@HUExtension@ExtensionSet@internal@protobuf@google@@U?$less@H@std@@V?$allocator@U?$pair@$$CBHUExtension@ExtensionSet@internal@protobuf@google@@@std@@@7@$0BAA@$0A@@container_internal@lts_20250814@absl@@@container_internal@lts_20250814@absl@@AEAAPEAIXZ
	??$GetField@$00@?$btree_node@U?$map_params@HUExtension@ExtensionSet@internal@protobuf@google@@U?$less@H@std@@V?$allocator@U?$pair@$$CBHUExtension@ExtensionSet@internal@protobuf@google@@@std@@@7@$0BAA@$0A@@container_internal@lts_20250814@absl@@@container_internal@lts_20250814@absl@@AEBAPEBIXZ
	??$GetField@$00@?$btree_node@U?$map_params@UVariantKey@internal@protobuf@google@@PEAUNodeBase@234@U?$less@UVariantKey@internal@protobuf@google@@@std@@V?$MapAllocator@U?$pair@$$CBUVariantKey@internal@protobuf@google@@PEAUNodeBase@234@@std@@@234@$0BAA@$0A@@container_internal@lts_20250814@absl@@@container_internal@lts_20250814@absl@@AEAAPEAIXZ
	??$GetField@$00@?$btree_node@U?$map_params@UVariantKey@internal@protobuf@google@@PEAUNodeBase@234@U?$less@UVariantKey@internal@protobuf@google@@@std@@V?$MapAllocator@U?$pair@$$CBUVariantKey@internal@protobuf@google@@PEAUNodeBase@234@@std@@@234@$0BAA@$0A@@container_internal@lts_20250814@absl@@@container_internal@lts_20250814@absl@@AEBAPEBIXZ
	??$GetField@$01@?$btree_node@U?$map_params@HUExtension@ExtensionSet@internal@protobuf@google@@U?$less@H@std@@V?$allocator@U?$pair@$$CBHUExtension@ExtensionSet@internal@protobuf@google@@@std@@@7@$0BAA@$0A@@container_internal@lts_20250814@absl@@@container_internal@lts_20250814@absl@@AEAAPEAEXZ
	??$GetField@$01@?$btree_node@U?$map_params@HUExtension@ExtensionSet@internal@protobuf@google@@U?$less@H@std@@V?$allocator@U?$pair@$$CBHUExtension@ExtensionSet@internal@protobuf@google@@@std@@@7@$0BAA@$0A@@container_internal@lts_20250814@absl@@@container_internal@lts_20250814@absl@@AEBAPEBEXZ
	??$GetField@$01@?$btree_node@U?$map_params@UVariantKey@internal@protobuf@google@@PEAUNodeBase@234@U?$less@UVariantKey@internal@protobuf@google@@@std@@V?$MapAllocator@U?$pair@$$CBUVariantKey@internal@protobuf@google@@PEAUNodeBase@234@@std@@@234@$0BAA@$0A@@container_internal@lts_20250814@absl@@@container_internal@lts_20250814@absl@@AEAAPEAEXZ
	??$GetField@$01@?$btree_node@U?$map_params@UVariantKey@internal@protobuf@google@@PEAUNodeBase@234@U?$less@UVariantKey@internal@protobuf@google@@@std@@V?$MapAllocator@U?$pair@$$CBUVariantKey@internal@protobuf@google@@PEAUNodeBase@234@@std@@@234@$0BAA@$0A@@container_internal@lts_20250814@absl@@@container_internal@lts_20250814@absl@@AEBAPEBEXZ
	??$GetField@$02@?$btree_node@U?$map_params@HUExtension@ExtensionSet@internal@protobuf@google@@U?$less@H@std@@V?$allocator@U?$pair@$$CBHUExtension@ExtensionSet@internal@protobuf@google@@@std@@@7@$0BAA@$0A@@container_internal@lts_20250814@absl@@@container_internal@lts_20250814@absl@@AEAAPEAT?$map_slot_type@HUExtension@ExtensionSet@internal@protobuf@google@@@123@XZ
	??$GetField@$02@?$btree_node@U?$map_params@HUExtension@ExtensionSet@internal@protobuf@google@@U?$less@H@std@@V?$allocator@U?$pair@$$CBHUExtension@ExtensionSet@internal@protobuf@google@@@std@@@7@$0BAA@$0A@@container_internal@lts_20250814@absl@@@container_internal@lts_20250814@absl@@AEBAPEBT?$map_slot_type@HUExtension@ExtensionSet@internal@protobuf@google@@@123@XZ
	??$GetField@$02@?$btree_node@U?$map_params@UVariantKey@internal@protobuf@google@@PEAUNodeBase@234@U?$less@UVariantKey@internal@protobuf@google@@@std@@V?$MapAllocator@U?$pair@$$CBUVariantKey@internal@protobuf@google@@PEAUNodeBase@234@@std@@@234@$0BAA@$0A@@container_internal@lts_20250814@absl@@@container_internal@lts_20250814@absl@@AEAAPEAT?$map_slot_type@UVariantKey@internal@protobuf@google@@PEAUNodeBase@234@@123@XZ
	??$GetField@$02@?$btree_node@U?$map_params@UVariantKey@internal@protobuf@google@@PEAUNodeBase@234@U?$less@UVariantKey@internal@protobuf@google@@@std@@V?$MapAllocator@U?$pair@$$CBUVariantKey@internal@protobuf@google@@PEAUNodeBase@234@@std@@@234@$0BAA@$0A@@container_internal@lts_20250814@absl@@@container_internal@lts_20250814@absl@@AEBAPEBT?$map_slot_type@UVariantKey@internal@protobuf@google@@PEAUNodeBase@234@@123@XZ
	??$GetField@$03@?$btree_node@U?$map_params@HUExtension@ExtensionSet@internal@protobuf@google@@U?$less@H@std@@V?$allocator@U?$pair@$$CBHUExtension@ExtensionSet@internal@protobuf@google@@@std@@@7@$0BAA@$0A@@container_internal@lts_20250814@absl@@@container_internal@lts_20250814@absl@@AEAAPEAPEAV0123@XZ
	??$GetField@$03@?$btree_node@U?$map_params@HUExtension@ExtensionSet@internal@protobuf@google@@U?$less@H@std@@V?$allocator@U?$pair@$$CBHUExtension@ExtensionSet@internal@protobuf@google@@@std@@@7@$0BAA@$0A@@container_internal@lts_20250814@absl@@@container_internal@lts_20250814@absl@@AEBAPEBQEAV0123@XZ
	??$GetField@$03@?$btree_node@U?$map_params@UVariantKey@internal@protobuf@google@@PEAUNodeBase@234@U?$less@UVariantKey@internal@protobuf@google@@@std@@V?$MapAllocator@U?$pair@$$CBUVariantKey@internal@protobuf@google@@PEAUNodeBase@234@@std@@@234@$0BAA@$0A@@container_internal@lts_20250814@absl@@@container_internal@lts_20250814@absl@@AEAAPEAPEAV0123@XZ
	??$GetField@$03@?$btree_node@U?$map_params@UVariantKey@internal@protobuf@google@@PEAUNodeBase@234@U?$less@UVariantKey@internal@protobuf@google@@@std@@V?$MapAllocator@U?$pair@$$CBUVariantKey@internal@protobuf@google@@PEAUNodeBase@234@@std@@@234@$0BAA@$0A@@container_internal@lts_20250814@absl@@@container_internal@lts_20250814@absl@@AEBAPEBQEAV0123@XZ
	??$GetField@$0A@@?$btree_node@U?$map_params@HUExtension@ExtensionSet@internal@protobuf@google@@U?$less@H@std@@V?$allocator@U?$pair@$$CBHUExtension@ExtensionSet@internal@protobuf@google@@@std@@@7@$0BAA@$0A@@container_internal@lts_20250814@absl@@@container_internal@lts_20250814@absl@@AEAAPEAPEAV0123@XZ
	??$GetField@$0A@@?$btree_node@U?$map_params@HUExtension@ExtensionSet@internal@protobuf@google@@U?$less@H@std@@V?$allocator@U?$pair@$$CBHUExtension@ExtensionSet@internal@protobuf@google@@@std@@@7@$0BAA@$0A@@container_internal@lts_20250814@absl@@@container_internal@lts_20250814@absl@@AEBAPEBQEAV0123@XZ
	??$GetField@$0A@@?$btree_node@U?$map_params@UVariantKey@internal@protobuf@google@@PEAUNodeBase@234@U?$less@UVariantKey@internal@protobuf@google@@@std@@V?$MapAllocator@U?$pair@$$CBUVariantKey@internal@protobuf@google@@PEAUNodeBase@234@@std@@@234@$0BAA@$0A@@container_internal@lts_20250814@absl@@@container_internal@lts_20250814@absl@@AEAAPEAPEAV0123@XZ
	??$GetField@$0A@@?$btree_node@U?$map_params@UVariantKey@internal@protobuf@google@@PEAUNodeBase@234@U?$less@UVariantKey@internal@protobuf@google@@@std@@V?$MapAllocator@U?$pair@$$CBUVariantKey@internal@protobuf@google@@PEAUNodeBase@234@@std@@@234@$0BAA@$0A@@container_internal@lts_20250814@absl@@@container_internal@lts_20250814@absl@@AEBAPEBQEAV0123@XZ
	??$GetReferenceableValue@PEBUClassData@internal@protobuf@google@@@log_internal@lts_20250814@absl@@YAAEBQEBUClassData@internal@protobuf@google@@AEBQEBU3456@@Z
	??$GetReferenceableValue@W4<unnamed-enum-kSlopBytes>@EpsCopyInputStream@internal@protobuf@google@@@log_internal@lts_20250814@absl@@YAAEBW4<unnamed-enum-kSlopBytes>@EpsCopyInputStream@internal@protobuf@google@@AEBW434567@@Z
	??$GetReferenceableValue@W4FieldType@WireFormatLite@internal@protobuf@google@@@log_internal@lts_20250814@absl@@YAAEBW4FieldType@WireFormatLite@internal@protobuf@google@@AEBW434567@@Z
	??$GroupSize@VMessageLite@protobuf@google@@@WireFormatLite@internal@protobuf@google@@SA_KAEBVMessageLite@23@@Z
	??$HashOf@$S$$ZIV?$basic_string_view@DU?$char_traits@D@std@@@std@@@lts_20250814@absl@@YA_KAEBIAEBV?$basic_string_view@DU?$char_traits@D@std@@@std@@@Z
	??$HashOf@$S$$ZPEBVMessageLite@protobuf@google@@H@lts_20250814@absl@@YA_KAEBQEBVMessageLite@protobuf@google@@AEBH@Z
	??$HashOf@$S$$Z_K@lts_20250814@absl@@YA_KAEB_K@Z
	??$HashOf@$S$$Z_KPEAW4TableEntryPtr@internal@protobuf@google@@PEBX@lts_20250814@absl@@YA_KAEB_KAEBQEAW4TableEntryPtr@internal@protobuf@google@@AEBQEBX@Z
	??$ImplicitConvert@AEAV?$basic_string_view@DU?$char_traits@D@std@@@std@@@?$TransparentSupport@V?$basic_string@DU?$char_traits@D@std@@V?$allocator@D@2@@std@@@internal@protobuf@google@@SA?AV?$basic_string_view@DU?$char_traits@D@std@@@std@@AEAV45@@Z
	??$ImplicitConvert@AEBV?$basic_string@DU?$char_traits@D@std@@V?$allocator@D@2@@std@@@?$TransparentSupport@V?$basic_string@DU?$char_traits@D@std@@V?$allocator@D@2@@std@@@internal@protobuf@google@@SA?AV?$basic_string_view@DU?$char_traits@D@std@@@std@@AEBV?$basic_string@DU?$char_traits@D@std@@V?$allocator@D@2@@5@@Z
	??$ImplicitConvert@AEBV?$basic_string_view@DU?$char_traits@D@std@@@std@@@?$TransparentSupport@V?$basic_string@DU?$char_traits@D@std@@V?$allocator@D@2@@std@@@internal@protobuf@google@@SA?AV?$basic_string_view@DU?$char_traits@D@std@@@std@@AEBV45@@Z
	??$ImplicitConvertImpl@AEAV?$basic_string_view@DU?$char_traits@D@std@@@std@@X@?$TransparentSupport@V?$basic_string@DU?$char_traits@D@std@@V?$allocator@D@2@@std@@@internal@protobuf@google@@SA?AV?$basic_string_view@DU?$char_traits@D@std@@@std@@AEAV45@URank2@0123@@Z
	??$ImplicitConvertImpl@AEBV?$basic_string@DU?$char_traits@D@std@@V?$allocator@D@2@@std@@X@?$TransparentSupport@V?$basic_string@DU?$char_traits@D@std@@V?$allocator@D@2@@std@@@internal@protobuf@google@@SA?AV?$basic_string_view@DU?$char_traits@D@std@@@std@@AEBV?$basic_string@DU?$char_traits@D@std@@V?$allocator@D@2@@5@URank2@0123@@Z
	??$ImplicitConvertImpl@AEBV?$basic_string_view@DU?$char_traits@D@std@@@std@@X@?$TransparentSupport@V?$basic_string@DU?$char_traits@D@std@@V?$allocator@D@2@@std@@@internal@protobuf@google@@SA?AV?$basic_string_view@DU?$char_traits@D@std@@@std@@AEBV45@URank2@0123@@Z
	??$Init@$0A@@CordRepBtreeNavigator@cord_internal@lts_20250814@absl@@AEAAPEAUCordRep@123@PEAVCordRepBtree@123@@Z
	??$Init@N@FormatArgImpl@str_format_internal@lts_20250814@absl@@AEAAXAEBN@Z
	??$Init@PEBD@FormatArgImpl@str_format_internal@lts_20250814@absl@@AEAAXAEBQEBD@Z
	??$Init@V?$basic_string_view@DU?$char_traits@D@std@@@std@@@FormatArgImpl@str_format_internal@lts_20250814@absl@@AEAAXAEBV?$basic_string_view@DU?$char_traits@D@std@@@std@@@Z
	??$Init@_K@FormatArgImpl@str_format_internal@lts_20250814@absl@@AEAAXAEB_K@Z
	??$InitEagerly@VArrayOutputStream@io@protobuf@google@@@CodedOutputStream@io@protobuf@google@@AEAAXPEAVArrayOutputStream@123@@Z
	??$InitEagerly@VStringOutputStream@io@protobuf@google@@@CodedOutputStream@io@protobuf@google@@AEAAXPEAVStringOutputStream@123@@Z
	??$InternalDeallocate@$00@?$RepeatedField@H@protobuf@google@@AEAAXXZ
	??$InternalDeallocate@$00@?$RepeatedField@I@protobuf@google@@AEAAXXZ
	??$InternalDeallocate@$00@?$RepeatedField@M@protobuf@google@@AEAAXXZ
	??$InternalDeallocate@$00@?$RepeatedField@N@protobuf@google@@AEAAXXZ
	??$InternalDeallocate@$00@?$RepeatedField@_J@protobuf@google@@AEAAXXZ
	??$InternalDeallocate@$00@?$RepeatedField@_K@protobuf@google@@AEAAXXZ
	??$InternalDeallocate@$00@?$RepeatedField@_N@protobuf@google@@AEAAXXZ
	??$InternalDeallocate@$0A@@?$RepeatedField@H@protobuf@google@@AEAAXXZ
	??$InternalDeallocate@$0A@@?$RepeatedField@I@protobuf@google@@AEAAXXZ
	??$InternalDeallocate@$0A@@?$RepeatedField@M@protobuf@google@@AEAAXXZ
	??$InternalDeallocate@$0A@@?$RepeatedField@N@protobuf@google@@AEAAXXZ
	??$InternalDeallocate@$0A@@?$RepeatedField@_J@protobuf@google@@AEAAXXZ
	??$InternalDeallocate@$0A@@?$RepeatedField@_K@protobuf@google@@AEAAXXZ
	??$InternalDeallocate@$0A@@?$RepeatedField@_N@protobuf@google@@AEAAXXZ
	??$Invoke@VMixingHashState@hash_internal@lts_20250814@absl@@H@UniquelyRepresentedProbe@HashSelect@hash_internal@lts_20250814@absl@@SA?AVMixingHashState@234@V5234@AEBH@Z
	??$Invoke@VMixingHashState@hash_internal@lts_20250814@absl@@I@UniquelyRepresentedProbe@HashSelect@hash_internal@lts_20250814@absl@@SA?AVMixingHashState@234@V5234@AEBI@Z
	??$Invoke@VMixingHashState@hash_internal@lts_20250814@absl@@PEAW4TableEntryPtr@internal@protobuf@google@@@HashValueProbe@HashSelect@hash_internal@lts_20250814@absl@@SA?AVMixingHashState@234@V5234@AEBQEAW4TableEntryPtr@internal@protobuf@google@@@Z
	??$Invoke@VMixingHashState@hash_internal@lts_20250814@absl@@PEBVMessageLite@protobuf@google@@@HashValueProbe@HashSelect@hash_internal@lts_20250814@absl@@SA?AVMixingHashState@234@V5234@AEBQEBVMessageLite@protobuf@google@@@Z
	??$Invoke@VMixingHashState@hash_internal@lts_20250814@absl@@PEBX@HashValueProbe@HashSelect@hash_internal@lts_20250814@absl@@SA?AVMixingHashState@234@V5234@AEBQEBX@Z
	??$Invoke@VMixingHashState@hash_internal@lts_20250814@absl@@V?$basic_string_view@DU?$char_traits@D@std@@@std@@@HashValueProbe@HashSelect@hash_internal@lts_20250814@absl@@SA?AVMixingHashState@234@V5234@AEBV?$basic_string_view@DU?$char_traits@D@std@@@std@@@Z
	??$Invoke@VMixingHashState@hash_internal@lts_20250814@absl@@V?$tuple@AEBIAEBV?$basic_string_view@DU?$char_traits@D@std@@@std@@@std@@@HashValueProbe@HashSelect@hash_internal@lts_20250814@absl@@SA?AVMixingHashState@234@V5234@AEBV?$tuple@AEBIAEBV?$basic_string_view@DU?$char_traits@D@std@@@std@@@std@@@Z
	??$Invoke@VMixingHashState@hash_internal@lts_20250814@absl@@V?$tuple@AEBQEBVMessageLite@protobuf@google@@AEBH@std@@@HashValueProbe@HashSelect@hash_internal@lts_20250814@absl@@SA?AVMixingHashState@234@V5234@AEBV?$tuple@AEBQEBVMessageLite@protobuf@google@@AEBH@std@@@Z
	??$Invoke@VMixingHashState@hash_internal@lts_20250814@absl@@V?$tuple@AEB_K@std@@@HashValueProbe@HashSelect@hash_internal@lts_20250814@absl@@SA?AVMixingHashState@234@V5234@AEBV?$tuple@AEB_K@std@@@Z
	??$Invoke@VMixingHashState@hash_internal@lts_20250814@absl@@V?$tuple@AEB_KAEBQEAW4TableEntryPtr@internal@protobuf@google@@AEBQEBX@std@@@HashValueProbe@HashSelect@hash_internal@lts_20250814@absl@@SA?AVMixingHashState@234@V5234@AEBV?$tuple@AEB_KAEBQEAW4TableEntryPtr@internal@protobuf@google@@AEBQEBX@std@@@Z
	??$Invoke@VMixingHashState@hash_internal@lts_20250814@absl@@_K@UniquelyRepresentedProbe@HashSelect@hash_internal@lts_20250814@absl@@SA?AVMixingHashState@234@V5234@AEB_K@Z
	??$IsAligned@D@ArenaAlignDefault@internal@protobuf@google@@SA_NPEAD@Z
	??$IsAligned@X@ArenaAlignDefault@internal@protobuf@google@@SA_NPEAX@Z
	??$IsDestructionTrivial@V?$MapAllocator@U?$pair@$$CBUVariantKey@internal@protobuf@google@@PEAUNodeBase@234@@std@@@internal@protobuf@google@@U?$pair@$$CBUVariantKey@internal@protobuf@google@@PEAUNodeBase@234@@std@@@container_internal@lts_20250814@absl@@YA?A_PXZ
	??$IsDestructionTrivial@V?$allocator@U?$pair@$$CBHUExtension@ExtensionSet@internal@protobuf@google@@@std@@@std@@U?$pair@$$CBHUExtension@ExtensionSet@internal@protobuf@google@@@2@@container_internal@lts_20250814@absl@@YA?A_PXZ
	??$IsDestructionTrivial@V?$allocator@UExtensionInfo@internal@protobuf@google@@@std@@UExtensionInfo@internal@protobuf@google@@@container_internal@lts_20250814@absl@@YA?A_PXZ
	??$IsNull@$08@internal@protobuf@google@@YA_NPEBX@Z
	??$IsNull@$09@internal@protobuf@google@@YA_NPEBX@Z
	??$IsNull@$0L@@internal@protobuf@google@@YA_NPEBX@Z
	??$IsNull@$0M@@internal@protobuf@google@@YA_NPEBX@Z
	??$Launder@VMessageLite@protobuf@google@@@internal@protobuf@google@@YAPEAVMessageLite@12@PEAV312@@Z
	??$LazyMessage@E@TcParser@internal@protobuf@google@@CAPEBDPEAVMessageLite@23@PEBDPEAVParseContext@123@UTcFieldData@123@PEBUTcParseTableBase@123@_K@Z
	??$LazyMessage@G@TcParser@internal@protobuf@google@@CAPEBDPEAVMessageLite@23@PEBDPEAVParseContext@123@UTcFieldData@123@PEBUTcParseTableBase@123@_K@Z
	??$MakeCheckOpString@E_J@log_internal@lts_20250814@absl@@YAPEBDE_JPEBD@Z
	??$MakeCheckOpValueString@_J@log_internal@lts_20250814@absl@@YAXAEAV?$basic_ostream@DU?$char_traits@D@std@@@std@@AEB_J@Z
	??$MakeConstSpan@$S$$CBD@lts_20250814@absl@@YA?AV?$Span@$$CBD@01@PEBD_K@Z
	??$MakeSpan@$SI@lts_20250814@absl@@YA?AV?$Span@I@01@PEAI_K@Z
	??$MaybeCreateRepeatedFieldRefAt@I$00@TcParser@internal@protobuf@google@@SAAEAV?$RepeatedField@I@23@PEAX_KPEAVMessageLite@23@@Z
	??$MaybeCreateRepeatedFieldRefAt@I$0A@@TcParser@internal@protobuf@google@@SAAEAV?$RepeatedField@I@23@PEAX_KPEAVMessageLite@23@@Z
	??$MaybeCreateRepeatedFieldRefAt@_K$00@TcParser@internal@protobuf@google@@SAAEAV?$RepeatedField@_K@23@PEAX_KPEAVMessageLite@23@@Z
	??$MaybeCreateRepeatedFieldRefAt@_K$0A@@TcParser@internal@protobuf@google@@SAAEAV?$RepeatedField@_K@23@PEAX_KPEAVMessageLite@23@@Z
	??$MaybeCreateRepeatedFieldRefAt@_N$00@TcParser@internal@protobuf@google@@SAAEAV?$RepeatedField@_N@23@PEAX_KPEAVMessageLite@23@@Z
	??$MaybeCreateRepeatedFieldRefAt@_N$0A@@TcParser@internal@protobuf@google@@SAAEAV?$RepeatedField@_N@23@PEAX_KPEAVMessageLite@23@@Z
	??$MaybeCreateRepeatedPtrFieldRefAt@V?$basic_string@DU?$char_traits@D@std@@V?$allocator@D@2@@std@@$00@TcParser@internal@protobuf@google@@SAAEAV?$RepeatedPtrField@V?$basic_string@DU?$char_traits@D@std@@V?$allocator@D@2@@std@@@23@PEAX_KPEAVMessageLite@23@@Z
	??$MaybeCreateRepeatedPtrFieldRefAt@V?$basic_string@DU?$char_traits@D@std@@V?$allocator@D@2@@std@@$0A@@TcParser@internal@protobuf@google@@SAAEAV?$RepeatedPtrField@V?$basic_string@DU?$char_traits@D@std@@V?$allocator@D@2@@std@@@23@PEAX_KPEAVMessageLite@23@@Z
	??$MaybeCreateRepeatedRefAt@V?$RepeatedField@I@protobuf@google@@$00@TcParser@internal@protobuf@google@@SAAEAV?$RepeatedField@I@23@PEAX_KPEAVMessageLite@23@@Z
	??$MaybeCreateRepeatedRefAt@V?$RepeatedField@I@protobuf@google@@$0A@@TcParser@internal@protobuf@google@@SAAEAV?$RepeatedField@I@23@PEAX_KPEAVMessageLite@23@@Z
	??$MaybeCreateRepeatedRefAt@V?$RepeatedField@_K@protobuf@google@@$00@TcParser@internal@protobuf@google@@SAAEAV?$RepeatedField@_K@23@PEAX_KPEAVMessageLite@23@@Z
	??$MaybeCreateRepeatedRefAt@V?$RepeatedField@_K@protobuf@google@@$0A@@TcParser@internal@protobuf@google@@SAAEAV?$RepeatedField@_K@23@PEAX_KPEAVMessageLite@23@@Z
	??$MaybeCreateRepeatedRefAt@V?$RepeatedField@_N@protobuf@google@@$00@TcParser@internal@protobuf@google@@SAAEAV?$RepeatedField@_N@23@PEAX_KPEAVMessageLite@23@@Z
	??$MaybeCreateRepeatedRefAt@V?$RepeatedField@_N@protobuf@google@@$0A@@TcParser@internal@protobuf@google@@SAAEAV?$RepeatedField@_N@23@PEAX_KPEAVMessageLite@23@@Z
	??$MaybeCreateRepeatedRefAt@V?$RepeatedPtrField@V?$basic_string@DU?$char_traits@D@std@@V?$allocator@D@2@@std@@@protobuf@google@@$00@TcParser@internal@protobuf@google@@SAAEAV?$RepeatedPtrField@V?$basic_string@DU?$char_traits@D@std@@V?$allocator@D@2@@std@@@23@PEAX_KPEAVMessageLite@23@@Z
	??$MaybeCreateRepeatedRefAt@V?$RepeatedPtrField@V?$basic_string@DU?$char_traits@D@std@@V?$allocator@D@2@@std@@@protobuf@google@@$0A@@TcParser@internal@protobuf@google@@SAAEAV?$RepeatedPtrField@V?$basic_string@DU?$char_traits@D@std@@V?$allocator@D@2@@std@@@23@PEAX_KPEAVMessageLite@23@@Z
	??$MaybeCreateRepeatedRefAt@VRepeatedPtrFieldBase@internal@protobuf@google@@$00@TcParser@internal@protobuf@google@@SAAEAVRepeatedPtrFieldBase@123@PEAX_KPEAVMessageLite@23@@Z
	??$MaybeCreateRepeatedRefAt@VRepeatedPtrFieldBase@internal@protobuf@google@@$0A@@TcParser@internal@protobuf@google@@SAAEAVRepeatedPtrFieldBase@123@PEAX_KPEAVMessageLite@23@@Z
	??$MergeFrom@V?$basic_string@DU?$char_traits@D@std@@V?$allocator@D@2@@std@@@RepeatedPtrFieldBase@internal@protobuf@google@@QEAAXAEBV0123@@Z
	??$MergeFrom@VMessageLite@protobuf@google@@@RepeatedPtrFieldBase@internal@protobuf@google@@QEAAXAEBV0123@@Z
	??$MergeFromImpl@$00@internal@protobuf@google@@YA_NPEAVZeroCopyInputStream@io@12@PEAVMessageLite@12@PEBUTcParseTableBase@012@W4ParseFlags@512@@Z
	??$MergeFromImpl@$00@internal@protobuf@google@@YA_NUBoundedZCIS@012@PEAVMessageLite@12@PEBUTcParseTableBase@012@W4ParseFlags@412@@Z
	??$MergeFromImpl@$00@internal@protobuf@google@@YA_NV?$basic_string_view@DU?$char_traits@D@std@@@std@@PEAVMessageLite@12@PEBUTcParseTableBase@012@W4ParseFlags@512@@Z
	??$MergeFromImpl@$0A@@internal@protobuf@google@@YA_NPEAVZeroCopyInputStream@io@12@PEAVMessageLite@12@PEBUTcParseTableBase@012@W4ParseFlags@512@@Z
	??$MergeFromImpl@$0A@@internal@protobuf@google@@YA_NUBoundedZCIS@012@PEAVMessageLite@12@PEBUTcParseTableBase@012@W4ParseFlags@412@@Z
	??$MergeFromImpl@$0A@@internal@protobuf@google@@YA_NV?$basic_string_view@DU?$char_traits@D@std@@@std@@PEAVMessageLite@12@PEBUTcParseTableBase@012@W4ParseFlags@512@@Z
	??$MergeFromImpl@$0A@VCord@lts_20250814@absl@@@internal@protobuf@google@@YA_NAEBU?$SourceWrapper@VCord@lts_20250814@absl@@@012@PEAVMessageLite@12@PEBUTcParseTableBase@012@W4ParseFlags@412@@Z
	??$MergeInto@$0A@@?$SourceWrapper@VCord@lts_20250814@absl@@@internal@protobuf@google@@QEBA_NPEAVMessageLite@23@PEBUTcParseTableBase@123@W4ParseFlags@423@@Z
	??$MessageSetWireFormatParseLoopImpl@VMessageLite@protobuf@google@@@TcParser@internal@protobuf@google@@CAPEBDPEAVMessageLite@23@PEBDPEAVParseContext@123@UTcFieldData@123@PEBUTcParseTableBase@123@_K@Z
	??$MessageSize@VMessageLite@protobuf@google@@@WireFormatLite@internal@protobuf@google@@SA_KAEBVMessageLite@23@@Z
	??$MiniParse@$00@TcParser@internal@protobuf@google@@CAPEBDPEAVMessageLite@23@PEBDPEAVParseContext@123@UTcFieldData@123@PEBUTcParseTableBase@123@_K@Z
	??$MiniParse@$0A@@TcParser@internal@protobuf@google@@CAPEBDPEAVMessageLite@23@PEBDPEAVParseContext@123@UTcFieldData@123@PEBUTcParseTableBase@123@_K@Z
	??$MpFixed@$00@TcParser@internal@protobuf@google@@CAPEBDPEAVMessageLite@23@PEBDPEAVParseContext@123@UTcFieldData@123@PEBUTcParseTableBase@123@_K@Z
	??$MpFixed@$0A@@TcParser@internal@protobuf@google@@CAPEBDPEAVMessageLite@23@PEBDPEAVParseContext@123@UTcFieldData@123@PEBUTcParseTableBase@123@_K@Z
	??$MpMap@$00@TcParser@internal@protobuf@google@@CAPEBDPEAVMessageLite@23@PEBDPEAVParseContext@123@UTcFieldData@123@PEBUTcParseTableBase@123@_K@Z
	??$MpMap@$0A@@TcParser@internal@protobuf@google@@CAPEBDPEAVMessageLite@23@PEBDPEAVParseContext@123@UTcFieldData@123@PEBUTcParseTableBase@123@_K@Z
	??$MpMessage@$00@TcParser@internal@protobuf@google@@CAPEBDPEAVMessageLite@23@PEBDPEAVParseContext@123@UTcFieldData@123@PEBUTcParseTableBase@123@_K@Z
	??$MpMessage@$0A@@TcParser@internal@protobuf@google@@CAPEBDPEAVMessageLite@23@PEBDPEAVParseContext@123@UTcFieldData@123@PEBUTcParseTableBase@123@_K@Z
	??$MpPackedFixed@$00@TcParser@internal@protobuf@google@@CAPEBDPEAVMessageLite@23@PEBDPEAVParseContext@123@UTcFieldData@123@PEBUTcParseTableBase@123@_K@Z
	??$MpPackedFixed@$0A@@TcParser@internal@protobuf@google@@CAPEBDPEAVMessageLite@23@PEBDPEAVParseContext@123@UTcFieldData@123@PEBUTcParseTableBase@123@_K@Z
	??$MpPackedVarint@$00@TcParser@internal@protobuf@google@@CAPEBDPEAVMessageLite@23@PEBDPEAVParseContext@123@UTcFieldData@123@PEBUTcParseTableBase@123@_K@Z
	??$MpPackedVarint@$0A@@TcParser@internal@protobuf@google@@CAPEBDPEAVMessageLite@23@PEBDPEAVParseContext@123@UTcFieldData@123@PEBUTcParseTableBase@123@_K@Z
	??$MpPackedVarintT@$00I$0A@@TcParser@internal@protobuf@google@@CAPEBDPEAVMessageLite@23@PEBDPEAVParseContext@123@UTcFieldData@123@PEBUTcParseTableBase@123@_K@Z
	??$MpPackedVarintT@$00_K$0A@@TcParser@internal@protobuf@google@@CAPEBDPEAVMessageLite@23@PEBDPEAVParseContext@123@UTcFieldData@123@PEBUTcParseTableBase@123@_K@Z
	??$MpPackedVarintT@$00_N$0A@@TcParser@internal@protobuf@google@@CAPEBDPEAVMessageLite@23@PEBDPEAVParseContext@123@UTcFieldData@123@PEBUTcParseTableBase@123@_K@Z
	??$MpPackedVarintT@$0A@I$0A@@TcParser@internal@protobuf@google@@CAPEBDPEAVMessageLite@23@PEBDPEAVParseContext@123@UTcFieldData@123@PEBUTcParseTableBase@123@_K@Z
	??$MpPackedVarintT@$0A@I$0CAA@@TcParser@internal@protobuf@google@@CAPEBDPEAVMessageLite@23@PEBDPEAVParseContext@123@UTcFieldData@123@PEBUTcParseTableBase@123@_K@Z
	??$MpPackedVarintT@$0A@I$0EAA@@TcParser@internal@protobuf@google@@CAPEBDPEAVMessageLite@23@PEBDPEAVParseContext@123@UTcFieldData@123@PEBUTcParseTableBase@123@_K@Z
	??$MpPackedVarintT@$0A@I$0GAA@@TcParser@internal@protobuf@google@@CAPEBDPEAVMessageLite@23@PEBDPEAVParseContext@123@UTcFieldData@123@PEBUTcParseTableBase@123@_K@Z
	??$MpPackedVarintT@$0A@_K$0A@@TcParser@internal@protobuf@google@@CAPEBDPEAVMessageLite@23@PEBDPEAVParseContext@123@UTcFieldData@123@PEBUTcParseTableBase@123@_K@Z
	??$MpPackedVarintT@$0A@_K$0CAA@@TcParser@internal@protobuf@google@@CAPEBDPEAVMessageLite@23@PEBDPEAVParseContext@123@UTcFieldData@123@PEBUTcParseTableBase@123@_K@Z
	??$MpPackedVarintT@$0A@_N$0A@@TcParser@internal@protobuf@google@@CAPEBDPEAVMessageLite@23@PEBDPEAVParseContext@123@UTcFieldData@123@PEBUTcParseTableBase@123@_K@Z
	??$MpRepeatedFixed@$00@TcParser@internal@protobuf@google@@CAPEBDPEAVMessageLite@23@PEBDPEAVParseContext@123@UTcFieldData@123@PEBUTcParseTableBase@123@_K@Z
	??$MpRepeatedFixed@$0A@@TcParser@internal@protobuf@google@@CAPEBDPEAVMessageLite@23@PEBDPEAVParseContext@123@UTcFieldData@123@PEBUTcParseTableBase@123@_K@Z
	??$MpRepeatedMessageOrGroup@$00$00@TcParser@internal@protobuf@google@@CAPEBDPEAVMessageLite@23@PEBDPEAVParseContext@123@UTcFieldData@123@PEBUTcParseTableBase@123@_K@Z
	??$MpRepeatedMessageOrGroup@$00$0A@@TcParser@internal@protobuf@google@@CAPEBDPEAVMessageLite@23@PEBDPEAVParseContext@123@UTcFieldData@123@PEBUTcParseTableBase@123@_K@Z
	??$MpRepeatedMessageOrGroup@$0A@$00@TcParser@internal@protobuf@google@@CAPEBDPEAVMessageLite@23@PEBDPEAVParseContext@123@UTcFieldData@123@PEBUTcParseTableBase@123@_K@Z
	??$MpRepeatedMessageOrGroup@$0A@$0A@@TcParser@internal@protobuf@google@@CAPEBDPEAVMessageLite@23@PEBDPEAVParseContext@123@UTcFieldData@123@PEBUTcParseTableBase@123@_K@Z
	??$MpRepeatedString@$00@TcParser@internal@protobuf@google@@CAPEBDPEAVMessageLite@23@PEBDPEAVParseContext@123@UTcFieldData@123@PEBUTcParseTableBase@123@_K@Z
	??$MpRepeatedString@$0A@@TcParser@internal@protobuf@google@@CAPEBDPEAVMessageLite@23@PEBDPEAVParseContext@123@UTcFieldData@123@PEBUTcParseTableBase@123@_K@Z
	??$MpRepeatedVarint@$00@TcParser@internal@protobuf@google@@CAPEBDPEAVMessageLite@23@PEBDPEAVParseContext@123@UTcFieldData@123@PEBUTcParseTableBase@123@_K@Z
	??$MpRepeatedVarint@$0A@@TcParser@internal@protobuf@google@@CAPEBDPEAVMessageLite@23@PEBDPEAVParseContext@123@UTcFieldData@123@PEBUTcParseTableBase@123@_K@Z
	??$MpRepeatedVarintT@$00I$0A@@TcParser@internal@protobuf@google@@CAPEBDPEAVMessageLite@23@PEBDPEAVParseContext@123@UTcFieldData@123@PEBUTcParseTableBase@123@_K@Z
	??$MpRepeatedVarintT@$00_K$0A@@TcParser@internal@protobuf@google@@CAPEBDPEAVMessageLite@23@PEBDPEAVParseContext@123@UTcFieldData@123@PEBUTcParseTableBase@123@_K@Z
	??$MpRepeatedVarintT@$00_N$0A@@TcParser@internal@protobuf@google@@CAPEBDPEAVMessageLite@23@PEBDPEAVParseContext@123@UTcFieldData@123@PEBUTcParseTableBase@123@_K@Z
	??$MpRepeatedVarintT@$0A@I$0A@@TcParser@internal@protobuf@google@@CAPEBDPEAVMessageLite@23@PEBDPEAVParseContext@123@UTcFieldData@123@PEBUTcParseTableBase@123@_K@Z
	??$MpRepeatedVarintT@$0A@I$0CAA@@TcParser@internal@protobuf@google@@CAPEBDPEAVMessageLite@23@PEBDPEAVParseContext@123@UTcFieldData@123@PEBUTcParseTableBase@123@_K@Z
	??$MpRepeatedVarintT@$0A@I$0EAA@@TcParser@internal@protobuf@google@@CAPEBDPEAVMessageLite@23@PEBDPEAVParseContext@123@UTcFieldData@123@PEBUTcParseTableBase@123@_K@Z
	??$MpRepeatedVarintT@$0A@I$0GAA@@TcParser@internal@protobuf@google@@CAPEBDPEAVMessageLite@23@PEBDPEAVParseContext@123@UTcFieldData@123@PEBUTcParseTableBase@123@_K@Z
	??$MpRepeatedVarintT@$0A@_K$0A@@TcParser@internal@protobuf@google@@CAPEBDPEAVMessageLite@23@PEBDPEAVParseContext@123@UTcFieldData@123@PEBUTcParseTableBase@123@_K@Z
	??$MpRepeatedVarintT@$0A@_K$0CAA@@TcParser@internal@protobuf@google@@CAPEBDPEAVMessageLite@23@PEBDPEAVParseContext@123@UTcFieldData@123@PEBUTcParseTableBase@123@_K@Z
	??$MpRepeatedVarintT@$0A@_N$0A@@TcParser@internal@protobuf@google@@CAPEBDPEAVMessageLite@23@PEBDPEAVParseContext@123@UTcFieldData@123@PEBUTcParseTableBase@123@_K@Z
	??$MpString@$00@TcParser@internal@protobuf@google@@CAPEBDPEAVMessageLite@23@PEBDPEAVParseContext@123@UTcFieldData@123@PEBUTcParseTableBase@123@_K@Z
	??$MpString@$0A@@TcParser@internal@protobuf@google@@CAPEBDPEAVMessageLite@23@PEBDPEAVParseContext@123@UTcFieldData@123@PEBUTcParseTableBase@123@_K@Z
	??$MpVarint@$00@TcParser@internal@protobuf@google@@CAPEBDPEAVMessageLite@23@PEBDPEAVParseContext@123@UTcFieldData@123@PEBUTcParseTableBase@123@_K@Z
	??$MpVarint@$0A@@TcParser@internal@protobuf@google@@CAPEBDPEAVMessageLite@23@PEBDPEAVParseContext@123@UTcFieldData@123@PEBUTcParseTableBase@123@_K@Z
	??$Mutable@V?$GenericTypeHandler@V?$basic_string@DU?$char_traits@D@std@@V?$allocator@D@2@@std@@@internal@protobuf@google@@@RepeatedPtrFieldBase@internal@protobuf@google@@IEAAPEAV?$basic_string@DU?$char_traits@D@std@@V?$allocator@D@2@@std@@H@Z
	??$Mutable@V?$GenericTypeHandler@VMessageLite@protobuf@google@@@internal@protobuf@google@@@RepeatedPtrFieldBase@internal@protobuf@google@@IEAAPEAVMessageLite@23@H@Z
	??$MutableSlow@$$V@ArenaStringPtr@internal@protobuf@google@@AEAAPEAV?$basic_string@DU?$char_traits@D@std@@V?$allocator@D@2@@std@@PEAVArena@23@@Z
	??$MutableSlow@VLazyString@internal@protobuf@google@@@ArenaStringPtr@internal@protobuf@google@@AEAAPEAV?$basic_string@DU?$char_traits@D@std@@V?$allocator@D@2@@std@@PEAVArena@23@AEBVLazyString@123@@Z
	??$New@VMessageLite@protobuf@google@@@MessageCreator@internal@protobuf@google@@QEBAPEAVMessageLite@23@PEBV423@0PEAVArena@23@@Z
	??$NewImpl@$0BAAA@$$V@CordRepFlat@cord_internal@lts_20250814@absl@@SAPEAU0123@_K@Z
	??$NewImpl@VImplicitWeakMessage@internal@protobuf@google@@@MessageLite@protobuf@google@@KAPEAXPEBXPEAXPEAVArena@12@@Z
	??$NewString@$$V@ArenaStringPtr@internal@protobuf@google@@AEAAPEAV?$basic_string@DU?$char_traits@D@std@@V?$allocator@D@2@@std@@PEAVArena@23@@Z
	??$NewString@AEBV?$basic_string@DU?$char_traits@D@std@@V?$allocator@D@2@@std@@@ArenaStringPtr@internal@protobuf@google@@AEAAPEAV?$basic_string@DU?$char_traits@D@std@@V?$allocator@D@2@@std@@PEAVArena@23@AEBV45@@Z
	??$NewString@V?$basic_string@DU?$char_traits@D@std@@V?$allocator@D@2@@std@@@ArenaStringPtr@internal@protobuf@google@@AEAAPEAV?$basic_string@DU?$char_traits@D@std@@V?$allocator@D@2@@std@@PEAVArena@23@$$QEAV45@@Z
	??$Offset@$00@?$LayoutImpl@V?$tuple@PEAV?$btree_node@U?$map_params@HUExtension@ExtensionSet@internal@protobuf@google@@U?$less@H@std@@V?$allocator@U?$pair@$$CBHUExtension@ExtensionSet@internal@protobuf@google@@@std@@@7@$0BAA@$0A@@container_internal@lts_20250814@absl@@@container_internal@lts_20250814@absl@@IET?$map_slot_type@HUExtension@ExtensionSet@internal@protobuf@google@@@234@PEAV1234@@std@@U?$integer_sequence@_K$00$0A@$03$06$07@2@U?$integer_sequence@_K$S@2@U?$integer_sequence@_K$0A@$00$01$02$03@2@U52@@internal_layout@container_internal@lts_20250814@absl@@QEBA_KXZ
	??$Offset@$00@?$LayoutImpl@V?$tuple@PEAV?$btree_node@U?$map_params@HUExtension@ExtensionSet@internal@protobuf@google@@U?$less@H@std@@V?$allocator@U?$pair@$$CBHUExtension@ExtensionSet@internal@protobuf@google@@@std@@@7@$0BAA@$0A@@container_internal@lts_20250814@absl@@@container_internal@lts_20250814@absl@@IET?$map_slot_type@HUExtension@ExtensionSet@internal@protobuf@google@@@234@PEAV1234@@std@@U?$integer_sequence@_K$00$0A@$03@2@U?$integer_sequence@_K$0A@$00@2@U?$integer_sequence@_K$0A@$00$01$02$03@2@U52@@internal_layout@container_internal@lts_20250814@absl@@QEBA_KXZ
	??$Offset@$00@?$LayoutImpl@V?$tuple@PEAV?$btree_node@U?$map_params@UVariantKey@internal@protobuf@google@@PEAUNodeBase@234@U?$less@UVariantKey@internal@protobuf@google@@@std@@V?$MapAllocator@U?$pair@$$CBUVariantKey@internal@protobuf@google@@PEAUNodeBase@234@@std@@@234@$0BAA@$0A@@container_internal@lts_20250814@absl@@@container_internal@lts_20250814@absl@@IET?$map_slot_type@UVariantKey@internal@protobuf@google@@PEAUNodeBase@234@@234@PEAV1234@@std@@U?$integer_sequence@_K$00$0A@$03$09$0L@@2@U?$integer_sequence@_K$S@2@U?$integer_sequence@_K$0A@$00$01$02$03@2@U52@@internal_layout@container_internal@lts_20250814@absl@@QEBA_KXZ
	??$Offset@$00@?$LayoutImpl@V?$tuple@PEAV?$btree_node@U?$map_params@UVariantKey@internal@protobuf@google@@PEAUNodeBase@234@U?$less@UVariantKey@internal@protobuf@google@@@std@@V?$MapAllocator@U?$pair@$$CBUVariantKey@internal@protobuf@google@@PEAUNodeBase@234@@std@@@234@$0BAA@$0A@@container_internal@lts_20250814@absl@@@container_internal@lts_20250814@absl@@IET?$map_slot_type@UVariantKey@internal@protobuf@google@@PEAUNodeBase@234@@234@PEAV1234@@std@@U?$integer_sequence@_K$00$0A@$03@2@U?$integer_sequence@_K$0A@$00@2@U?$integer_sequence@_K$0A@$00$01$02$03@2@U52@@internal_layout@container_internal@lts_20250814@absl@@QEBA_KXZ
	??$Offset@$00@?$LayoutImpl@V?$tuple@USerialArenaChunkHeader@internal@protobuf@google@@U?$atomic@PEAX@std@@U?$atomic@PEAVSerialArena@internal@protobuf@google@@@6@@std@@U?$integer_sequence@_K$S@2@U?$integer_sequence@_K$0A@$00$01@2@U42@U42@@internal_layout@container_internal@lts_20250814@absl@@QEBA_KXZ
	??$Offset@$01@?$LayoutImpl@V?$tuple@PEAV?$btree_node@U?$map_params@HUExtension@ExtensionSet@internal@protobuf@google@@U?$less@H@std@@V?$allocator@U?$pair@$$CBHUExtension@ExtensionSet@internal@protobuf@google@@@std@@@7@$0BAA@$0A@@container_internal@lts_20250814@absl@@@container_internal@lts_20250814@absl@@IET?$map_slot_type@HUExtension@ExtensionSet@internal@protobuf@google@@@234@PEAV1234@@std@@U?$integer_sequence@_K$00$0A@$03$06$07@2@U?$integer_sequence@_K$S@2@U?$integer_sequence@_K$0A@$00$01$02$03@2@U52@@internal_layout@container_internal@lts_20250814@absl@@QEBA_KXZ
	??$Offset@$01@?$LayoutImpl@V?$tuple@PEAV?$btree_node@U?$map_params@HUExtension@ExtensionSet@internal@protobuf@google@@U?$less@H@std@@V?$allocator@U?$pair@$$CBHUExtension@ExtensionSet@internal@protobuf@google@@@std@@@7@$0BAA@$0A@@container_internal@lts_20250814@absl@@@container_internal@lts_20250814@absl@@IET?$map_slot_type@HUExtension@ExtensionSet@internal@protobuf@google@@@234@PEAV1234@@std@@U?$integer_sequence@_K$00$0A@$03@2@U?$integer_sequence@_K$0A@$00@2@U?$integer_sequence@_K$0A@$00$01$02$03@2@U52@@internal_layout@container_internal@lts_20250814@absl@@QEBA_KXZ
	??$Offset@$01@?$LayoutImpl@V?$tuple@PEAV?$btree_node@U?$map_params@UVariantKey@internal@protobuf@google@@PEAUNodeBase@234@U?$less@UVariantKey@internal@protobuf@google@@@std@@V?$MapAllocator@U?$pair@$$CBUVariantKey@internal@protobuf@google@@PEAUNodeBase@234@@std@@@234@$0BAA@$0A@@container_internal@lts_20250814@absl@@@container_internal@lts_20250814@absl@@IET?$map_slot_type@UVariantKey@internal@protobuf@google@@PEAUNodeBase@234@@234@PEAV1234@@std@@U?$integer_sequence@_K$00$0A@$03$09$0L@@2@U?$integer_sequence@_K$S@2@U?$integer_sequence@_K$0A@$00$01$02$03@2@U52@@internal_layout@container_internal@lts_20250814@absl@@QEBA_KXZ
	??$Offset@$01@?$LayoutImpl@V?$tuple@PEAV?$btree_node@U?$map_params@UVariantKey@internal@protobuf@google@@PEAUNodeBase@234@U?$less@UVariantKey@internal@protobuf@google@@@std@@V?$MapAllocator@U?$pair@$$CBUVariantKey@internal@protobuf@google@@PEAUNodeBase@234@@std@@@234@$0BAA@$0A@@container_internal@lts_20250814@absl@@@container_internal@lts_20250814@absl@@IET?$map_slot_type@UVariantKey@internal@protobuf@google@@PEAUNodeBase@234@@234@PEAV1234@@std@@U?$integer_sequence@_K$00$0A@$03@2@U?$integer_sequence@_K$0A@$00@2@U?$integer_sequence@_K$0A@$00$01$02$03@2@U52@@internal_layout@container_internal@lts_20250814@absl@@QEBA_KXZ
	??$Offset@$01@?$LayoutImpl@V?$tuple@USerialArenaChunkHeader@internal@protobuf@google@@U?$atomic@PEAX@std@@U?$atomic@PEAVSerialArena@internal@protobuf@google@@@6@@std@@U?$integer_sequence@_K$S@2@U?$integer_sequence@_K$0A@$00$01@2@U42@U42@@internal_layout@container_internal@lts_20250814@absl@@QEBA_KXZ
	??$Offset@$02@?$LayoutImpl@V?$tuple@PEAV?$btree_node@U?$map_params@HUExtension@ExtensionSet@internal@protobuf@google@@U?$less@H@std@@V?$allocator@U?$pair@$$CBHUExtension@ExtensionSet@internal@protobuf@google@@@std@@@7@$0BAA@$0A@@container_internal@lts_20250814@absl@@@container_internal@lts_20250814@absl@@IET?$map_slot_type@HUExtension@ExtensionSet@internal@protobuf@google@@@234@PEAV1234@@std@@U?$integer_sequence@_K$00$0A@$03$06$07@2@U?$integer_sequence@_K$S@2@U?$integer_sequence@_K$0A@$00$01$02$03@2@U52@@internal_layout@container_internal@lts_20250814@absl@@QEBA_KXZ
	??$Offset@$02@?$LayoutImpl@V?$tuple@PEAV?$btree_node@U?$map_params@HUExtension@ExtensionSet@internal@protobuf@google@@U?$less@H@std@@V?$allocator@U?$pair@$$CBHUExtension@ExtensionSet@internal@protobuf@google@@@std@@@7@$0BAA@$0A@@container_internal@lts_20250814@absl@@@container_internal@lts_20250814@absl@@IET?$map_slot_type@HUExtension@ExtensionSet@internal@protobuf@google@@@234@PEAV1234@@std@@U?$integer_sequence@_K$00$0A@$03@2@U?$integer_sequence@_K$0A@$00@2@U?$integer_sequence@_K$0A@$00$01$02$03@2@U52@@internal_layout@container_internal@lts_20250814@absl@@QEBA_KXZ
	??$Offset@$02@?$LayoutImpl@V?$tuple@PEAV?$btree_node@U?$map_params@UVariantKey@internal@protobuf@google@@PEAUNodeBase@234@U?$less@UVariantKey@internal@protobuf@google@@@std@@V?$MapAllocator@U?$pair@$$CBUVariantKey@internal@protobuf@google@@PEAUNodeBase@234@@std@@@234@$0BAA@$0A@@container_internal@lts_20250814@absl@@@container_internal@lts_20250814@absl@@IET?$map_slot_type@UVariantKey@internal@protobuf@google@@PEAUNodeBase@234@@234@PEAV1234@@std@@U?$integer_sequence@_K$00$0A@$03$09$0L@@2@U?$integer_sequence@_K$S@2@U?$integer_sequence@_K$0A@$00$01$02$03@2@U52@@internal_layout@container_internal@lts_20250814@absl@@QEBA_KXZ
	??$Offset@$02@?$LayoutImpl@V?$tuple@PEAV?$btree_node@U?$map_params@UVariantKey@internal@protobuf@google@@PEAUNodeBase@234@U?$less@UVariantKey@internal@protobuf@google@@@std@@V?$MapAllocator@U?$pair@$$CBUVariantKey@internal@protobuf@google@@PEAUNodeBase@234@@std@@@234@$0BAA@$0A@@container_internal@lts_20250814@absl@@@container_internal@lts_20250814@absl@@IET?$map_slot_type@UVariantKey@internal@protobuf@google@@PEAUNodeBase@234@@234@PEAV1234@@std@@U?$integer_sequence@_K$00$0A@$03@2@U?$integer_sequence@_K$0A@$00@2@U?$integer_sequence@_K$0A@$00$01$02$03@2@U52@@internal_layout@container_internal@lts_20250814@absl@@QEBA_KXZ
	??$Offset@$03@?$LayoutImpl@V?$tuple@PEAV?$btree_node@U?$map_params@HUExtension@ExtensionSet@internal@protobuf@google@@U?$less@H@std@@V?$allocator@U?$pair@$$CBHUExtension@ExtensionSet@internal@protobuf@google@@@std@@@7@$0BAA@$0A@@container_internal@lts_20250814@absl@@@container_internal@lts_20250814@absl@@IET?$map_slot_type@HUExtension@ExtensionSet@internal@protobuf@google@@@234@PEAV1234@@std@@U?$integer_sequence@_K$00$0A@$03$06$07@2@U?$integer_sequence@_K$S@2@U?$integer_sequence@_K$0A@$00$01$02$03@2@U52@@internal_layout@container_internal@lts_20250814@absl@@QEBA_KXZ
	??$Offset@$03@?$LayoutImpl@V?$tuple@PEAV?$btree_node@U?$map_params@HUExtension@ExtensionSet@internal@protobuf@google@@U?$less@H@std@@V?$allocator@U?$pair@$$CBHUExtension@ExtensionSet@internal@protobuf@google@@@std@@@7@$0BAA@$0A@@container_internal@lts_20250814@absl@@@container_internal@lts_20250814@absl@@IET?$map_slot_type@HUExtension@ExtensionSet@internal@protobuf@google@@@234@PEAV1234@@std@@U?$integer_sequence@_K$00$0A@$03@2@U?$integer_sequence@_K$0A@$00@2@U?$integer_sequence@_K$0A@$00$01$02$03@2@U52@@internal_layout@container_internal@lts_20250814@absl@@QEBA_KXZ
	??$Offset@$03@?$LayoutImpl@V?$tuple@PEAV?$btree_node@U?$map_params@UVariantKey@internal@protobuf@google@@PEAUNodeBase@234@U?$less@UVariantKey@internal@protobuf@google@@@std@@V?$MapAllocator@U?$pair@$$CBUVariantKey@internal@protobuf@google@@PEAUNodeBase@234@@std@@@234@$0BAA@$0A@@container_internal@lts_20250814@absl@@@container_internal@lts_20250814@absl@@IET?$map_slot_type@UVariantKey@internal@protobuf@google@@PEAUNodeBase@234@@234@PEAV1234@@std@@U?$integer_sequence@_K$00$0A@$03$09$0L@@2@U?$integer_sequence@_K$S@2@U?$integer_sequence@_K$0A@$00$01$02$03@2@U52@@internal_layout@container_internal@lts_20250814@absl@@QEBA_KXZ
	??$Offset@$03@?$LayoutImpl@V?$tuple@PEAV?$btree_node@U?$map_params@UVariantKey@internal@protobuf@google@@PEAUNodeBase@234@U?$less@UVariantKey@internal@protobuf@google@@@std@@V?$MapAllocator@U?$pair@$$CBUVariantKey@internal@protobuf@google@@PEAUNodeBase@234@@std@@@234@$0BAA@$0A@@container_internal@lts_20250814@absl@@@container_internal@lts_20250814@absl@@IET?$map_slot_type@UVariantKey@internal@protobuf@google@@PEAUNodeBase@234@@234@PEAV1234@@std@@U?$integer_sequence@_K$00$0A@$03@2@U?$integer_sequence@_K$0A@$00@2@U?$integer_sequence@_K$0A@$00$01$02$03@2@U52@@internal_layout@container_internal@lts_20250814@absl@@QEBA_KXZ
	??$Offset@$0A@@?$LayoutImpl@V?$tuple@PEAV?$btree_node@U?$map_params@HUExtension@ExtensionSet@internal@protobuf@google@@U?$less@H@std@@V?$allocator@U?$pair@$$CBHUExtension@ExtensionSet@internal@protobuf@google@@@std@@@7@$0BAA@$0A@@container_internal@lts_20250814@absl@@@container_internal@lts_20250814@absl@@IET?$map_slot_type@HUExtension@ExtensionSet@internal@protobuf@google@@@234@PEAV1234@@std@@U?$integer_sequence@_K$00$0A@$03$06$07@2@U?$integer_sequence@_K$S@2@U?$integer_sequence@_K$0A@$00$01$02$03@2@U52@@internal_layout@container_internal@lts_20250814@absl@@QEBA_KXZ
	??$Offset@$0A@@?$LayoutImpl@V?$tuple@PEAV?$btree_node@U?$map_params@HUExtension@ExtensionSet@internal@protobuf@google@@U?$less@H@std@@V?$allocator@U?$pair@$$CBHUExtension@ExtensionSet@internal@protobuf@google@@@std@@@7@$0BAA@$0A@@container_internal@lts_20250814@absl@@@container_internal@lts_20250814@absl@@IET?$map_slot_type@HUExtension@ExtensionSet@internal@protobuf@google@@@234@PEAV1234@@std@@U?$integer_sequence@_K$00$0A@$03@2@U?$integer_sequence@_K$0A@$00@2@U?$integer_sequence@_K$0A@$00$01$02$03@2@U52@@internal_layout@container_internal@lts_20250814@absl@@QEBA_KXZ
	??$Offset@$0A@@?$LayoutImpl@V?$tuple@PEAV?$btree_node@U?$map_params@UVariantKey@internal@protobuf@google@@PEAUNodeBase@234@U?$less@UVariantKey@internal@protobuf@google@@@std@@V?$MapAllocator@U?$pair@$$CBUVariantKey@internal@protobuf@google@@PEAUNodeBase@234@@std@@@234@$0BAA@$0A@@container_internal@lts_20250814@absl@@@container_internal@lts_20250814@absl@@IET?$map_slot_type@UVariantKey@internal@protobuf@google@@PEAUNodeBase@234@@234@PEAV1234@@std@@U?$integer_sequence@_K$00$0A@$03$09$0L@@2@U?$integer_sequence@_K$S@2@U?$integer_sequence@_K$0A@$00$01$02$03@2@U52@@internal_layout@container_internal@lts_20250814@absl@@QEBA_KXZ
	??$Offset@$0A@@?$LayoutImpl@V?$tuple@PEAV?$btree_node@U?$map_params@UVariantKey@internal@protobuf@google@@PEAUNodeBase@234@U?$less@UVariantKey@internal@protobuf@google@@@std@@V?$MapAllocator@U?$pair@$$CBUVariantKey@internal@protobuf@google@@PEAUNodeBase@234@@std@@@234@$0BAA@$0A@@container_internal@lts_20250814@absl@@@container_internal@lts_20250814@absl@@IET?$map_slot_type@UVariantKey@internal@protobuf@google@@PEAUNodeBase@234@@234@PEAV1234@@std@@U?$integer_sequence@_K$00$0A@$03@2@U?$integer_sequence@_K$0A@$00@2@U?$integer_sequence@_K$0A@$00$01$02$03@2@U52@@internal_layout@container_internal@lts_20250814@absl@@QEBA_KXZ
	??$Offset@$0A@@?$LayoutImpl@V?$tuple@USerialArenaChunkHeader@internal@protobuf@google@@U?$atomic@PEAX@std@@U?$atomic@PEAVSerialArena@internal@protobuf@google@@@6@@std@@U?$integer_sequence@_K$S@2@U32@U32@U?$integer_sequence@_K$0A@@2@@internal_layout@container_internal@lts_20250814@absl@@QEBA_KXZ
	??$Offset@$0A@@?$LayoutImpl@V?$tuple@USerialArenaChunkHeader@internal@protobuf@google@@U?$atomic@PEAX@std@@U?$atomic@PEAVSerialArena@internal@protobuf@google@@@6@@std@@U?$integer_sequence@_K$S@2@U?$integer_sequence@_K$0A@$00$01@2@U42@U42@@internal_layout@container_internal@lts_20250814@absl@@QEBA_KXZ
	??$OnShutdownDelete@V?$RepeatedPtrField@V?$basic_string@DU?$char_traits@D@std@@V?$allocator@D@2@@std@@@protobuf@google@@@internal@protobuf@google@@YAPEAV?$RepeatedPtrField@V?$basic_string@DU?$char_traits@D@std@@V?$allocator@D@2@@std@@@12@PEAV312@@Z
	??$OnShutdownDelete@VRepeatedPrimitiveDefaults@internal@protobuf@google@@@internal@protobuf@google@@YAPEAVRepeatedPrimitiveDefaults@012@PEAV3012@@Z
	??$Own@V?$basic_string@DU?$char_traits@D@std@@V?$allocator@D@2@@std@@@Arena@protobuf@google@@QEAAXPEAV?$basic_string@DU?$char_traits@D@std@@V?$allocator@D@2@@std@@@Z
	??$Own@VMessageLite@protobuf@google@@@Arena@protobuf@google@@QEAAXPEAVMessageLite@12@@Z
	??$OwnDestructor@V?$basic_string@DU?$char_traits@D@std@@V?$allocator@D@2@@std@@@Arena@protobuf@google@@QEAAXPEAV?$basic_string@DU?$char_traits@D@std@@V?$allocator@D@2@@std@@@Z
	??$PackedEnum@E$0EAA@@TcParser@internal@protobuf@google@@CAPEBDPEAVMessageLite@23@PEBDPEAVParseContext@123@UTcFieldData@123@PEBUTcParseTableBase@123@_K@Z
	??$PackedEnum@E$0GAA@@TcParser@internal@protobuf@google@@CAPEBDPEAVMessageLite@23@PEBDPEAVParseContext@123@UTcFieldData@123@PEBUTcParseTableBase@123@_K@Z
	??$PackedEnum@G$0EAA@@TcParser@internal@protobuf@google@@CAPEBDPEAVMessageLite@23@PEBDPEAVParseContext@123@UTcFieldData@123@PEBUTcParseTableBase@123@_K@Z
	??$PackedEnum@G$0GAA@@TcParser@internal@protobuf@google@@CAPEBDPEAVMessageLite@23@PEBDPEAVParseContext@123@UTcFieldData@123@PEBUTcParseTableBase@123@_K@Z
	??$PackedEnumParserArg@V?$basic_string@DU?$char_traits@D@std@@V?$allocator@D@2@@std@@@internal@protobuf@google@@YAPEBDPEAXPEBDPEAVParseContext@012@P6A_NPEBXH@Z3PEAVInternalMetadata@012@H@Z
	??$PackedEnumSmallRange@E$00@TcParser@internal@protobuf@google@@CAPEBDPEAVMessageLite@23@PEBDPEAVParseContext@123@UTcFieldData@123@PEBUTcParseTableBase@123@_K@Z
	??$PackedEnumSmallRange@E$0A@@TcParser@internal@protobuf@google@@CAPEBDPEAVMessageLite@23@PEBDPEAVParseContext@123@UTcFieldData@123@PEBUTcParseTableBase@123@_K@Z
	??$PackedEnumSmallRange@G$00@TcParser@internal@protobuf@google@@CAPEBDPEAVMessageLite@23@PEBDPEAVParseContext@123@UTcFieldData@123@PEBUTcParseTableBase@123@_K@Z
	??$PackedEnumSmallRange@G$0A@@TcParser@internal@protobuf@google@@CAPEBDPEAVMessageLite@23@PEBDPEAVParseContext@123@UTcFieldData@123@PEBUTcParseTableBase@123@_K@Z
	??$PackedFixed@IE@TcParser@internal@protobuf@google@@CAPEBDPEAVMessageLite@23@PEBDPEAVParseContext@123@UTcFieldData@123@PEBUTcParseTableBase@123@_K@Z
	??$PackedFixed@IG@TcParser@internal@protobuf@google@@CAPEBDPEAVMessageLite@23@PEBDPEAVParseContext@123@UTcFieldData@123@PEBUTcParseTableBase@123@_K@Z
	??$PackedFixed@_KE@TcParser@internal@protobuf@google@@CAPEBDPEAVMessageLite@23@PEBDPEAVParseContext@123@UTcFieldData@123@PEBUTcParseTableBase@123@_K@Z
	??$PackedFixed@_KG@TcParser@internal@protobuf@google@@CAPEBDPEAVMessageLite@23@PEBDPEAVParseContext@123@UTcFieldData@123@PEBUTcParseTableBase@123@_K@Z
	??$PackedVarint@HE$00@TcParser@internal@protobuf@google@@CAPEBDPEAVMessageLite@23@PEBDPEAVParseContext@123@UTcFieldData@123@PEBUTcParseTableBase@123@_K@Z
	??$PackedVarint@HG$00@TcParser@internal@protobuf@google@@CAPEBDPEAVMessageLite@23@PEBDPEAVParseContext@123@UTcFieldData@123@PEBUTcParseTableBase@123@_K@Z
	??$PackedVarint@IE$0A@@TcParser@internal@protobuf@google@@CAPEBDPEAVMessageLite@23@PEBDPEAVParseContext@123@UTcFieldData@123@PEBUTcParseTableBase@123@_K@Z
	??$PackedVarint@IG$0A@@TcParser@internal@protobuf@google@@CAPEBDPEAVMessageLite@23@PEBDPEAVParseContext@123@UTcFieldData@123@PEBUTcParseTableBase@123@_K@Z
	??$PackedVarint@_JE$00@TcParser@internal@protobuf@google@@CAPEBDPEAVMessageLite@23@PEBDPEAVParseContext@123@UTcFieldData@123@PEBUTcParseTableBase@123@_K@Z
	??$PackedVarint@_JG$00@TcParser@internal@protobuf@google@@CAPEBDPEAVMessageLite@23@PEBDPEAVParseContext@123@UTcFieldData@123@PEBUTcParseTableBase@123@_K@Z
	??$PackedVarint@_KE$0A@@TcParser@internal@protobuf@google@@CAPEBDPEAVMessageLite@23@PEBDPEAVParseContext@123@UTcFieldData@123@PEBUTcParseTableBase@123@_K@Z
	??$PackedVarint@_KG$0A@@TcParser@internal@protobuf@google@@CAPEBDPEAVMessageLite@23@PEBDPEAVParseContext@123@UTcFieldData@123@PEBUTcParseTableBase@123@_K@Z
	??$PackedVarint@_NE$0A@@TcParser@internal@protobuf@google@@CAPEBDPEAVMessageLite@23@PEBDPEAVParseContext@123@UTcFieldData@123@PEBUTcParseTableBase@123@_K@Z
	??$PackedVarint@_NG$0A@@TcParser@internal@protobuf@google@@CAPEBDPEAVMessageLite@23@PEBDPEAVParseContext@123@UTcFieldData@123@PEBUTcParseTableBase@123@_K@Z
	??$ParseFieldWithExtensionInfo@V?$basic_string@DU?$char_traits@D@std@@V?$allocator@D@2@@std@@@ExtensionSet@internal@protobuf@google@@AEAAPEBDH_NAEBUExtensionInfo@123@PEAVInternalMetadata@123@PEBDPEAVParseContext@123@@Z
	??$ParseFrom@$00PEAVZeroCopyInputStream@io@protobuf@google@@@MessageLite@protobuf@google@@QEAA_NAEBQEAVZeroCopyInputStream@io@12@@Z
	??$ParseFrom@$00U?$SourceWrapper@VCord@lts_20250814@absl@@@internal@protobuf@google@@@MessageLite@protobuf@google@@QEAA_NAEBU?$SourceWrapper@VCord@lts_20250814@absl@@@internal@12@@Z
	??$ParseFrom@$00UBoundedZCIS@internal@protobuf@google@@@MessageLite@protobuf@google@@QEAA_NAEBUBoundedZCIS@internal@12@@Z
	??$ParseFrom@$00V?$basic_string_view@DU?$char_traits@D@std@@@std@@@MessageLite@protobuf@google@@QEAA_NAEBV?$basic_string_view@DU?$char_traits@D@std@@@std@@@Z
	??$ParseFrom@$01U?$SourceWrapper@VCord@lts_20250814@absl@@@internal@protobuf@google@@@MessageLite@protobuf@google@@QEAA_NAEBU?$SourceWrapper@VCord@lts_20250814@absl@@@internal@12@@Z
	??$ParseFrom@$01UBoundedZCIS@internal@protobuf@google@@@MessageLite@protobuf@google@@QEAA_NAEBUBoundedZCIS@internal@12@@Z
	??$ParseFrom@$02PEAVZeroCopyInputStream@io@protobuf@google@@@MessageLite@protobuf@google@@QEAA_NAEBQEAVZeroCopyInputStream@io@12@@Z
	??$ParseFrom@$02U?$SourceWrapper@VCord@lts_20250814@absl@@@internal@protobuf@google@@@MessageLite@protobuf@google@@QEAA_NAEBU?$SourceWrapper@VCord@lts_20250814@absl@@@internal@12@@Z
	??$ParseFrom@$02UBoundedZCIS@internal@protobuf@google@@@MessageLite@protobuf@google@@QEAA_NAEBUBoundedZCIS@internal@12@@Z
	??$ParseFrom@$02V?$basic_string_view@DU?$char_traits@D@std@@@std@@@MessageLite@protobuf@google@@QEAA_NAEBV?$basic_string_view@DU?$char_traits@D@std@@@std@@@Z
	??$ParseFrom@$0A@U?$SourceWrapper@VCord@lts_20250814@absl@@@internal@protobuf@google@@@MessageLite@protobuf@google@@QEAA_NAEBU?$SourceWrapper@VCord@lts_20250814@absl@@@internal@12@@Z
	??$ParseFrom@$0A@UBoundedZCIS@internal@protobuf@google@@@MessageLite@protobuf@google@@QEAA_NAEBUBoundedZCIS@internal@12@@Z
	??$ParseFrom@$0A@V?$basic_string_view@DU?$char_traits@D@std@@@std@@@MessageLite@protobuf@google@@QEAA_NAEBV?$basic_string_view@DU?$char_traits@D@std@@@std@@@Z
	??$ParseGroupInlined@V<lambda_074d994a40445956fdc1967f546ba30d>@@@ParseContext@internal@protobuf@google@@QEAAPEBDPEBDIAEBV<lambda_074d994a40445956fdc1967f546ba30d>@@@Z
	??$ParseGroupInlined@V<lambda_22e55180b1fc8ed14f7e994bdcc24ec8>@@@ParseContext@internal@protobuf@google@@QEAAPEBDPEBDIAEBV<lambda_22e55180b1fc8ed14f7e994bdcc24ec8>@@@Z
	??$ParseGroupInlined@V<lambda_2740329fa83ce8790777685724095b0b>@@@ParseContext@internal@protobuf@google@@QEAAPEBDPEBDIAEBV<lambda_2740329fa83ce8790777685724095b0b>@@@Z
	??$ParseGroupInlined@V<lambda_287d06059c605e7614f42513af7e616d>@@@ParseContext@internal@protobuf@google@@QEAAPEBDPEBDIAEBV<lambda_287d06059c605e7614f42513af7e616d>@@@Z
	??$ParseGroupInlined@V<lambda_474849a26aea816c3661aa32430ea50e>@@@ParseContext@internal@protobuf@google@@QEAAPEBDPEBDIAEBV<lambda_474849a26aea816c3661aa32430ea50e>@@@Z
	??$ParseGroupInlined@V<lambda_526af3fc65d781784903ae71ec85a5e2>@@@ParseContext@internal@protobuf@google@@QEAAPEBDPEBDIAEBV<lambda_526af3fc65d781784903ae71ec85a5e2>@@@Z
	??$ParseGroupInlined@V<lambda_5922bcd0e88bcc27f930de15ea0119c1>@@@ParseContext@internal@protobuf@google@@QEAAPEBDPEBDIAEBV<lambda_5922bcd0e88bcc27f930de15ea0119c1>@@@Z
	??$ParseGroupInlined@V<lambda_6166e172758d6a2e3d9d27e4c1c6924a>@@@ParseContext@internal@protobuf@google@@QEAAPEBDPEBDIAEBV<lambda_6166e172758d6a2e3d9d27e4c1c6924a>@@@Z
	??$ParseGroupInlined@V<lambda_625dd94df6587b17f3dcfdea54760185>@@@ParseContext@internal@protobuf@google@@QEAAPEBDPEBDIAEBV<lambda_625dd94df6587b17f3dcfdea54760185>@@@Z
	??$ParseGroupInlined@V<lambda_80af848bc41b9b9be0d0b682058ca299>@@@ParseContext@internal@protobuf@google@@QEAAPEBDPEBDIAEBV<lambda_80af848bc41b9b9be0d0b682058ca299>@@@Z
	??$ParseGroupInlined@V<lambda_837409354c4dcdd5f3dec002359b6434>@@@ParseContext@internal@protobuf@google@@QEAAPEBDPEBDIAEBV<lambda_837409354c4dcdd5f3dec002359b6434>@@@Z
	??$ParseGroupInlined@V<lambda_84e0908dacb8f57e004de1df6ba31a4f>@@@ParseContext@internal@protobuf@google@@QEAAPEBDPEBDIAEBV<lambda_84e0908dacb8f57e004de1df6ba31a4f>@@@Z
	??$ParseGroupInlined@V<lambda_8aa7441f1b964d8f9de6b78125db6095>@@@ParseContext@internal@protobuf@google@@QEAAPEBDPEBDIAEBV<lambda_8aa7441f1b964d8f9de6b78125db6095>@@@Z
	??$ParseGroupInlined@V<lambda_8ad3181083032036fc072359930a5b22>@@@ParseContext@internal@protobuf@google@@QEAAPEBDPEBDIAEBV<lambda_8ad3181083032036fc072359930a5b22>@@@Z
	??$ParseGroupInlined@V<lambda_8decd5738496cd5079e802e87e812e26>@@@ParseContext@internal@protobuf@google@@QEAAPEBDPEBDIAEBV<lambda_8decd5738496cd5079e802e87e812e26>@@@Z
	??$ParseGroupInlined@V<lambda_93ca9b5d621da4d66c690c608fcf35ac>@@@ParseContext@internal@protobuf@google@@QEAAPEBDPEBDIAEBV<lambda_93ca9b5d621da4d66c690c608fcf35ac>@@@Z
	??$ParseGroupInlined@V<lambda_a320c5a885494d4d32b2e995a1d20a8b>@@@ParseContext@internal@protobuf@google@@QEAAPEBDPEBDIAEBV<lambda_a320c5a885494d4d32b2e995a1d20a8b>@@@Z
	??$ParseGroupInlined@V<lambda_b443fc7b92e846182fea19ab79ad3459>@@@ParseContext@internal@protobuf@google@@QEAAPEBDPEBDIAEBV<lambda_b443fc7b92e846182fea19ab79ad3459>@@@Z
	??$ParseGroupInlined@V<lambda_b50ad884f05deeb71dd809500364bc59>@@@ParseContext@internal@protobuf@google@@QEAAPEBDPEBDIAEBV<lambda_b50ad884f05deeb71dd809500364bc59>@@@Z
	??$ParseGroupInlined@V<lambda_ce58277daddb32c40d4644115884d946>@@@ParseContext@internal@protobuf@google@@QEAAPEBDPEBDIAEBV<lambda_ce58277daddb32c40d4644115884d946>@@@Z
	??$ParseGroupInlined@V<lambda_d7576cfe2c1bb4a563100ed75389c9ec>@@@ParseContext@internal@protobuf@google@@QEAAPEBDPEBDIAEBV<lambda_d7576cfe2c1bb4a563100ed75389c9ec>@@@Z
	??$ParseGroupInlined@V<lambda_daf7099df2421951ce5dfc220ecbcb3c>@@@ParseContext@internal@protobuf@google@@QEAAPEBDPEBDIAEBV<lambda_daf7099df2421951ce5dfc220ecbcb3c>@@@Z
	??$ParseGroupInlined@V<lambda_e0f4f46bb8ff87c3d1d47eaac3af8c80>@@@ParseContext@internal@protobuf@google@@QEAAPEBDPEBDIAEBV<lambda_e0f4f46bb8ff87c3d1d47eaac3af8c80>@@@Z
	??$ParseGroupInlined@V<lambda_ee012d68823e82235e446c380eaf9f28>@@@ParseContext@internal@protobuf@google@@QEAAPEBDPEBDIAEBV<lambda_ee012d68823e82235e446c380eaf9f28>@@@Z
	??$ParseGroupInlined@V<lambda_ef517ad6fdfa3fa56e26d0b9abcff24f>@@@ParseContext@internal@protobuf@google@@QEAAPEBDPEBDIAEBV<lambda_ef517ad6fdfa3fa56e26d0b9abcff24f>@@@Z
	??$ParseLengthDelimitedInlined@V<lambda_074d994a40445956fdc1967f546ba30d>@@@ParseContext@internal@protobuf@google@@QEAAPEBDPEBDAEBV<lambda_074d994a40445956fdc1967f546ba30d>@@@Z
	??$ParseLengthDelimitedInlined@V<lambda_22e55180b1fc8ed14f7e994bdcc24ec8>@@@ParseContext@internal@protobuf@google@@QEAAPEBDPEBDAEBV<lambda_22e55180b1fc8ed14f7e994bdcc24ec8>@@@Z
	??$ParseLengthDelimitedInlined@V<lambda_23ce00b4da9f9bb0963c399e3b1317ba>@@@ParseContext@internal@protobuf@google@@QEAAPEBDPEBDAEBV<lambda_23ce00b4da9f9bb0963c399e3b1317ba>@@@Z
	??$ParseLengthDelimitedInlined@V<lambda_2740329fa83ce8790777685724095b0b>@@@ParseContext@internal@protobuf@google@@QEAAPEBDPEBDAEBV<lambda_2740329fa83ce8790777685724095b0b>@@@Z
	??$ParseLengthDelimitedInlined@V<lambda_287d06059c605e7614f42513af7e616d>@@@ParseContext@internal@protobuf@google@@QEAAPEBDPEBDAEBV<lambda_287d06059c605e7614f42513af7e616d>@@@Z
	??$ParseLengthDelimitedInlined@V<lambda_31f6c73cdcd3c9137dbbc90a5d81ad8e>@@@ParseContext@internal@protobuf@google@@QEAAPEBDPEBDAEBV<lambda_31f6c73cdcd3c9137dbbc90a5d81ad8e>@@@Z
	??$ParseLengthDelimitedInlined@V<lambda_474849a26aea816c3661aa32430ea50e>@@@ParseContext@internal@protobuf@google@@QEAAPEBDPEBDAEBV<lambda_474849a26aea816c3661aa32430ea50e>@@@Z
	??$ParseLengthDelimitedInlined@V<lambda_526af3fc65d781784903ae71ec85a5e2>@@@ParseContext@internal@protobuf@google@@QEAAPEBDPEBDAEBV<lambda_526af3fc65d781784903ae71ec85a5e2>@@@Z
	??$ParseLengthDelimitedInlined@V<lambda_5922bcd0e88bcc27f930de15ea0119c1>@@@ParseContext@internal@protobuf@google@@QEAAPEBDPEBDAEBV<lambda_5922bcd0e88bcc27f930de15ea0119c1>@@@Z
	??$ParseLengthDelimitedInlined@V<lambda_59d48a0ab7555104dd857cd94e6803cf>@@@ParseContext@internal@protobuf@google@@QEAAPEBDPEBDAEBV<lambda_59d48a0ab7555104dd857cd94e6803cf>@@@Z
	??$ParseLengthDelimitedInlined@V<lambda_625dd94df6587b17f3dcfdea54760185>@@@ParseContext@internal@protobuf@google@@QEAAPEBDPEBDAEBV<lambda_625dd94df6587b17f3dcfdea54760185>@@@Z
	??$ParseLengthDelimitedInlined@V<lambda_837409354c4dcdd5f3dec002359b6434>@@@ParseContext@internal@protobuf@google@@QEAAPEBDPEBDAEBV<lambda_837409354c4dcdd5f3dec002359b6434>@@@Z
	??$ParseLengthDelimitedInlined@V<lambda_84e0908dacb8f57e004de1df6ba31a4f>@@@ParseContext@internal@protobuf@google@@QEAAPEBDPEBDAEBV<lambda_84e0908dacb8f57e004de1df6ba31a4f>@@@Z
	??$ParseLengthDelimitedInlined@V<lambda_8aa7441f1b964d8f9de6b78125db6095>@@@ParseContext@internal@protobuf@google@@QEAAPEBDPEBDAEBV<lambda_8aa7441f1b964d8f9de6b78125db6095>@@@Z
	??$ParseLengthDelimitedInlined@V<lambda_8ad3181083032036fc072359930a5b22>@@@ParseContext@internal@protobuf@google@@QEAAPEBDPEBDAEBV<lambda_8ad3181083032036fc072359930a5b22>@@@Z
	??$ParseLengthDelimitedInlined@V<lambda_8decd5738496cd5079e802e87e812e26>@@@ParseContext@internal@protobuf@google@@QEAAPEBDPEBDAEBV<lambda_8decd5738496cd5079e802e87e812e26>@@@Z
	??$ParseLengthDelimitedInlined@V<lambda_93ca9b5d621da4d66c690c608fcf35ac>@@@ParseContext@internal@protobuf@google@@QEAAPEBDPEBDAEBV<lambda_93ca9b5d621da4d66c690c608fcf35ac>@@@Z
	??$ParseLengthDelimitedInlined@V<lambda_a320c5a885494d4d32b2e995a1d20a8b>@@@ParseContext@internal@protobuf@google@@QEAAPEBDPEBDAEBV<lambda_a320c5a885494d4d32b2e995a1d20a8b>@@@Z
	??$ParseLengthDelimitedInlined@V<lambda_b443fc7b92e846182fea19ab79ad3459>@@@ParseContext@internal@protobuf@google@@QEAAPEBDPEBDAEBV<lambda_b443fc7b92e846182fea19ab79ad3459>@@@Z
	??$ParseLengthDelimitedInlined@V<lambda_b50ad884f05deeb71dd809500364bc59>@@@ParseContext@internal@protobuf@google@@QEAAPEBDPEBDAEBV<lambda_b50ad884f05deeb71dd809500364bc59>@@@Z
	??$ParseLengthDelimitedInlined@V<lambda_ce58277daddb32c40d4644115884d946>@@@ParseContext@internal@protobuf@google@@QEAAPEBDPEBDAEBV<lambda_ce58277daddb32c40d4644115884d946>@@@Z
	??$ParseLengthDelimitedInlined@V<lambda_d7576cfe2c1bb4a563100ed75389c9ec>@@@ParseContext@internal@protobuf@google@@QEAAPEBDPEBDAEBV<lambda_d7576cfe2c1bb4a563100ed75389c9ec>@@@Z
	??$ParseLengthDelimitedInlined@V<lambda_daf7099df2421951ce5dfc220ecbcb3c>@@@ParseContext@internal@protobuf@google@@QEAAPEBDPEBDAEBV<lambda_daf7099df2421951ce5dfc220ecbcb3c>@@@Z
	??$ParseLengthDelimitedInlined@V<lambda_e0f4f46bb8ff87c3d1d47eaac3af8c80>@@@ParseContext@internal@protobuf@google@@QEAAPEBDPEBDAEBV<lambda_e0f4f46bb8ff87c3d1d47eaac3af8c80>@@@Z
	??$ParseLengthDelimitedInlined@V<lambda_ef517ad6fdfa3fa56e26d0b9abcff24f>@@@ParseContext@internal@protobuf@google@@QEAAPEBDPEBDAEBV<lambda_ef517ad6fdfa3fa56e26d0b9abcff24f>@@@Z
	??$ParseMessageSet@VMessageLite@protobuf@google@@@ExtensionSet@internal@protobuf@google@@QEAAPEBDPEBDPEBVMessageLite@23@PEAVInternalMetadata@123@PEAVParseContext@123@@Z
	??$ParseMessageSetItemTmpl@VMessageLite@protobuf@google@@V?$basic_string@DU?$char_traits@D@std@@V?$allocator@D@2@@std@@@ExtensionSet@internal@protobuf@google@@AEAAPEBDPEBDPEBVMessageLite@23@PEAVInternalMetadata@123@PEAVParseContext@123@@Z
	??$Partial@$$V@?$LayoutWithStaticSizes@U?$integer_sequence@_K$S@std@@USerialArenaChunkHeader@internal@protobuf@google@@U?$atomic@PEAX@2@U?$atomic@PEAVSerialArena@internal@protobuf@google@@@2@@internal_layout@container_internal@lts_20250814@absl@@SA?AV?$LayoutImpl@V?$tuple@USerialArenaChunkHeader@internal@protobuf@google@@U?$atomic@PEAX@std@@U?$atomic@PEAVSerialArena@internal@protobuf@google@@@6@@std@@U?$integer_sequence@_K$S@2@U32@U32@U?$integer_sequence@_K$0A@@2@@1234@XZ
	??$PlacementNew@VMessageLite@protobuf@google@@@MessageCreator@internal@protobuf@google@@QEBAPEAVMessageLite@23@PEBV423@0PEAXPEAVArena@23@@Z
	??$Pointer@$00$$CBD@?$LayoutImpl@V?$tuple@PEAV?$btree_node@U?$map_params@HUExtension@ExtensionSet@internal@protobuf@google@@U?$less@H@std@@V?$allocator@U?$pair@$$CBHUExtension@ExtensionSet@internal@protobuf@google@@@std@@@7@$0BAA@$0A@@container_internal@lts_20250814@absl@@@container_internal@lts_20250814@absl@@IET?$map_slot_type@HUExtension@ExtensionSet@internal@protobuf@google@@@234@PEAV1234@@std@@U?$integer_sequence@_K$00$0A@$03$06$07@2@U?$integer_sequence@_K$S@2@U?$integer_sequence@_K$0A@$00$01$02$03@2@U52@@internal_layout@container_internal@lts_20250814@absl@@QEBAPEBIPEBD@Z
	??$Pointer@$00$$CBD@?$LayoutImpl@V?$tuple@PEAV?$btree_node@U?$map_params@UVariantKey@internal@protobuf@google@@PEAUNodeBase@234@U?$less@UVariantKey@internal@protobuf@google@@@std@@V?$MapAllocator@U?$pair@$$CBUVariantKey@internal@protobuf@google@@PEAUNodeBase@234@@std@@@234@$0BAA@$0A@@container_internal@lts_20250814@absl@@@container_internal@lts_20250814@absl@@IET?$map_slot_type@UVariantKey@internal@protobuf@google@@PEAUNodeBase@234@@234@PEAV1234@@std@@U?$integer_sequence@_K$00$0A@$03$09$0L@@2@U?$integer_sequence@_K$S@2@U?$integer_sequence@_K$0A@$00$01$02$03@2@U52@@internal_layout@container_internal@lts_20250814@absl@@QEBAPEBIPEBD@Z
	??$Pointer@$00$$CBD@?$LayoutImpl@V?$tuple@USerialArenaChunkHeader@internal@protobuf@google@@U?$atomic@PEAX@std@@U?$atomic@PEAVSerialArena@internal@protobuf@google@@@6@@std@@U?$integer_sequence@_K$S@2@U?$integer_sequence@_K$0A@$00$01@2@U42@U42@@internal_layout@container_internal@lts_20250814@absl@@QEBAPEBU?$atomic@PEAX@std@@PEBD@Z
	??$Pointer@$00D@?$LayoutImpl@V?$tuple@PEAV?$btree_node@U?$map_params@HUExtension@ExtensionSet@internal@protobuf@google@@U?$less@H@std@@V?$allocator@U?$pair@$$CBHUExtension@ExtensionSet@internal@protobuf@google@@@std@@@7@$0BAA@$0A@@container_internal@lts_20250814@absl@@@container_internal@lts_20250814@absl@@IET?$map_slot_type@HUExtension@ExtensionSet@internal@protobuf@google@@@234@PEAV1234@@std@@U?$integer_sequence@_K$00$0A@$03$06$07@2@U?$integer_sequence@_K$S@2@U?$integer_sequence@_K$0A@$00$01$02$03@2@U52@@internal_layout@container_internal@lts_20250814@absl@@QEBAPEAIPEAD@Z
	??$Pointer@$00D@?$LayoutImpl@V?$tuple@PEAV?$btree_node@U?$map_params@UVariantKey@internal@protobuf@google@@PEAUNodeBase@234@U?$less@UVariantKey@internal@protobuf@google@@@std@@V?$MapAllocator@U?$pair@$$CBUVariantKey@internal@protobuf@google@@PEAUNodeBase@234@@std@@@234@$0BAA@$0A@@container_internal@lts_20250814@absl@@@container_internal@lts_20250814@absl@@IET?$map_slot_type@UVariantKey@internal@protobuf@google@@PEAUNodeBase@234@@234@PEAV1234@@std@@U?$integer_sequence@_K$00$0A@$03$09$0L@@2@U?$integer_sequence@_K$S@2@U?$integer_sequence@_K$0A@$00$01$02$03@2@U52@@internal_layout@container_internal@lts_20250814@absl@@QEBAPEAIPEAD@Z
	??$Pointer@$00D@?$LayoutImpl@V?$tuple@USerialArenaChunkHeader@internal@protobuf@google@@U?$atomic@PEAX@std@@U?$atomic@PEAVSerialArena@internal@protobuf@google@@@6@@std@@U?$integer_sequence@_K$S@2@U?$integer_sequence@_K$0A@$00$01@2@U42@U42@@internal_layout@container_internal@lts_20250814@absl@@QEBAPEAU?$atomic@PEAX@std@@PEAD@Z
	??$Pointer@$01$$CBD@?$LayoutImpl@V?$tuple@PEAV?$btree_node@U?$map_params@HUExtension@ExtensionSet@internal@protobuf@google@@U?$less@H@std@@V?$allocator@U?$pair@$$CBHUExtension@ExtensionSet@internal@protobuf@google@@@std@@@7@$0BAA@$0A@@container_internal@lts_20250814@absl@@@container_internal@lts_20250814@absl@@IET?$map_slot_type@HUExtension@ExtensionSet@internal@protobuf@google@@@234@PEAV1234@@std@@U?$integer_sequence@_K$00$0A@$03$06$07@2@U?$integer_sequence@_K$S@2@U?$integer_sequence@_K$0A@$00$01$02$03@2@U52@@internal_layout@container_internal@lts_20250814@absl@@QEBAPEBEPEBD@Z
	??$Pointer@$01$$CBD@?$LayoutImpl@V?$tuple@PEAV?$btree_node@U?$map_params@UVariantKey@internal@protobuf@google@@PEAUNodeBase@234@U?$less@UVariantKey@internal@protobuf@google@@@std@@V?$MapAllocator@U?$pair@$$CBUVariantKey@internal@protobuf@google@@PEAUNodeBase@234@@std@@@234@$0BAA@$0A@@container_internal@lts_20250814@absl@@@container_internal@lts_20250814@absl@@IET?$map_slot_type@UVariantKey@internal@protobuf@google@@PEAUNodeBase@234@@234@PEAV1234@@std@@U?$integer_sequence@_K$00$0A@$03$09$0L@@2@U?$integer_sequence@_K$S@2@U?$integer_sequence@_K$0A@$00$01$02$03@2@U52@@internal_layout@container_internal@lts_20250814@absl@@QEBAPEBEPEBD@Z
	??$Pointer@$01$$CBD@?$LayoutImpl@V?$tuple@USerialArenaChunkHeader@internal@protobuf@google@@U?$atomic@PEAX@std@@U?$atomic@PEAVSerialArena@internal@protobuf@google@@@6@@std@@U?$integer_sequence@_K$S@2@U?$integer_sequence@_K$0A@$00$01@2@U42@U42@@internal_layout@container_internal@lts_20250814@absl@@QEBAPEBU?$atomic@PEAVSerialArena@internal@protobuf@google@@@std@@PEBD@Z
	??$Pointer@$01D@?$LayoutImpl@V?$tuple@PEAV?$btree_node@U?$map_params@HUExtension@ExtensionSet@internal@protobuf@google@@U?$less@H@std@@V?$allocator@U?$pair@$$CBHUExtension@ExtensionSet@internal@protobuf@google@@@std@@@7@$0BAA@$0A@@container_internal@lts_20250814@absl@@@container_internal@lts_20250814@absl@@IET?$map_slot_type@HUExtension@ExtensionSet@internal@protobuf@google@@@234@PEAV1234@@std@@U?$integer_sequence@_K$00$0A@$03$06$07@2@U?$integer_sequence@_K$S@2@U?$integer_sequence@_K$0A@$00$01$02$03@2@U52@@internal_layout@container_internal@lts_20250814@absl@@QEBAPEAEPEAD@Z
	??$Pointer@$01D@?$LayoutImpl@V?$tuple@PEAV?$btree_node@U?$map_params@UVariantKey@internal@protobuf@google@@PEAUNodeBase@234@U?$less@UVariantKey@internal@protobuf@google@@@std@@V?$MapAllocator@U?$pair@$$CBUVariantKey@internal@protobuf@google@@PEAUNodeBase@234@@std@@@234@$0BAA@$0A@@container_internal@lts_20250814@absl@@@container_internal@lts_20250814@absl@@IET?$map_slot_type@UVariantKey@internal@protobuf@google@@PEAUNodeBase@234@@234@PEAV1234@@std@@U?$integer_sequence@_K$00$0A@$03$09$0L@@2@U?$integer_sequence@_K$S@2@U?$integer_sequence@_K$0A@$00$01$02$03@2@U52@@internal_layout@container_internal@lts_20250814@absl@@QEBAPEAEPEAD@Z
	??$Pointer@$01D@?$LayoutImpl@V?$tuple@USerialArenaChunkHeader@internal@protobuf@google@@U?$atomic@PEAX@std@@U?$atomic@PEAVSerialArena@internal@protobuf@google@@@6@@std@@U?$integer_sequence@_K$S@2@U?$integer_sequence@_K$0A@$00$01@2@U42@U42@@internal_layout@container_internal@lts_20250814@absl@@QEBAPEAU?$atomic@PEAVSerialArena@internal@protobuf@google@@@std@@PEAD@Z
	??$Pointer@$02$$CBD@?$LayoutImpl@V?$tuple@PEAV?$btree_node@U?$map_params@HUExtension@ExtensionSet@internal@protobuf@google@@U?$less@H@std@@V?$allocator@U?$pair@$$CBHUExtension@ExtensionSet@internal@protobuf@google@@@std@@@7@$0BAA@$0A@@container_internal@lts_20250814@absl@@@container_internal@lts_20250814@absl@@IET?$map_slot_type@HUExtension@ExtensionSet@internal@protobuf@google@@@234@PEAV1234@@std@@U?$integer_sequence@_K$00$0A@$03$06$07@2@U?$integer_sequence@_K$S@2@U?$integer_sequence@_K$0A@$00$01$02$03@2@U52@@internal_layout@container_internal@lts_20250814@absl@@QEBAPEBT?$map_slot_type@HUExtension@ExtensionSet@internal@protobuf@google@@@234@PEBD@Z
	??$Pointer@$02$$CBD@?$LayoutImpl@V?$tuple@PEAV?$btree_node@U?$map_params@UVariantKey@internal@protobuf@google@@PEAUNodeBase@234@U?$less@UVariantKey@internal@protobuf@google@@@std@@V?$MapAllocator@U?$pair@$$CBUVariantKey@internal@protobuf@google@@PEAUNodeBase@234@@std@@@234@$0BAA@$0A@@container_internal@lts_20250814@absl@@@container_internal@lts_20250814@absl@@IET?$map_slot_type@UVariantKey@internal@protobuf@google@@PEAUNodeBase@234@@234@PEAV1234@@std@@U?$integer_sequence@_K$00$0A@$03$09$0L@@2@U?$integer_sequence@_K$S@2@U?$integer_sequence@_K$0A@$00$01$02$03@2@U52@@internal_layout@container_internal@lts_20250814@absl@@QEBAPEBT?$map_slot_type@UVariantKey@internal@protobuf@google@@PEAUNodeBase@234@@234@PEBD@Z
	??$Pointer@$02D@?$LayoutImpl@V?$tuple@PEAV?$btree_node@U?$map_params@HUExtension@ExtensionSet@internal@protobuf@google@@U?$less@H@std@@V?$allocator@U?$pair@$$CBHUExtension@ExtensionSet@internal@protobuf@google@@@std@@@7@$0BAA@$0A@@container_internal@lts_20250814@absl@@@container_internal@lts_20250814@absl@@IET?$map_slot_type@HUExtension@ExtensionSet@internal@protobuf@google@@@234@PEAV1234@@std@@U?$integer_sequence@_K$00$0A@$03$06$07@2@U?$integer_sequence@_K$S@2@U?$integer_sequence@_K$0A@$00$01$02$03@2@U52@@internal_layout@container_internal@lts_20250814@absl@@QEBAPEAT?$map_slot_type@HUExtension@ExtensionSet@internal@protobuf@google@@@234@PEAD@Z
	??$Pointer@$02D@?$LayoutImpl@V?$tuple@PEAV?$btree_node@U?$map_params@UVariantKey@internal@protobuf@google@@PEAUNodeBase@234@U?$less@UVariantKey@internal@protobuf@google@@@std@@V?$MapAllocator@U?$pair@$$CBUVariantKey@internal@protobuf@google@@PEAUNodeBase@234@@std@@@234@$0BAA@$0A@@container_internal@lts_20250814@absl@@@container_internal@lts_20250814@absl@@IET?$map_slot_type@UVariantKey@internal@protobuf@google@@PEAUNodeBase@234@@234@PEAV1234@@std@@U?$integer_sequence@_K$00$0A@$03$09$0L@@2@U?$integer_sequence@_K$S@2@U?$integer_sequence@_K$0A@$00$01$02$03@2@U52@@internal_layout@container_internal@lts_20250814@absl@@QEBAPEAT?$map_slot_type@UVariantKey@internal@protobuf@google@@PEAUNodeBase@234@@234@PEAD@Z
	??$Pointer@$03$$CBD@?$LayoutImpl@V?$tuple@PEAV?$btree_node@U?$map_params@HUExtension@ExtensionSet@internal@protobuf@google@@U?$less@H@std@@V?$allocator@U?$pair@$$CBHUExtension@ExtensionSet@internal@protobuf@google@@@std@@@7@$0BAA@$0A@@container_internal@lts_20250814@absl@@@container_internal@lts_20250814@absl@@IET?$map_slot_type@HUExtension@ExtensionSet@internal@protobuf@google@@@234@PEAV1234@@std@@U?$integer_sequence@_K$00$0A@$03$06$07@2@U?$integer_sequence@_K$S@2@U?$integer_sequence@_K$0A@$00$01$02$03@2@U52@@internal_layout@container_internal@lts_20250814@absl@@QEBAPEBQEAV?$btree_node@U?$map_params@HUExtension@ExtensionSet@internal@protobuf@google@@U?$less@H@std@@V?$allocator@U?$pair@$$CBHUExtension@ExtensionSet@internal@protobuf@google@@@std@@@7@$0BAA@$0A@@container_internal@lts_20250814@absl@@@234@PEBD@Z
	??$Pointer@$03$$CBD@?$LayoutImpl@V?$tuple@PEAV?$btree_node@U?$map_params@UVariantKey@internal@protobuf@google@@PEAUNodeBase@234@U?$less@UVariantKey@internal@protobuf@google@@@std@@V?$MapAllocator@U?$pair@$$CBUVariantKey@internal@protobuf@google@@PEAUNodeBase@234@@std@@@234@$0BAA@$0A@@container_internal@lts_20250814@absl@@@container_internal@lts_20250814@absl@@IET?$map_slot_type@UVariantKey@internal@protobuf@google@@PEAUNodeBase@234@@234@PEAV1234@@std@@U?$integer_sequence@_K$00$0A@$03$09$0L@@2@U?$integer_sequence@_K$S@2@U?$integer_sequence@_K$0A@$00$01$02$03@2@U52@@internal_layout@container_internal@lts_20250814@absl@@QEBAPEBQEAV?$btree_node@U?$map_params@UVariantKey@internal@protobuf@google@@PEAUNodeBase@234@U?$less@UVariantKey@internal@protobuf@google@@@std@@V?$MapAllocator@U?$pair@$$CBUVariantKey@internal@protobuf@google@@PEAUNodeBase@234@@std@@@234@$0BAA@$0A@@container_internal@lts_20250814@absl@@@234@PEBD@Z
	??$Pointer@$03D@?$LayoutImpl@V?$tuple@PEAV?$btree_node@U?$map_params@HUExtension@ExtensionSet@internal@protobuf@google@@U?$less@H@std@@V?$allocator@U?$pair@$$CBHUExtension@ExtensionSet@internal@protobuf@google@@@std@@@7@$0BAA@$0A@@container_internal@lts_20250814@absl@@@container_internal@lts_20250814@absl@@IET?$map_slot_type@HUExtension@ExtensionSet@internal@protobuf@google@@@234@PEAV1234@@std@@U?$integer_sequence@_K$00$0A@$03$06$07@2@U?$integer_sequence@_K$S@2@U?$integer_sequence@_K$0A@$00$01$02$03@2@U52@@internal_layout@container_internal@lts_20250814@absl@@QEBAPEAPEAV?$btree_node@U?$map_params@HUExtension@ExtensionSet@internal@protobuf@google@@U?$less@H@std@@V?$allocator@U?$pair@$$CBHUExtension@ExtensionSet@internal@protobuf@google@@@std@@@7@$0BAA@$0A@@container_internal@lts_20250814@absl@@@234@PEAD@Z
	??$Pointer@$03D@?$LayoutImpl@V?$tuple@PEAV?$btree_node@U?$map_params@UVariantKey@internal@protobuf@google@@PEAUNodeBase@234@U?$less@UVariantKey@internal@protobuf@google@@@std@@V?$MapAllocator@U?$pair@$$CBUVariantKey@internal@protobuf@google@@PEAUNodeBase@234@@std@@@234@$0BAA@$0A@@container_internal@lts_20250814@absl@@@container_internal@lts_20250814@absl@@IET?$map_slot_type@UVariantKey@internal@protobuf@google@@PEAUNodeBase@234@@234@PEAV1234@@std@@U?$integer_sequence@_K$00$0A@$03$09$0L@@2@U?$integer_sequence@_K$S@2@U?$integer_sequence@_K$0A@$00$01$02$03@2@U52@@internal_layout@container_internal@lts_20250814@absl@@QEBAPEAPEAV?$btree_node@U?$map_params@UVariantKey@internal@protobuf@google@@PEAUNodeBase@234@U?$less@UVariantKey@internal@protobuf@google@@@std@@V?$MapAllocator@U?$pair@$$CBUVariantKey@internal@protobuf@google@@PEAUNodeBase@234@@std@@@234@$0BAA@$0A@@container_internal@lts_20250814@absl@@@234@PEAD@Z
	??$Pointer@$0A@$$CBD@?$LayoutImpl@V?$tuple@PEAV?$btree_node@U?$map_params@HUExtension@ExtensionSet@internal@protobuf@google@@U?$less@H@std@@V?$allocator@U?$pair@$$CBHUExtension@ExtensionSet@internal@protobuf@google@@@std@@@7@$0BAA@$0A@@container_internal@lts_20250814@absl@@@container_internal@lts_20250814@absl@@IET?$map_slot_type@HUExtension@ExtensionSet@internal@protobuf@google@@@234@PEAV1234@@std@@U?$integer_sequence@_K$00$0A@$03$06$07@2@U?$integer_sequence@_K$S@2@U?$integer_sequence@_K$0A@$00$01$02$03@2@U52@@internal_layout@container_internal@lts_20250814@absl@@QEBAPEBQEAV?$btree_node@U?$map_params@HUExtension@ExtensionSet@internal@protobuf@google@@U?$less@H@std@@V?$allocator@U?$pair@$$CBHUExtension@ExtensionSet@internal@protobuf@google@@@std@@@7@$0BAA@$0A@@container_internal@lts_20250814@absl@@@234@PEBD@Z
	??$Pointer@$0A@$$CBD@?$LayoutImpl@V?$tuple@PEAV?$btree_node@U?$map_params@UVariantKey@internal@protobuf@google@@PEAUNodeBase@234@U?$less@UVariantKey@internal@protobuf@google@@@std@@V?$MapAllocator@U?$pair@$$CBUVariantKey@internal@protobuf@google@@PEAUNodeBase@234@@std@@@234@$0BAA@$0A@@container_internal@lts_20250814@absl@@@container_internal@lts_20250814@absl@@IET?$map_slot_type@UVariantKey@internal@protobuf@google@@PEAUNodeBase@234@@234@PEAV1234@@std@@U?$integer_sequence@_K$00$0A@$03$09$0L@@2@U?$integer_sequence@_K$S@2@U?$integer_sequence@_K$0A@$00$01$02$03@2@U52@@internal_layout@container_internal@lts_20250814@absl@@QEBAPEBQEAV?$btree_node@U?$map_params@UVariantKey@internal@protobuf@google@@PEAUNodeBase@234@U?$less@UVariantKey@internal@protobuf@google@@@std@@V?$MapAllocator@U?$pair@$$CBUVariantKey@internal@protobuf@google@@PEAUNodeBase@234@@std@@@234@$0BAA@$0A@@container_internal@lts_20250814@absl@@@234@PEBD@Z
	??$Pointer@$0A@$$CBD@?$LayoutImpl@V?$tuple@USerialArenaChunkHeader@internal@protobuf@google@@U?$atomic@PEAX@std@@U?$atomic@PEAVSerialArena@internal@protobuf@google@@@6@@std@@U?$integer_sequence@_K$S@2@U32@U32@U?$integer_sequence@_K$0A@@2@@internal_layout@container_internal@lts_20250814@absl@@QEBAPEBUSerialArenaChunkHeader@internal@protobuf@google@@PEBD@Z
	??$Pointer@$0A@D@?$LayoutImpl@V?$tuple@PEAV?$btree_node@U?$map_params@HUExtension@ExtensionSet@internal@protobuf@google@@U?$less@H@std@@V?$allocator@U?$pair@$$CBHUExtension@ExtensionSet@internal@protobuf@google@@@std@@@7@$0BAA@$0A@@container_internal@lts_20250814@absl@@@container_internal@lts_20250814@absl@@IET?$map_slot_type@HUExtension@ExtensionSet@internal@protobuf@google@@@234@PEAV1234@@std@@U?$integer_sequence@_K$00$0A@$03$06$07@2@U?$integer_sequence@_K$S@2@U?$integer_sequence@_K$0A@$00$01$02$03@2@U52@@internal_layout@container_internal@lts_20250814@absl@@QEBAPEAPEAV?$btree_node@U?$map_params@HUExtension@ExtensionSet@internal@protobuf@google@@U?$less@H@std@@V?$allocator@U?$pair@$$CBHUExtension@ExtensionSet@internal@protobuf@google@@@std@@@7@$0BAA@$0A@@container_internal@lts_20250814@absl@@@234@PEAD@Z
	??$Pointer@$0A@D@?$LayoutImpl@V?$tuple@PEAV?$btree_node@U?$map_params@UVariantKey@internal@protobuf@google@@PEAUNodeBase@234@U?$less@UVariantKey@internal@protobuf@google@@@std@@V?$MapAllocator@U?$pair@$$CBUVariantKey@internal@protobuf@google@@PEAUNodeBase@234@@std@@@234@$0BAA@$0A@@container_internal@lts_20250814@absl@@@container_internal@lts_20250814@absl@@IET?$map_slot_type@UVariantKey@internal@protobuf@google@@PEAUNodeBase@234@@234@PEAV1234@@std@@U?$integer_sequence@_K$00$0A@$03$09$0L@@2@U?$integer_sequence@_K$S@2@U?$integer_sequence@_K$0A@$00$01$02$03@2@U52@@internal_layout@container_internal@lts_20250814@absl@@QEBAPEAPEAV?$btree_node@U?$map_params@UVariantKey@internal@protobuf@google@@PEAUNodeBase@234@U?$less@UVariantKey@internal@protobuf@google@@@std@@V?$MapAllocator@U?$pair@$$CBUVariantKey@internal@protobuf@google@@PEAUNodeBase@234@@std@@@234@$0BAA@$0A@@container_internal@lts_20250814@absl@@@234@PEAD@Z
	??$Pointer@$0A@D@?$LayoutImpl@V?$tuple@USerialArenaChunkHeader@internal@protobuf@google@@U?$atomic@PEAX@std@@U?$atomic@PEAVSerialArena@internal@protobuf@google@@@6@@std@@U?$integer_sequence@_K$S@2@U32@U32@U?$integer_sequence@_K$0A@@2@@internal_layout@container_internal@lts_20250814@absl@@QEBAPEAUSerialArenaChunkHeader@internal@protobuf@google@@PEAD@Z
	??$Pointer@$0A@D@?$LayoutImpl@V?$tuple@USerialArenaChunkHeader@internal@protobuf@google@@U?$atomic@PEAX@std@@U?$atomic@PEAVSerialArena@internal@protobuf@google@@@6@@std@@U?$integer_sequence@_K$S@2@U?$integer_sequence@_K$0A@$00$01@2@U42@U42@@internal_layout@container_internal@lts_20250814@absl@@QEBAPEAUSerialArenaChunkHeader@internal@protobuf@google@@PEAD@Z
	??$Popcount@I@numeric_internal@lts_20250814@absl@@YAHI@Z
	??$PtrValue@U?$Container@V?$basic_string@DU?$char_traits@D@std@@V?$allocator@D@2@@std@@@InternalMetadata@internal@protobuf@google@@@InternalMetadata@internal@protobuf@google@@AEBAPEAU?$Container@V?$basic_string@DU?$char_traits@D@std@@V?$allocator@D@2@@std@@@0123@XZ
	??$PtrValue@UContainerBase@InternalMetadata@internal@protobuf@google@@@InternalMetadata@internal@protobuf@google@@AEBAPEAUContainerBase@0123@XZ
	??$PtrValue@VArena@protobuf@google@@@InternalMetadata@internal@protobuf@google@@AEBAPEAVArena@23@XZ
	??$ReadFixed@I@internal@protobuf@google@@YAPEBDPEAXPEBD@Z
	??$ReadFixed@_K@internal@protobuf@google@@YAPEBDPEAXPEBD@Z
	??$ReadKey@I$0A@@internal@protobuf@google@@YAIPEBX@Z
	??$ReadKey@V?$basic_string@DU?$char_traits@D@std@@V?$allocator@D@2@@std@@$0A@@internal@protobuf@google@@YAAEBV?$basic_string@DU?$char_traits@D@std@@V?$allocator@D@2@@std@@PEBX@Z
	??$ReadKey@_K$0A@@internal@protobuf@google@@YA_KPEBX@Z
	??$ReadKey@_N$0A@@internal@protobuf@google@@YA_NPEBX@Z
	??$ReadPackedFixed@H@EpsCopyInputStream@internal@protobuf@google@@QEAAPEBDPEBDHPEAV?$RepeatedField@H@23@@Z
	??$ReadPackedFixed@I@EpsCopyInputStream@internal@protobuf@google@@QEAAPEBDPEBDHPEAV?$RepeatedField@I@23@@Z
	??$ReadPackedFixed@M@EpsCopyInputStream@internal@protobuf@google@@QEAAPEBDPEBDHPEAV?$RepeatedField@M@23@@Z
	??$ReadPackedFixed@N@EpsCopyInputStream@internal@protobuf@google@@QEAAPEBDPEBDHPEAV?$RepeatedField@N@23@@Z
	??$ReadPackedFixed@_J@EpsCopyInputStream@internal@protobuf@google@@QEAAPEBDPEBDHPEAV?$RepeatedField@_J@23@@Z
	??$ReadPackedFixed@_K@EpsCopyInputStream@internal@protobuf@google@@QEAAPEBDPEBDHPEAV?$RepeatedField@_K@23@@Z
	??$ReadPackedVarint@V<lambda_01993fb64a5a4d9f6090d07df1028286>@@V<lambda_93fd0b36dc7b3aa3f1fb959c473a9824>@@@EpsCopyInputStream@internal@protobuf@google@@QEAAPEBDPEBDV<lambda_01993fb64a5a4d9f6090d07df1028286>@@V<lambda_93fd0b36dc7b3aa3f1fb959c473a9824>@@@Z
	??$ReadPackedVarint@V<lambda_1bdc89708c1d7039fca01a17d2b8a00a>@@V<lambda_0a17454eb26ad3ca4881a89495b21358>@@@EpsCopyInputStream@internal@protobuf@google@@QEAAPEBDPEBDV<lambda_1bdc89708c1d7039fca01a17d2b8a00a>@@V<lambda_0a17454eb26ad3ca4881a89495b21358>@@@Z
	??$ReadPackedVarint@V<lambda_20fc97f296369ec854e7f9a00e55273d>@@@EpsCopyInputStream@internal@protobuf@google@@QEAAPEBDPEBDV<lambda_20fc97f296369ec854e7f9a00e55273d>@@@Z
	??$ReadPackedVarint@V<lambda_20fc97f296369ec854e7f9a00e55273d>@@V<lambda_b74dda8435d6b8177ed9f735d87b4ef6>@@@EpsCopyInputStream@internal@protobuf@google@@QEAAPEBDPEBDV<lambda_20fc97f296369ec854e7f9a00e55273d>@@V<lambda_b74dda8435d6b8177ed9f735d87b4ef6>@@@Z
	??$ReadPackedVarint@V<lambda_2445345cb3b134d170e8ee193f099e7d>@@@EpsCopyInputStream@internal@protobuf@google@@QEAAPEBDPEBDV<lambda_2445345cb3b134d170e8ee193f099e7d>@@@Z
	??$ReadPackedVarint@V<lambda_2445345cb3b134d170e8ee193f099e7d>@@V<lambda_11a29b81767152c225b979eba2c8cd3c>@@@EpsCopyInputStream@internal@protobuf@google@@QEAAPEBDPEBDV<lambda_2445345cb3b134d170e8ee193f099e7d>@@V<lambda_11a29b81767152c225b979eba2c8cd3c>@@@Z
	??$ReadPackedVarint@V<lambda_29269e4da0651b3b63322f205033dcb5>@@@EpsCopyInputStream@internal@protobuf@google@@QEAAPEBDPEBDV<lambda_29269e4da0651b3b63322f205033dcb5>@@@Z
	??$ReadPackedVarint@V<lambda_29269e4da0651b3b63322f205033dcb5>@@V<lambda_bc373d2f899364672c65bdc783b4fe45>@@@EpsCopyInputStream@internal@protobuf@google@@QEAAPEBDPEBDV<lambda_29269e4da0651b3b63322f205033dcb5>@@V<lambda_bc373d2f899364672c65bdc783b4fe45>@@@Z
	??$ReadPackedVarint@V<lambda_2d7af22e5ebd5f20033ec6ad83f4ac1f>@@@EpsCopyInputStream@internal@protobuf@google@@QEAAPEBDPEBDV<lambda_2d7af22e5ebd5f20033ec6ad83f4ac1f>@@@Z
	??$ReadPackedVarint@V<lambda_2d7af22e5ebd5f20033ec6ad83f4ac1f>@@V<lambda_38a8ea39bdbbc031b86a26f3b353cabb>@@@EpsCopyInputStream@internal@protobuf@google@@QEAAPEBDPEBDV<lambda_2d7af22e5ebd5f20033ec6ad83f4ac1f>@@V<lambda_38a8ea39bdbbc031b86a26f3b353cabb>@@@Z
	??$ReadPackedVarint@V<lambda_3267ffa27fc3fe5db7c84558ad95b635>@@@EpsCopyInputStream@internal@protobuf@google@@QEAAPEBDPEBDV<lambda_3267ffa27fc3fe5db7c84558ad95b635>@@@Z
	??$ReadPackedVarint@V<lambda_3267ffa27fc3fe5db7c84558ad95b635>@@V<lambda_0caaa895df40553b26d2a29be08a6eca>@@@EpsCopyInputStream@internal@protobuf@google@@QEAAPEBDPEBDV<lambda_3267ffa27fc3fe5db7c84558ad95b635>@@V<lambda_0caaa895df40553b26d2a29be08a6eca>@@@Z
	??$ReadPackedVarint@V<lambda_3282e944be5788bbd6f6ff617f4d6d63>@@V<lambda_060cb8719f3b35d6742444452c63ae6e>@@@EpsCopyInputStream@internal@protobuf@google@@QEAAPEBDPEBDV<lambda_3282e944be5788bbd6f6ff617f4d6d63>@@V<lambda_060cb8719f3b35d6742444452c63ae6e>@@@Z
	??$ReadPackedVarint@V<lambda_344b48dec27cdc14061be2d27443ee2d>@@V<lambda_7d488e22d6367ff488d3c298eec1f328>@@@EpsCopyInputStream@internal@protobuf@google@@QEAAPEBDPEBDV<lambda_344b48dec27cdc14061be2d27443ee2d>@@V<lambda_7d488e22d6367ff488d3c298eec1f328>@@@Z
	??$ReadPackedVarint@V<lambda_3a41b6b9138eaf6088bfa6fcb8a495b5>@@@EpsCopyInputStream@internal@protobuf@google@@QEAAPEBDPEBDV<lambda_3a41b6b9138eaf6088bfa6fcb8a495b5>@@@Z
	??$ReadPackedVarint@V<lambda_3a41b6b9138eaf6088bfa6fcb8a495b5>@@V<lambda_9cdaf0a3f419cd9121bd9528ac60f572>@@@EpsCopyInputStream@internal@protobuf@google@@QEAAPEBDPEBDV<lambda_3a41b6b9138eaf6088bfa6fcb8a495b5>@@V<lambda_9cdaf0a3f419cd9121bd9528ac60f572>@@@Z
	??$ReadPackedVarint@V<lambda_4a870f6fe8f1a3b39ec2f37a4e0055dc>@@@EpsCopyInputStream@internal@protobuf@google@@QEAAPEBDPEBDV<lambda_4a870f6fe8f1a3b39ec2f37a4e0055dc>@@@Z
	??$ReadPackedVarint@V<lambda_4a870f6fe8f1a3b39ec2f37a4e0055dc>@@V<lambda_aac63d287c36a803ddd0ac4a16dbf453>@@@EpsCopyInputStream@internal@protobuf@google@@QEAAPEBDPEBDV<lambda_4a870f6fe8f1a3b39ec2f37a4e0055dc>@@V<lambda_aac63d287c36a803ddd0ac4a16dbf453>@@@Z
	??$ReadPackedVarint@V<lambda_56706089f2db943f5c231477db751bbb>@@@EpsCopyInputStream@internal@protobuf@google@@QEAAPEBDPEBDV<lambda_56706089f2db943f5c231477db751bbb>@@@Z
	??$ReadPackedVarint@V<lambda_56706089f2db943f5c231477db751bbb>@@V<lambda_7ee68164e158f09abd6c494c002439dc>@@@EpsCopyInputStream@internal@protobuf@google@@QEAAPEBDPEBDV<lambda_56706089f2db943f5c231477db751bbb>@@V<lambda_7ee68164e158f09abd6c494c002439dc>@@@Z
	??$ReadPackedVarint@V<lambda_5913a0a216c6cc9bf25d83d8274b30de>@@@EpsCopyInputStream@internal@protobuf@google@@QEAAPEBDPEBDV<lambda_5913a0a216c6cc9bf25d83d8274b30de>@@@Z
	??$ReadPackedVarint@V<lambda_5913a0a216c6cc9bf25d83d8274b30de>@@V<lambda_40305727ed39fc47edf8cf2d48cad42e>@@@EpsCopyInputStream@internal@protobuf@google@@QEAAPEBDPEBDV<lambda_5913a0a216c6cc9bf25d83d8274b30de>@@V<lambda_40305727ed39fc47edf8cf2d48cad42e>@@@Z
	??$ReadPackedVarint@V<lambda_687625cb49a646587c70a61ffe493256>@@@EpsCopyInputStream@internal@protobuf@google@@QEAAPEBDPEBDV<lambda_687625cb49a646587c70a61ffe493256>@@@Z
	??$ReadPackedVarint@V<lambda_687625cb49a646587c70a61ffe493256>@@V<lambda_59e98d7f3db0cfa8568df6413c8702d0>@@@EpsCopyInputStream@internal@protobuf@google@@QEAAPEBDPEBDV<lambda_687625cb49a646587c70a61ffe493256>@@V<lambda_59e98d7f3db0cfa8568df6413c8702d0>@@@Z
	??$ReadPackedVarint@V<lambda_688f9f240652acb48bc908f1fd9e65fe>@@@EpsCopyInputStream@internal@protobuf@google@@QEAAPEBDPEBDV<lambda_688f9f240652acb48bc908f1fd9e65fe>@@@Z
	??$ReadPackedVarint@V<lambda_688f9f240652acb48bc908f1fd9e65fe>@@V<lambda_97899208d278629020700f4128e3ad13>@@@EpsCopyInputStream@internal@protobuf@google@@QEAAPEBDPEBDV<lambda_688f9f240652acb48bc908f1fd9e65fe>@@V<lambda_97899208d278629020700f4128e3ad13>@@@Z
	??$ReadPackedVarint@V<lambda_69962c3e6e3604826fbe0c504e3195e7>@@@EpsCopyInputStream@internal@protobuf@google@@QEAAPEBDPEBDV<lambda_69962c3e6e3604826fbe0c504e3195e7>@@@Z
	??$ReadPackedVarint@V<lambda_69962c3e6e3604826fbe0c504e3195e7>@@V<lambda_7b054f431d863b60f554e010a98926c6>@@@EpsCopyInputStream@internal@protobuf@google@@QEAAPEBDPEBDV<lambda_69962c3e6e3604826fbe0c504e3195e7>@@V<lambda_7b054f431d863b60f554e010a98926c6>@@@Z
	??$ReadPackedVarint@V<lambda_76ea2e29230eb483d285aaf85a7cfc45>@@@EpsCopyInputStream@internal@protobuf@google@@QEAAPEBDPEBDV<lambda_76ea2e29230eb483d285aaf85a7cfc45>@@@Z
	??$ReadPackedVarint@V<lambda_76ea2e29230eb483d285aaf85a7cfc45>@@V<lambda_73e0bef215c4ef6a5fa0eb1f75559a46>@@@EpsCopyInputStream@internal@protobuf@google@@QEAAPEBDPEBDV<lambda_76ea2e29230eb483d285aaf85a7cfc45>@@V<lambda_73e0bef215c4ef6a5fa0eb1f75559a46>@@@Z
	??$ReadPackedVarint@V<lambda_773f5919cf44aae79d1e958d8242bcd8>@@@EpsCopyInputStream@internal@protobuf@google@@QEAAPEBDPEBDV<lambda_773f5919cf44aae79d1e958d8242bcd8>@@@Z
	??$ReadPackedVarint@V<lambda_773f5919cf44aae79d1e958d8242bcd8>@@V<lambda_774730c11d73f651c368531d675a5e0c>@@@EpsCopyInputStream@internal@protobuf@google@@QEAAPEBDPEBDV<lambda_773f5919cf44aae79d1e958d8242bcd8>@@V<lambda_774730c11d73f651c368531d675a5e0c>@@@Z
	??$ReadPackedVarint@V<lambda_8db14505531f29b22d9248dfae1e557c>@@@EpsCopyInputStream@internal@protobuf@google@@QEAAPEBDPEBDV<lambda_8db14505531f29b22d9248dfae1e557c>@@@Z
	??$ReadPackedVarint@V<lambda_8db14505531f29b22d9248dfae1e557c>@@V<lambda_d03bccf3df2ea86ce4d416aedb44d3e3>@@@EpsCopyInputStream@internal@protobuf@google@@QEAAPEBDPEBDV<lambda_8db14505531f29b22d9248dfae1e557c>@@V<lambda_d03bccf3df2ea86ce4d416aedb44d3e3>@@@Z
	??$ReadPackedVarint@V<lambda_8f4a6724318af91ad63d8b06a96c23dd>@@@EpsCopyInputStream@internal@protobuf@google@@QEAAPEBDPEBDV<lambda_8f4a6724318af91ad63d8b06a96c23dd>@@@Z
	??$ReadPackedVarint@V<lambda_8f4a6724318af91ad63d8b06a96c23dd>@@V<lambda_6fc4ed2b69a12f244277cc3cc629138e>@@@EpsCopyInputStream@internal@protobuf@google@@QEAAPEBDPEBDV<lambda_8f4a6724318af91ad63d8b06a96c23dd>@@V<lambda_6fc4ed2b69a12f244277cc3cc629138e>@@@Z
	??$ReadPackedVarint@V<lambda_90207a78d3af128c0226f3e131931265>@@@EpsCopyInputStream@internal@protobuf@google@@QEAAPEBDPEBDV<lambda_90207a78d3af128c0226f3e131931265>@@@Z
	??$ReadPackedVarint@V<lambda_90207a78d3af128c0226f3e131931265>@@V<lambda_bfdac58974ffad1e4513382d891d3108>@@@EpsCopyInputStream@internal@protobuf@google@@QEAAPEBDPEBDV<lambda_90207a78d3af128c0226f3e131931265>@@V<lambda_bfdac58974ffad1e4513382d891d3108>@@@Z
	??$ReadPackedVarint@V<lambda_9276b8ca891fa7cab99d2a4fd19fd7c2>@@@EpsCopyInputStream@internal@protobuf@google@@QEAAPEBDPEBDV<lambda_9276b8ca891fa7cab99d2a4fd19fd7c2>@@@Z
	??$ReadPackedVarint@V<lambda_9276b8ca891fa7cab99d2a4fd19fd7c2>@@V<lambda_4c5a953e899c1310b50acfc8793fcc57>@@@EpsCopyInputStream@internal@protobuf@google@@QEAAPEBDPEBDV<lambda_9276b8ca891fa7cab99d2a4fd19fd7c2>@@V<lambda_4c5a953e899c1310b50acfc8793fcc57>@@@Z
	??$ReadPackedVarint@V<lambda_985790ef0324caf54e08b468ee57007b>@@@EpsCopyInputStream@internal@protobuf@google@@QEAAPEBDPEBDV<lambda_985790ef0324caf54e08b468ee57007b>@@@Z
	??$ReadPackedVarint@V<lambda_985790ef0324caf54e08b468ee57007b>@@V<lambda_e8b577676a89ecdfee75b0f2fd3fcea9>@@@EpsCopyInputStream@internal@protobuf@google@@QEAAPEBDPEBDV<lambda_985790ef0324caf54e08b468ee57007b>@@V<lambda_e8b577676a89ecdfee75b0f2fd3fcea9>@@@Z
	??$ReadPackedVarint@V<lambda_99208e051c8b9692164df376a8eac8d0>@@@EpsCopyInputStream@internal@protobuf@google@@QEAAPEBDPEBDV<lambda_99208e051c8b9692164df376a8eac8d0>@@@Z
	??$ReadPackedVarint@V<lambda_99208e051c8b9692164df376a8eac8d0>@@V<lambda_c2350480896e6a46b08ade0ae532fac1>@@@EpsCopyInputStream@internal@protobuf@google@@QEAAPEBDPEBDV<lambda_99208e051c8b9692164df376a8eac8d0>@@V<lambda_c2350480896e6a46b08ade0ae532fac1>@@@Z
	??$ReadPackedVarint@V<lambda_a2da1d8b6da681dfa74ee1215fb5eb0e>@@@EpsCopyInputStream@internal@protobuf@google@@QEAAPEBDPEBDV<lambda_a2da1d8b6da681dfa74ee1215fb5eb0e>@@@Z
	??$ReadPackedVarint@V<lambda_a2da1d8b6da681dfa74ee1215fb5eb0e>@@V<lambda_40364c0b8942aee25e96aff2a2c8eed0>@@@EpsCopyInputStream@internal@protobuf@google@@QEAAPEBDPEBDV<lambda_a2da1d8b6da681dfa74ee1215fb5eb0e>@@V<lambda_40364c0b8942aee25e96aff2a2c8eed0>@@@Z
	??$ReadPackedVarint@V<lambda_a9368c56e09f74629d59748b33242c07>@@@EpsCopyInputStream@internal@protobuf@google@@QEAAPEBDPEBDV<lambda_a9368c56e09f74629d59748b33242c07>@@@Z
	??$ReadPackedVarint@V<lambda_a9368c56e09f74629d59748b33242c07>@@V<lambda_d62fdec842a992716682f45a7ae13158>@@@EpsCopyInputStream@internal@protobuf@google@@QEAAPEBDPEBDV<lambda_a9368c56e09f74629d59748b33242c07>@@V<lambda_d62fdec842a992716682f45a7ae13158>@@@Z
	??$ReadPackedVarint@V<lambda_b8353ada37acf7b400661bb3b16393ca>@@@EpsCopyInputStream@internal@protobuf@google@@QEAAPEBDPEBDV<lambda_b8353ada37acf7b400661bb3b16393ca>@@@Z
	??$ReadPackedVarint@V<lambda_b8353ada37acf7b400661bb3b16393ca>@@V<lambda_adc1777cfee8e177e6705745cb8de00e>@@@EpsCopyInputStream@internal@protobuf@google@@QEAAPEBDPEBDV<lambda_b8353ada37acf7b400661bb3b16393ca>@@V<lambda_adc1777cfee8e177e6705745cb8de00e>@@@Z
	??$ReadPackedVarint@V<lambda_ba2455bc7e35bc75f3f20742f39a63ca>@@@EpsCopyInputStream@internal@protobuf@google@@QEAAPEBDPEBDV<lambda_ba2455bc7e35bc75f3f20742f39a63ca>@@@Z
	??$ReadPackedVarint@V<lambda_ba2455bc7e35bc75f3f20742f39a63ca>@@V<lambda_0c0bfa0b4d757d4521a34cc43c6820fa>@@@EpsCopyInputStream@internal@protobuf@google@@QEAAPEBDPEBDV<lambda_ba2455bc7e35bc75f3f20742f39a63ca>@@V<lambda_0c0bfa0b4d757d4521a34cc43c6820fa>@@@Z
	??$ReadPackedVarint@V<lambda_bd3d48c2a33e8e6ea8068f3437dd9b3a>@@@EpsCopyInputStream@internal@protobuf@google@@QEAAPEBDPEBDV<lambda_bd3d48c2a33e8e6ea8068f3437dd9b3a>@@@Z
	??$ReadPackedVarint@V<lambda_bd3d48c2a33e8e6ea8068f3437dd9b3a>@@V<lambda_53d7ae36c317bf761ba45feb7836cce5>@@@EpsCopyInputStream@internal@protobuf@google@@QEAAPEBDPEBDV<lambda_bd3d48c2a33e8e6ea8068f3437dd9b3a>@@V<lambda_53d7ae36c317bf761ba45feb7836cce5>@@@Z
	??$ReadPackedVarint@V<lambda_c531273016d54617ecd2db18e300b927>@@@EpsCopyInputStream@internal@protobuf@google@@QEAAPEBDPEBDV<lambda_c531273016d54617ecd2db18e300b927>@@@Z
	??$ReadPackedVarint@V<lambda_c531273016d54617ecd2db18e300b927>@@V<lambda_c8af3ac7ca5e47700ca91742334a2bcf>@@@EpsCopyInputStream@internal@protobuf@google@@QEAAPEBDPEBDV<lambda_c531273016d54617ecd2db18e300b927>@@V<lambda_c8af3ac7ca5e47700ca91742334a2bcf>@@@Z
	??$ReadPackedVarint@V<lambda_cd4ed5a214b293587376bc908a979119>@@@EpsCopyInputStream@internal@protobuf@google@@QEAAPEBDPEBDV<lambda_cd4ed5a214b293587376bc908a979119>@@@Z
	??$ReadPackedVarint@V<lambda_cd4ed5a214b293587376bc908a979119>@@V<lambda_d2623f7c9680a7fd7fea278d93a3b21a>@@@EpsCopyInputStream@internal@protobuf@google@@QEAAPEBDPEBDV<lambda_cd4ed5a214b293587376bc908a979119>@@V<lambda_d2623f7c9680a7fd7fea278d93a3b21a>@@@Z
	??$ReadPackedVarint@V<lambda_ce452539e7cc73dd758c11a649c90074>@@@EpsCopyInputStream@internal@protobuf@google@@QEAAPEBDPEBDV<lambda_ce452539e7cc73dd758c11a649c90074>@@@Z
	??$ReadPackedVarint@V<lambda_ce452539e7cc73dd758c11a649c90074>@@V<lambda_0485f7f21814310aac33a8c60f876576>@@@EpsCopyInputStream@internal@protobuf@google@@QEAAPEBDPEBDV<lambda_ce452539e7cc73dd758c11a649c90074>@@V<lambda_0485f7f21814310aac33a8c60f876576>@@@Z
	??$ReadPackedVarint@V<lambda_ce90238e12da7bd26285b9b9306af970>@@@EpsCopyInputStream@internal@protobuf@google@@QEAAPEBDPEBDV<lambda_ce90238e12da7bd26285b9b9306af970>@@@Z
	??$ReadPackedVarint@V<lambda_ce90238e12da7bd26285b9b9306af970>@@V<lambda_69c363f91fc93fa6031dfc9dff0c8616>@@@EpsCopyInputStream@internal@protobuf@google@@QEAAPEBDPEBDV<lambda_ce90238e12da7bd26285b9b9306af970>@@V<lambda_69c363f91fc93fa6031dfc9dff0c8616>@@@Z
	??$ReadPackedVarint@V<lambda_d5baf509037050391fd8ab3077cb1df8>@@@EpsCopyInputStream@internal@protobuf@google@@QEAAPEBDPEBDV<lambda_d5baf509037050391fd8ab3077cb1df8>@@@Z
	??$ReadPackedVarint@V<lambda_d5baf509037050391fd8ab3077cb1df8>@@V<lambda_205c5c8976eff8e150c77a3a21a3bb31>@@@EpsCopyInputStream@internal@protobuf@google@@QEAAPEBDPEBDV<lambda_d5baf509037050391fd8ab3077cb1df8>@@V<lambda_205c5c8976eff8e150c77a3a21a3bb31>@@@Z
	??$ReadPackedVarint@V<lambda_d8a5a68100ae2a0b7936eabfebd4ef1d>@@@EpsCopyInputStream@internal@protobuf@google@@QEAAPEBDPEBDV<lambda_d8a5a68100ae2a0b7936eabfebd4ef1d>@@@Z
	??$ReadPackedVarint@V<lambda_d8a5a68100ae2a0b7936eabfebd4ef1d>@@V<lambda_320bc4ada3f9773e823b86b57085fe23>@@@EpsCopyInputStream@internal@protobuf@google@@QEAAPEBDPEBDV<lambda_d8a5a68100ae2a0b7936eabfebd4ef1d>@@V<lambda_320bc4ada3f9773e823b86b57085fe23>@@@Z
	??$ReadPackedVarint@V<lambda_da0199c1170b6120d2ab17c710d42821>@@@EpsCopyInputStream@internal@protobuf@google@@QEAAPEBDPEBDV<lambda_da0199c1170b6120d2ab17c710d42821>@@@Z
	??$ReadPackedVarint@V<lambda_da0199c1170b6120d2ab17c710d42821>@@V<lambda_b4f578e0eb3ef070154cd85761933e8c>@@@EpsCopyInputStream@internal@protobuf@google@@QEAAPEBDPEBDV<lambda_da0199c1170b6120d2ab17c710d42821>@@V<lambda_b4f578e0eb3ef070154cd85761933e8c>@@@Z
	??$ReadPackedVarint@V<lambda_dc35cefdd5e42ae9b01c9ffc0289c69c>@@@EpsCopyInputStream@internal@protobuf@google@@QEAAPEBDPEBDV<lambda_dc35cefdd5e42ae9b01c9ffc0289c69c>@@@Z
	??$ReadPackedVarint@V<lambda_dc35cefdd5e42ae9b01c9ffc0289c69c>@@V<lambda_a6a299b71482a00277dd7df9c0a781df>@@@EpsCopyInputStream@internal@protobuf@google@@QEAAPEBDPEBDV<lambda_dc35cefdd5e42ae9b01c9ffc0289c69c>@@V<lambda_a6a299b71482a00277dd7df9c0a781df>@@@Z
	??$ReadPackedVarint@V<lambda_def1b18c26bd87bec0336d38df467b4e>@@@EpsCopyInputStream@internal@protobuf@google@@QEAAPEBDPEBDV<lambda_def1b18c26bd87bec0336d38df467b4e>@@@Z
	??$ReadPackedVarint@V<lambda_def1b18c26bd87bec0336d38df467b4e>@@V<lambda_c6de07429c34f6291b6a94e04b1895d4>@@@EpsCopyInputStream@internal@protobuf@google@@QEAAPEBDPEBDV<lambda_def1b18c26bd87bec0336d38df467b4e>@@V<lambda_c6de07429c34f6291b6a94e04b1895d4>@@@Z
	??$ReadPackedVarint@V<lambda_e017e854584bdbc3d57ed983312fd580>@@@EpsCopyInputStream@internal@protobuf@google@@QEAAPEBDPEBDV<lambda_e017e854584bdbc3d57ed983312fd580>@@@Z
	??$ReadPackedVarint@V<lambda_e017e854584bdbc3d57ed983312fd580>@@V<lambda_dde3ceaa4a69657eccf379bf759b1d80>@@@EpsCopyInputStream@internal@protobuf@google@@QEAAPEBDPEBDV<lambda_e017e854584bdbc3d57ed983312fd580>@@V<lambda_dde3ceaa4a69657eccf379bf759b1d80>@@@Z
	??$ReadPackedVarint@V<lambda_e4da2986222f271802fb5f9764bac914>@@@EpsCopyInputStream@internal@protobuf@google@@QEAAPEBDPEBDV<lambda_e4da2986222f271802fb5f9764bac914>@@@Z
	??$ReadPackedVarint@V<lambda_e4da2986222f271802fb5f9764bac914>@@V<lambda_e852f90ac5e24b13f5ccdc380e89f355>@@@EpsCopyInputStream@internal@protobuf@google@@QEAAPEBDPEBDV<lambda_e4da2986222f271802fb5f9764bac914>@@V<lambda_e852f90ac5e24b13f5ccdc380e89f355>@@@Z
	??$ReadPackedVarint@V<lambda_e5533814b0a56a7f79255a1c1ab59cf4>@@@EpsCopyInputStream@internal@protobuf@google@@QEAAPEBDPEBDV<lambda_e5533814b0a56a7f79255a1c1ab59cf4>@@@Z
	??$ReadPackedVarint@V<lambda_e5533814b0a56a7f79255a1c1ab59cf4>@@V<lambda_d8db0ed608e90bca89d3cbec3a4eed6c>@@@EpsCopyInputStream@internal@protobuf@google@@QEAAPEBDPEBDV<lambda_e5533814b0a56a7f79255a1c1ab59cf4>@@V<lambda_d8db0ed608e90bca89d3cbec3a4eed6c>@@@Z
	??$ReadPackedVarint@V<lambda_e80d313c0cf4c9228fde5c11dc5dfa23>@@@EpsCopyInputStream@internal@protobuf@google@@QEAAPEBDPEBDV<lambda_e80d313c0cf4c9228fde5c11dc5dfa23>@@@Z
	??$ReadPackedVarint@V<lambda_e80d313c0cf4c9228fde5c11dc5dfa23>@@V<lambda_f4fe011663689f294fea7813715a66e4>@@@EpsCopyInputStream@internal@protobuf@google@@QEAAPEBDPEBDV<lambda_e80d313c0cf4c9228fde5c11dc5dfa23>@@V<lambda_f4fe011663689f294fea7813715a66e4>@@@Z
	??$ReadPackedVarint@V<lambda_e9963a79c75615d7d41a514280e39d76>@@@EpsCopyInputStream@internal@protobuf@google@@QEAAPEBDPEBDV<lambda_e9963a79c75615d7d41a514280e39d76>@@@Z
	??$ReadPackedVarint@V<lambda_e9963a79c75615d7d41a514280e39d76>@@V<lambda_047965efdd2dc65a830a48440e1117e6>@@@EpsCopyInputStream@internal@protobuf@google@@QEAAPEBDPEBDV<lambda_e9963a79c75615d7d41a514280e39d76>@@V<lambda_047965efdd2dc65a830a48440e1117e6>@@@Z
	??$ReadPackedVarint@V<lambda_f30daaeca8ef5592c2ffbda46b6b85e1>@@@EpsCopyInputStream@internal@protobuf@google@@QEAAPEBDPEBDV<lambda_f30daaeca8ef5592c2ffbda46b6b85e1>@@@Z
	??$ReadPackedVarint@V<lambda_f30daaeca8ef5592c2ffbda46b6b85e1>@@V<lambda_ac5f140984570a4f957dc39c494ee24c>@@@EpsCopyInputStream@internal@protobuf@google@@QEAAPEBDPEBDV<lambda_f30daaeca8ef5592c2ffbda46b6b85e1>@@V<lambda_ac5f140984570a4f957dc39c494ee24c>@@@Z
	??$ReadPackedVarint@V<lambda_f7e28047965828f76bdd499f4a3f8c0c>@@@EpsCopyInputStream@internal@protobuf@google@@QEAAPEBDPEBDV<lambda_f7e28047965828f76bdd499f4a3f8c0c>@@@Z
	??$ReadPackedVarint@V<lambda_f7e28047965828f76bdd499f4a3f8c0c>@@V<lambda_dbb5271c9dd99fedb257552f4a604565>@@@EpsCopyInputStream@internal@protobuf@google@@QEAAPEBDPEBDV<lambda_f7e28047965828f76bdd499f4a3f8c0c>@@V<lambda_dbb5271c9dd99fedb257552f4a604565>@@@Z
	??$ReadPackedVarint@V<lambda_fe713895709c2c9995c52d5e2bf08d79>@@@EpsCopyInputStream@internal@protobuf@google@@QEAAPEBDPEBDV<lambda_fe713895709c2c9995c52d5e2bf08d79>@@@Z
	??$ReadPackedVarint@V<lambda_fe713895709c2c9995c52d5e2bf08d79>@@V<lambda_53074d0fe34d2ee3fc0839b0ad17f485>@@@EpsCopyInputStream@internal@protobuf@google@@QEAAPEBDPEBDV<lambda_fe713895709c2c9995c52d5e2bf08d79>@@V<lambda_53074d0fe34d2ee3fc0839b0ad17f485>@@@Z
	??$ReadPackedVarintArray@V<lambda_01993fb64a5a4d9f6090d07df1028286>@@@internal@protobuf@google@@YAPEBDPEBD0V<lambda_01993fb64a5a4d9f6090d07df1028286>@@@Z
	??$ReadPackedVarintArray@V<lambda_1bdc89708c1d7039fca01a17d2b8a00a>@@@internal@protobuf@google@@YAPEBDPEBD0V<lambda_1bdc89708c1d7039fca01a17d2b8a00a>@@@Z
	??$ReadPackedVarintArray@V<lambda_20fc97f296369ec854e7f9a00e55273d>@@@internal@protobuf@google@@YAPEBDPEBD0V<lambda_20fc97f296369ec854e7f9a00e55273d>@@@Z
	??$ReadPackedVarintArray@V<lambda_2445345cb3b134d170e8ee193f099e7d>@@@internal@protobuf@google@@YAPEBDPEBD0V<lambda_2445345cb3b134d170e8ee193f099e7d>@@@Z
	??$ReadPackedVarintArray@V<lambda_29269e4da0651b3b63322f205033dcb5>@@@internal@protobuf@google@@YAPEBDPEBD0V<lambda_29269e4da0651b3b63322f205033dcb5>@@@Z
	??$ReadPackedVarintArray@V<lambda_2d7af22e5ebd5f20033ec6ad83f4ac1f>@@@internal@protobuf@google@@YAPEBDPEBD0V<lambda_2d7af22e5ebd5f20033ec6ad83f4ac1f>@@@Z
	??$ReadPackedVarintArray@V<lambda_3267ffa27fc3fe5db7c84558ad95b635>@@@internal@protobuf@google@@YAPEBDPEBD0V<lambda_3267ffa27fc3fe5db7c84558ad95b635>@@@Z
	??$ReadPackedVarintArray@V<lambda_3282e944be5788bbd6f6ff617f4d6d63>@@@internal@protobuf@google@@YAPEBDPEBD0V<lambda_3282e944be5788bbd6f6ff617f4d6d63>@@@Z
	??$ReadPackedVarintArray@V<lambda_344b48dec27cdc14061be2d27443ee2d>@@@internal@protobuf@google@@YAPEBDPEBD0V<lambda_344b48dec27cdc14061be2d27443ee2d>@@@Z
	??$ReadPackedVarintArray@V<lambda_3a41b6b9138eaf6088bfa6fcb8a495b5>@@@internal@protobuf@google@@YAPEBDPEBD0V<lambda_3a41b6b9138eaf6088bfa6fcb8a495b5>@@@Z
	??$ReadPackedVarintArray@V<lambda_4a870f6fe8f1a3b39ec2f37a4e0055dc>@@@internal@protobuf@google@@YAPEBDPEBD0V<lambda_4a870f6fe8f1a3b39ec2f37a4e0055dc>@@@Z
	??$ReadPackedVarintArray@V<lambda_56706089f2db943f5c231477db751bbb>@@@internal@protobuf@google@@YAPEBDPEBD0V<lambda_56706089f2db943f5c231477db751bbb>@@@Z
	??$ReadPackedVarintArray@V<lambda_5913a0a216c6cc9bf25d83d8274b30de>@@@internal@protobuf@google@@YAPEBDPEBD0V<lambda_5913a0a216c6cc9bf25d83d8274b30de>@@@Z
	??$ReadPackedVarintArray@V<lambda_687625cb49a646587c70a61ffe493256>@@@internal@protobuf@google@@YAPEBDPEBD0V<lambda_687625cb49a646587c70a61ffe493256>@@@Z
	??$ReadPackedVarintArray@V<lambda_688f9f240652acb48bc908f1fd9e65fe>@@@internal@protobuf@google@@YAPEBDPEBD0V<lambda_688f9f240652acb48bc908f1fd9e65fe>@@@Z
	??$ReadPackedVarintArray@V<lambda_69962c3e6e3604826fbe0c504e3195e7>@@@internal@protobuf@google@@YAPEBDPEBD0V<lambda_69962c3e6e3604826fbe0c504e3195e7>@@@Z
	??$ReadPackedVarintArray@V<lambda_76ea2e29230eb483d285aaf85a7cfc45>@@@internal@protobuf@google@@YAPEBDPEBD0V<lambda_76ea2e29230eb483d285aaf85a7cfc45>@@@Z
	??$ReadPackedVarintArray@V<lambda_773f5919cf44aae79d1e958d8242bcd8>@@@internal@protobuf@google@@YAPEBDPEBD0V<lambda_773f5919cf44aae79d1e958d8242bcd8>@@@Z
	??$ReadPackedVarintArray@V<lambda_8db14505531f29b22d9248dfae1e557c>@@@internal@protobuf@google@@YAPEBDPEBD0V<lambda_8db14505531f29b22d9248dfae1e557c>@@@Z
	??$ReadPackedVarintArray@V<lambda_8f4a6724318af91ad63d8b06a96c23dd>@@@internal@protobuf@google@@YAPEBDPEBD0V<lambda_8f4a6724318af91ad63d8b06a96c23dd>@@@Z
	??$ReadPackedVarintArray@V<lambda_90207a78d3af128c0226f3e131931265>@@@internal@protobuf@google@@YAPEBDPEBD0V<lambda_90207a78d3af128c0226f3e131931265>@@@Z
	??$ReadPackedVarintArray@V<lambda_9276b8ca891fa7cab99d2a4fd19fd7c2>@@@internal@protobuf@google@@YAPEBDPEBD0V<lambda_9276b8ca891fa7cab99d2a4fd19fd7c2>@@@Z
	??$ReadPackedVarintArray@V<lambda_985790ef0324caf54e08b468ee57007b>@@@internal@protobuf@google@@YAPEBDPEBD0V<lambda_985790ef0324caf54e08b468ee57007b>@@@Z
	??$ReadPackedVarintArray@V<lambda_99208e051c8b9692164df376a8eac8d0>@@@internal@protobuf@google@@YAPEBDPEBD0V<lambda_99208e051c8b9692164df376a8eac8d0>@@@Z
	??$ReadPackedVarintArray@V<lambda_a2da1d8b6da681dfa74ee1215fb5eb0e>@@@internal@protobuf@google@@YAPEBDPEBD0V<lambda_a2da1d8b6da681dfa74ee1215fb5eb0e>@@@Z
	??$ReadPackedVarintArray@V<lambda_a9368c56e09f74629d59748b33242c07>@@@internal@protobuf@google@@YAPEBDPEBD0V<lambda_a9368c56e09f74629d59748b33242c07>@@@Z
	??$ReadPackedVarintArray@V<lambda_b8353ada37acf7b400661bb3b16393ca>@@@internal@protobuf@google@@YAPEBDPEBD0V<lambda_b8353ada37acf7b400661bb3b16393ca>@@@Z
	??$ReadPackedVarintArray@V<lambda_ba2455bc7e35bc75f3f20742f39a63ca>@@@internal@protobuf@google@@YAPEBDPEBD0V<lambda_ba2455bc7e35bc75f3f20742f39a63ca>@@@Z
	??$ReadPackedVarintArray@V<lambda_bd3d48c2a33e8e6ea8068f3437dd9b3a>@@@internal@protobuf@google@@YAPEBDPEBD0V<lambda_bd3d48c2a33e8e6ea8068f3437dd9b3a>@@@Z
	??$ReadPackedVarintArray@V<lambda_c531273016d54617ecd2db18e300b927>@@@internal@protobuf@google@@YAPEBDPEBD0V<lambda_c531273016d54617ecd2db18e300b927>@@@Z
	??$ReadPackedVarintArray@V<lambda_cd4ed5a214b293587376bc908a979119>@@@internal@protobuf@google@@YAPEBDPEBD0V<lambda_cd4ed5a214b293587376bc908a979119>@@@Z
	??$ReadPackedVarintArray@V<lambda_ce452539e7cc73dd758c11a649c90074>@@@internal@protobuf@google@@YAPEBDPEBD0V<lambda_ce452539e7cc73dd758c11a649c90074>@@@Z
	??$ReadPackedVarintArray@V<lambda_ce90238e12da7bd26285b9b9306af970>@@@internal@protobuf@google@@YAPEBDPEBD0V<lambda_ce90238e12da7bd26285b9b9306af970>@@@Z
	??$ReadPackedVarintArray@V<lambda_d5baf509037050391fd8ab3077cb1df8>@@@internal@protobuf@google@@YAPEBDPEBD0V<lambda_d5baf509037050391fd8ab3077cb1df8>@@@Z
	??$ReadPackedVarintArray@V<lambda_d8a5a68100ae2a0b7936eabfebd4ef1d>@@@internal@protobuf@google@@YAPEBDPEBD0V<lambda_d8a5a68100ae2a0b7936eabfebd4ef1d>@@@Z
	??$ReadPackedVarintArray@V<lambda_da0199c1170b6120d2ab17c710d42821>@@@internal@protobuf@google@@YAPEBDPEBD0V<lambda_da0199c1170b6120d2ab17c710d42821>@@@Z
	??$ReadPackedVarintArray@V<lambda_dc35cefdd5e42ae9b01c9ffc0289c69c>@@@internal@protobuf@google@@YAPEBDPEBD0V<lambda_dc35cefdd5e42ae9b01c9ffc0289c69c>@@@Z
	??$ReadPackedVarintArray@V<lambda_def1b18c26bd87bec0336d38df467b4e>@@@internal@protobuf@google@@YAPEBDPEBD0V<lambda_def1b18c26bd87bec0336d38df467b4e>@@@Z
	??$ReadPackedVarintArray@V<lambda_e017e854584bdbc3d57ed983312fd580>@@@internal@protobuf@google@@YAPEBDPEBD0V<lambda_e017e854584bdbc3d57ed983312fd580>@@@Z
	??$ReadPackedVarintArray@V<lambda_e4da2986222f271802fb5f9764bac914>@@@internal@protobuf@google@@YAPEBDPEBD0V<lambda_e4da2986222f271802fb5f9764bac914>@@@Z
	??$ReadPackedVarintArray@V<lambda_e5533814b0a56a7f79255a1c1ab59cf4>@@@internal@protobuf@google@@YAPEBDPEBD0V<lambda_e5533814b0a56a7f79255a1c1ab59cf4>@@@Z
	??$ReadPackedVarintArray@V<lambda_e80d313c0cf4c9228fde5c11dc5dfa23>@@@internal@protobuf@google@@YAPEBDPEBD0V<lambda_e80d313c0cf4c9228fde5c11dc5dfa23>@@@Z
	??$ReadPackedVarintArray@V<lambda_e9963a79c75615d7d41a514280e39d76>@@@internal@protobuf@google@@YAPEBDPEBD0V<lambda_e9963a79c75615d7d41a514280e39d76>@@@Z
	??$ReadPackedVarintArray@V<lambda_f30daaeca8ef5592c2ffbda46b6b85e1>@@@internal@protobuf@google@@YAPEBDPEBD0V<lambda_f30daaeca8ef5592c2ffbda46b6b85e1>@@@Z
	??$ReadPackedVarintArray@V<lambda_f7e28047965828f76bdd499f4a3f8c0c>@@@internal@protobuf@google@@YAPEBDPEBD0V<lambda_f7e28047965828f76bdd499f4a3f8c0c>@@@Z
	??$ReadPackedVarintArray@V<lambda_fe713895709c2c9995c52d5e2bf08d79>@@@internal@protobuf@google@@YAPEBDPEBD0V<lambda_fe713895709c2c9995c52d5e2bf08d79>@@@Z
	??$ReadPrimitive@H$0O@@WireFormatLite@internal@protobuf@google@@SA_NPEAVCodedInputStream@io@23@PEAH@Z
	??$RefAt@H@TcParser@internal@protobuf@google@@SAAEAHPEAX_K@Z
	??$RefAt@I@TcParser@internal@protobuf@google@@SAAEAIPEAX_K@Z
	??$RefAt@PEAVCord@lts_20250814@absl@@@TcParser@internal@protobuf@google@@SAAEAPEAVCord@lts_20250814@absl@@PEAX_K@Z
	??$RefAt@PEAVMessageLite@protobuf@google@@@TcParser@internal@protobuf@google@@SAAEAPEAVMessageLite@23@PEAX_K@Z
	??$RefAt@PEAX@TcParser@internal@protobuf@google@@SAAEAPEAXPEAX_K@Z
	??$RefAt@PEAX@TcParser@internal@protobuf@google@@SAAEBQEAXPEBX_K@Z
	??$RefAt@UArenaStringPtr@internal@protobuf@google@@@TcParser@internal@protobuf@google@@SAAEAUArenaStringPtr@123@PEAX_K@Z
	??$RefAt@UFieldEntry@TcParseTableBase@internal@protobuf@google@@@TcParser@internal@protobuf@google@@SAAEBUFieldEntry@TcParseTableBase@123@PEBX_K@Z
	??$RefAt@V?$RepeatedField@H@protobuf@google@@@TcParser@internal@protobuf@google@@SAAEAV?$RepeatedField@H@23@PEAX_K@Z
	??$RefAt@V?$RepeatedField@I@protobuf@google@@@TcParser@internal@protobuf@google@@SAAEAV?$RepeatedField@I@23@PEAX_K@Z
	??$RefAt@V?$RepeatedField@_J@protobuf@google@@@TcParser@internal@protobuf@google@@SAAEAV?$RepeatedField@_J@23@PEAX_K@Z
	??$RefAt@V?$RepeatedField@_K@protobuf@google@@@TcParser@internal@protobuf@google@@SAAEAV?$RepeatedField@_K@23@PEAX_K@Z
	??$RefAt@V?$RepeatedField@_N@protobuf@google@@@TcParser@internal@protobuf@google@@SAAEAV?$RepeatedField@_N@23@PEAX_K@Z
	??$RefAt@V?$RepeatedPtrField@V?$basic_string@DU?$char_traits@D@std@@V?$allocator@D@2@@std@@@protobuf@google@@@TcParser@internal@protobuf@google@@SAAEAV?$RepeatedPtrField@V?$basic_string@DU?$char_traits@D@std@@V?$allocator@D@2@@std@@@23@PEAX_K@Z
	??$RefAt@VCord@lts_20250814@absl@@@TcParser@internal@protobuf@google@@SAAEAVCord@lts_20250814@absl@@PEAX_K@Z
	??$RefAt@VExtensionSet@internal@protobuf@google@@@TcParser@internal@protobuf@google@@SAAEAVExtensionSet@123@PEAX_K@Z
	??$RefAt@VMapFieldBaseForParse@internal@protobuf@google@@@TcParser@internal@protobuf@google@@SAAEAVMapFieldBaseForParse@123@PEAX_K@Z
	??$RefAt@VRepeatedPtrFieldBase@internal@protobuf@google@@@TcParser@internal@protobuf@google@@SAAEAVRepeatedPtrFieldBase@123@PEAX_K@Z
	??$RefAt@VUntypedMapBase@internal@protobuf@google@@@TcParser@internal@protobuf@google@@SAAEAVUntypedMapBase@123@PEAX_K@Z
	??$RefAt@_J@TcParser@internal@protobuf@google@@SAAEA_JPEAX_K@Z
	??$RefAt@_K@TcParser@internal@protobuf@google@@SAAEA_KPEAX_K@Z
	??$RefAt@_N@TcParser@internal@protobuf@google@@SAAEA_NPEAX_K@Z
	??$RegisterDestructorInternal@V?$basic_string@DU?$char_traits@D@std@@V?$allocator@D@2@@std@@@Arena@protobuf@google@@CAXPEAV?$basic_string@DU?$char_traits@D@std@@V?$allocator@D@2@@std@@PEAV012@U?$integral_constant@_N$0A@@4@@Z
	??$ReleaseLast@V?$GenericTypeHandler@VMessageLite@protobuf@google@@@internal@protobuf@google@@@RepeatedPtrFieldBase@internal@protobuf@google@@IEAAPEAVMessageLite@23@XZ
	??$RemoveLast@V?$GenericTypeHandler@V?$basic_string@DU?$char_traits@D@std@@V?$allocator@D@2@@std@@@internal@protobuf@google@@@RepeatedPtrFieldBase@internal@protobuf@google@@IEAAXXZ
	??$RemoveLast@V?$GenericTypeHandler@VMessageLite@protobuf@google@@@internal@protobuf@google@@@RepeatedPtrFieldBase@internal@protobuf@google@@IEAAXXZ
	??$RepeatedEnum@E$0EAA@@TcParser@internal@protobuf@google@@CAPEBDPEAVMessageLite@23@PEBDPEAVParseContext@123@UTcFieldData@123@PEBUTcParseTableBase@123@_K@Z
	??$RepeatedEnum@E$0GAA@@TcParser@internal@protobuf@google@@CAPEBDPEAVMessageLite@23@PEBDPEAVParseContext@123@UTcFieldData@123@PEBUTcParseTableBase@123@_K@Z
	??$RepeatedEnum@G$0EAA@@TcParser@internal@protobuf@google@@CAPEBDPEAVMessageLite@23@PEBDPEAVParseContext@123@UTcFieldData@123@PEBUTcParseTableBase@123@_K@Z
	??$RepeatedEnum@G$0GAA@@TcParser@internal@protobuf@google@@CAPEBDPEAVMessageLite@23@PEBDPEAVParseContext@123@UTcFieldData@123@PEBUTcParseTableBase@123@_K@Z
	??$RepeatedEnumSmallRange@E$00@TcParser@internal@protobuf@google@@CAPEBDPEAVMessageLite@23@PEBDPEAVParseContext@123@UTcFieldData@123@PEBUTcParseTableBase@123@_K@Z
	??$RepeatedEnumSmallRange@E$0A@@TcParser@internal@protobuf@google@@CAPEBDPEAVMessageLite@23@PEBDPEAVParseContext@123@UTcFieldData@123@PEBUTcParseTableBase@123@_K@Z
	??$RepeatedEnumSmallRange@G$00@TcParser@internal@protobuf@google@@CAPEBDPEAVMessageLite@23@PEBDPEAVParseContext@123@UTcFieldData@123@PEBUTcParseTableBase@123@_K@Z
	??$RepeatedEnumSmallRange@G$0A@@TcParser@internal@protobuf@google@@CAPEBDPEAVMessageLite@23@PEBDPEAVParseContext@123@UTcFieldData@123@PEBUTcParseTableBase@123@_K@Z
	??$RepeatedFixed@IE@TcParser@internal@protobuf@google@@CAPEBDPEAVMessageLite@23@PEBDPEAVParseContext@123@UTcFieldData@123@PEBUTcParseTableBase@123@_K@Z
	??$RepeatedFixed@IG@TcParser@internal@protobuf@google@@CAPEBDPEAVMessageLite@23@PEBDPEAVParseContext@123@UTcFieldData@123@PEBUTcParseTableBase@123@_K@Z
	??$RepeatedFixed@_KE@TcParser@internal@protobuf@google@@CAPEBDPEAVMessageLite@23@PEBDPEAVParseContext@123@UTcFieldData@123@PEBUTcParseTableBase@123@_K@Z
	??$RepeatedFixed@_KG@TcParser@internal@protobuf@google@@CAPEBDPEAVMessageLite@23@PEBDPEAVParseContext@123@UTcFieldData@123@PEBUTcParseTableBase@123@_K@Z
	??$RepeatedParseMessageAuxImpl@E$00$00@TcParser@internal@protobuf@google@@CAPEBDPEAVMessageLite@23@PEBDPEAVParseContext@123@UTcFieldData@123@PEBUTcParseTableBase@123@_K@Z
	??$RepeatedParseMessageAuxImpl@E$00$0A@@TcParser@internal@protobuf@google@@CAPEBDPEAVMessageLite@23@PEBDPEAVParseContext@123@UTcFieldData@123@PEBUTcParseTableBase@123@_K@Z
	??$RepeatedParseMessageAuxImpl@E$0A@$00@TcParser@internal@protobuf@google@@CAPEBDPEAVMessageLite@23@PEBDPEAVParseContext@123@UTcFieldData@123@PEBUTcParseTableBase@123@_K@Z
	??$RepeatedParseMessageAuxImpl@E$0A@$0A@@TcParser@internal@protobuf@google@@CAPEBDPEAVMessageLite@23@PEBDPEAVParseContext@123@UTcFieldData@123@PEBUTcParseTableBase@123@_K@Z
	??$RepeatedParseMessageAuxImpl@G$00$00@TcParser@internal@protobuf@google@@CAPEBDPEAVMessageLite@23@PEBDPEAVParseContext@123@UTcFieldData@123@PEBUTcParseTableBase@123@_K@Z
	??$RepeatedParseMessageAuxImpl@G$00$0A@@TcParser@internal@protobuf@google@@CAPEBDPEAVMessageLite@23@PEBDPEAVParseContext@123@UTcFieldData@123@PEBUTcParseTableBase@123@_K@Z
	??$RepeatedParseMessageAuxImpl@G$0A@$00@TcParser@internal@protobuf@google@@CAPEBDPEAVMessageLite@23@PEBDPEAVParseContext@123@UTcFieldData@123@PEBUTcParseTableBase@123@_K@Z
	??$RepeatedParseMessageAuxImpl@G$0A@$0A@@TcParser@internal@protobuf@google@@CAPEBDPEAVMessageLite@23@PEBDPEAVParseContext@123@UTcFieldData@123@PEBUTcParseTableBase@123@_K@Z
	??$RepeatedString@EV?$RepeatedPtrField@V?$basic_string@DU?$char_traits@D@std@@V?$allocator@D@2@@std@@@protobuf@google@@$00@TcParser@internal@protobuf@google@@CAPEBDPEAVMessageLite@23@PEBDPEAVParseContext@123@UTcFieldData@123@PEBUTcParseTableBase@123@_K@Z
	??$RepeatedString@EV?$RepeatedPtrField@V?$basic_string@DU?$char_traits@D@std@@V?$allocator@D@2@@std@@@protobuf@google@@$01@TcParser@internal@protobuf@google@@CAPEBDPEAVMessageLite@23@PEBDPEAVParseContext@123@UTcFieldData@123@PEBUTcParseTableBase@123@_K@Z
	??$RepeatedString@EV?$RepeatedPtrField@V?$basic_string@DU?$char_traits@D@std@@V?$allocator@D@2@@std@@@protobuf@google@@$0A@@TcParser@internal@protobuf@google@@CAPEBDPEAVMessageLite@23@PEBDPEAVParseContext@123@UTcFieldData@123@PEBUTcParseTableBase@123@_K@Z
	??$RepeatedString@GV?$RepeatedPtrField@V?$basic_string@DU?$char_traits@D@std@@V?$allocator@D@2@@std@@@protobuf@google@@$00@TcParser@internal@protobuf@google@@CAPEBDPEAVMessageLite@23@PEBDPEAVParseContext@123@UTcFieldData@123@PEBUTcParseTableBase@123@_K@Z
	??$RepeatedString@GV?$RepeatedPtrField@V?$basic_string@DU?$char_traits@D@std@@V?$allocator@D@2@@std@@@protobuf@google@@$01@TcParser@internal@protobuf@google@@CAPEBDPEAVMessageLite@23@PEBDPEAVParseContext@123@UTcFieldData@123@PEBUTcParseTableBase@123@_K@Z
	??$RepeatedString@GV?$RepeatedPtrField@V?$basic_string@DU?$char_traits@D@std@@V?$allocator@D@2@@std@@@protobuf@google@@$0A@@TcParser@internal@protobuf@google@@CAPEBDPEAVMessageLite@23@PEBDPEAVParseContext@123@UTcFieldData@123@PEBUTcParseTableBase@123@_K@Z
	??$RepeatedVarint@HE$00@TcParser@internal@protobuf@google@@CAPEBDPEAVMessageLite@23@PEBDPEAVParseContext@123@UTcFieldData@123@PEBUTcParseTableBase@123@_K@Z
	??$RepeatedVarint@HG$00@TcParser@internal@protobuf@google@@CAPEBDPEAVMessageLite@23@PEBDPEAVParseContext@123@UTcFieldData@123@PEBUTcParseTableBase@123@_K@Z
	??$RepeatedVarint@IE$0A@@TcParser@internal@protobuf@google@@CAPEBDPEAVMessageLite@23@PEBDPEAVParseContext@123@UTcFieldData@123@PEBUTcParseTableBase@123@_K@Z
	??$RepeatedVarint@IG$0A@@TcParser@internal@protobuf@google@@CAPEBDPEAVMessageLite@23@PEBDPEAVParseContext@123@UTcFieldData@123@PEBUTcParseTableBase@123@_K@Z
	??$RepeatedVarint@_JE$00@TcParser@internal@protobuf@google@@CAPEBDPEAVMessageLite@23@PEBDPEAVParseContext@123@UTcFieldData@123@PEBUTcParseTableBase@123@_K@Z
	??$RepeatedVarint@_JG$00@TcParser@internal@protobuf@google@@CAPEBDPEAVMessageLite@23@PEBDPEAVParseContext@123@UTcFieldData@123@PEBUTcParseTableBase@123@_K@Z
	??$RepeatedVarint@_KE$0A@@TcParser@internal@protobuf@google@@CAPEBDPEAVMessageLite@23@PEBDPEAVParseContext@123@UTcFieldData@123@PEBUTcParseTableBase@123@_K@Z
	??$RepeatedVarint@_KG$0A@@TcParser@internal@protobuf@google@@CAPEBDPEAVMessageLite@23@PEBDPEAVParseContext@123@UTcFieldData@123@PEBUTcParseTableBase@123@_K@Z
	??$RepeatedVarint@_NE$0A@@TcParser@internal@protobuf@google@@CAPEBDPEAVMessageLite@23@PEBDPEAVParseContext@123@UTcFieldData@123@PEBUTcParseTableBase@123@_K@Z
	??$RepeatedVarint@_NG$0A@@TcParser@internal@protobuf@google@@CAPEBDPEAVMessageLite@23@PEBDPEAVParseContext@123@UTcFieldData@123@PEBUTcParseTableBase@123@_K@Z
	??$RotateLeft@_K@internal@protobuf@google@@YA_K_KH@Z
	??$STLStringResizeUninitialized@V?$basic_string@DU?$char_traits@D@std@@V?$allocator@D@2@@std@@X@strings_internal@lts_20250814@absl@@YAXPEAV?$basic_string@DU?$char_traits@D@std@@V?$allocator@D@2@@std@@_K@Z
	??$STLStringResizeUninitializedAmortized@V?$basic_string@DU?$char_traits@D@std@@V?$allocator@D@2@@std@@@strings_internal@lts_20250814@absl@@YAXPEAV?$basic_string@DU?$char_traits@D@std@@V?$allocator@D@2@@std@@_K@Z
	??$SanitizerPoisonObject@PEAV?$btree_node@U?$map_params@HUExtension@ExtensionSet@internal@protobuf@google@@U?$less@H@std@@V?$allocator@U?$pair@$$CBHUExtension@ExtensionSet@internal@protobuf@google@@@std@@@7@$0BAA@$0A@@container_internal@lts_20250814@absl@@@container_internal@lts_20250814@absl@@@container_internal@lts_20250814@absl@@YAXPEBQEAV?$btree_node@U?$map_params@HUExtension@ExtensionSet@internal@protobuf@google@@U?$less@H@std@@V?$allocator@U?$pair@$$CBHUExtension@ExtensionSet@internal@protobuf@google@@@std@@@7@$0BAA@$0A@@container_internal@lts_20250814@absl@@@012@@Z
	??$SanitizerPoisonObject@PEAV?$btree_node@U?$map_params@UVariantKey@internal@protobuf@google@@PEAUNodeBase@234@U?$less@UVariantKey@internal@protobuf@google@@@std@@V?$MapAllocator@U?$pair@$$CBUVariantKey@internal@protobuf@google@@PEAUNodeBase@234@@std@@@234@$0BAA@$0A@@container_internal@lts_20250814@absl@@@container_internal@lts_20250814@absl@@@container_internal@lts_20250814@absl@@YAXPEBQEAV?$btree_node@U?$map_params@UVariantKey@internal@protobuf@google@@PEAUNodeBase@234@U?$less@UVariantKey@internal@protobuf@google@@@std@@V?$MapAllocator@U?$pair@$$CBUVariantKey@internal@protobuf@google@@PEAUNodeBase@234@@std@@@234@$0BAA@$0A@@container_internal@lts_20250814@absl@@@012@@Z
	??$SanitizerPoisonObject@T?$map_slot_type@HUExtension@ExtensionSet@internal@protobuf@google@@@container_internal@lts_20250814@absl@@@container_internal@lts_20250814@absl@@YAXPEBT?$map_slot_type@HUExtension@ExtensionSet@internal@protobuf@google@@@012@@Z
	??$SanitizerPoisonObject@T?$map_slot_type@UVariantKey@internal@protobuf@google@@PEAUNodeBase@234@@container_internal@lts_20250814@absl@@@container_internal@lts_20250814@absl@@YAXPEBT?$map_slot_type@UVariantKey@internal@protobuf@google@@PEAUNodeBase@234@@012@@Z
	??$SanitizerUnpoisonObject@PEAV?$btree_node@U?$map_params@HUExtension@ExtensionSet@internal@protobuf@google@@U?$less@H@std@@V?$allocator@U?$pair@$$CBHUExtension@ExtensionSet@internal@protobuf@google@@@std@@@7@$0BAA@$0A@@container_internal@lts_20250814@absl@@@container_internal@lts_20250814@absl@@@container_internal@lts_20250814@absl@@YAXPEBQEAV?$btree_node@U?$map_params@HUExtension@ExtensionSet@internal@protobuf@google@@U?$less@H@std@@V?$allocator@U?$pair@$$CBHUExtension@ExtensionSet@internal@protobuf@google@@@std@@@7@$0BAA@$0A@@container_internal@lts_20250814@absl@@@012@@Z
	??$SanitizerUnpoisonObject@PEAV?$btree_node@U?$map_params@UVariantKey@internal@protobuf@google@@PEAUNodeBase@234@U?$less@UVariantKey@internal@protobuf@google@@@std@@V?$MapAllocator@U?$pair@$$CBUVariantKey@internal@protobuf@google@@PEAUNodeBase@234@@std@@@234@$0BAA@$0A@@container_internal@lts_20250814@absl@@@container_internal@lts_20250814@absl@@@container_internal@lts_20250814@absl@@YAXPEBQEAV?$btree_node@U?$map_params@UVariantKey@internal@protobuf@google@@PEAUNodeBase@234@U?$less@UVariantKey@internal@protobuf@google@@@std@@V?$MapAllocator@U?$pair@$$CBUVariantKey@internal@protobuf@google@@PEAUNodeBase@234@@std@@@234@$0BAA@$0A@@container_internal@lts_20250814@absl@@@012@@Z
	??$SanitizerUnpoisonObject@T?$map_slot_type@HUExtension@ExtensionSet@internal@protobuf@google@@@container_internal@lts_20250814@absl@@@container_internal@lts_20250814@absl@@YAXPEBT?$map_slot_type@HUExtension@ExtensionSet@internal@protobuf@google@@@012@@Z
	??$SanitizerUnpoisonObject@T?$map_slot_type@UVariantKey@internal@protobuf@google@@PEAUNodeBase@234@@container_internal@lts_20250814@absl@@@container_internal@lts_20250814@absl@@YAXPEBT?$map_slot_type@UVariantKey@internal@protobuf@google@@PEAUNodeBase@234@@012@@Z
	??$Set@$$V@ArenaStringPtr@internal@protobuf@google@@QEAAXAEBV?$basic_string@DU?$char_traits@D@std@@V?$allocator@D@2@@std@@PEAVArena@23@@Z
	??$ShiftMixParseVarint@H$09@internal@protobuf@google@@YAPEBDPEBDAEA_J@Z
	??$ShiftMixParseVarint@I$09@internal@protobuf@google@@YAPEBDPEBDAEA_J@Z
	??$ShiftMixParseVarint@_J$09@internal@protobuf@google@@YAPEBDPEBDAEA_J@Z
	??$ShiftMixParseVarint@_K$09@internal@protobuf@google@@YAPEBDPEBDAEA_J@Z
	??$SingularEnum@E$0EAA@@TcParser@internal@protobuf@google@@CAPEBDPEAVMessageLite@23@PEBDPEAVParseContext@123@UTcFieldData@123@PEBUTcParseTableBase@123@_K@Z
	??$SingularEnum@E$0GAA@@TcParser@internal@protobuf@google@@CAPEBDPEAVMessageLite@23@PEBDPEAVParseContext@123@UTcFieldData@123@PEBUTcParseTableBase@123@_K@Z
	??$SingularEnum@G$0EAA@@TcParser@internal@protobuf@google@@CAPEBDPEAVMessageLite@23@PEBDPEAVParseContext@123@UTcFieldData@123@PEBUTcParseTableBase@123@_K@Z
	??$SingularEnum@G$0GAA@@TcParser@internal@protobuf@google@@CAPEBDPEAVMessageLite@23@PEBDPEAVParseContext@123@UTcFieldData@123@PEBUTcParseTableBase@123@_K@Z
	??$SingularEnumSmallRange@E$00@TcParser@internal@protobuf@google@@CAPEBDPEAVMessageLite@23@PEBDPEAVParseContext@123@UTcFieldData@123@PEBUTcParseTableBase@123@_K@Z
	??$SingularEnumSmallRange@E$0A@@TcParser@internal@protobuf@google@@CAPEBDPEAVMessageLite@23@PEBDPEAVParseContext@123@UTcFieldData@123@PEBUTcParseTableBase@123@_K@Z
	??$SingularEnumSmallRange@G$00@TcParser@internal@protobuf@google@@CAPEBDPEAVMessageLite@23@PEBDPEAVParseContext@123@UTcFieldData@123@PEBUTcParseTableBase@123@_K@Z
	??$SingularEnumSmallRange@G$0A@@TcParser@internal@protobuf@google@@CAPEBDPEAVMessageLite@23@PEBDPEAVParseContext@123@UTcFieldData@123@PEBUTcParseTableBase@123@_K@Z
	??$SingularFixed@IE@TcParser@internal@protobuf@google@@CAPEBDPEAVMessageLite@23@PEBDPEAVParseContext@123@UTcFieldData@123@PEBUTcParseTableBase@123@_K@Z
	??$SingularFixed@IG@TcParser@internal@protobuf@google@@CAPEBDPEAVMessageLite@23@PEBDPEAVParseContext@123@UTcFieldData@123@PEBUTcParseTableBase@123@_K@Z
	??$SingularFixed@_KE@TcParser@internal@protobuf@google@@CAPEBDPEAVMessageLite@23@PEBDPEAVParseContext@123@UTcFieldData@123@PEBUTcParseTableBase@123@_K@Z
	??$SingularFixed@_KG@TcParser@internal@protobuf@google@@CAPEBDPEAVMessageLite@23@PEBDPEAVParseContext@123@UTcFieldData@123@PEBUTcParseTableBase@123@_K@Z
	??$SingularParseMessageAuxImpl@E$00$00@TcParser@internal@protobuf@google@@CAPEBDPEAVMessageLite@23@PEBDPEAVParseContext@123@UTcFieldData@123@PEBUTcParseTableBase@123@_K@Z
	??$SingularParseMessageAuxImpl@E$00$0A@@TcParser@internal@protobuf@google@@CAPEBDPEAVMessageLite@23@PEBDPEAVParseContext@123@UTcFieldData@123@PEBUTcParseTableBase@123@_K@Z
	??$SingularParseMessageAuxImpl@E$0A@$00@TcParser@internal@protobuf@google@@CAPEBDPEAVMessageLite@23@PEBDPEAVParseContext@123@UTcFieldData@123@PEBUTcParseTableBase@123@_K@Z
	??$SingularParseMessageAuxImpl@E$0A@$0A@@TcParser@internal@protobuf@google@@CAPEBDPEAVMessageLite@23@PEBDPEAVParseContext@123@UTcFieldData@123@PEBUTcParseTableBase@123@_K@Z
	??$SingularParseMessageAuxImpl@G$00$00@TcParser@internal@protobuf@google@@CAPEBDPEAVMessageLite@23@PEBDPEAVParseContext@123@UTcFieldData@123@PEBUTcParseTableBase@123@_K@Z
	??$SingularParseMessageAuxImpl@G$00$0A@@TcParser@internal@protobuf@google@@CAPEBDPEAVMessageLite@23@PEBDPEAVParseContext@123@UTcFieldData@123@PEBUTcParseTableBase@123@_K@Z
	??$SingularParseMessageAuxImpl@G$0A@$00@TcParser@internal@protobuf@google@@CAPEBDPEAVMessageLite@23@PEBDPEAVParseContext@123@UTcFieldData@123@PEBUTcParseTableBase@123@_K@Z
	??$SingularParseMessageAuxImpl@G$0A@$0A@@TcParser@internal@protobuf@google@@CAPEBDPEAVMessageLite@23@PEBDPEAVParseContext@123@UTcFieldData@123@PEBUTcParseTableBase@123@_K@Z
	??$SingularString@EUArenaStringPtr@internal@protobuf@google@@$00@TcParser@internal@protobuf@google@@CAPEBDPEAVMessageLite@23@PEBDPEAVParseContext@123@UTcFieldData@123@PEBUTcParseTableBase@123@_K@Z
	??$SingularString@EUArenaStringPtr@internal@protobuf@google@@$01@TcParser@internal@protobuf@google@@CAPEBDPEAVMessageLite@23@PEBDPEAVParseContext@123@UTcFieldData@123@PEBUTcParseTableBase@123@_K@Z
	??$SingularString@EUArenaStringPtr@internal@protobuf@google@@$0A@@TcParser@internal@protobuf@google@@CAPEBDPEAVMessageLite@23@PEBDPEAVParseContext@123@UTcFieldData@123@PEBUTcParseTableBase@123@_K@Z
	??$SingularString@GUArenaStringPtr@internal@protobuf@google@@$00@TcParser@internal@protobuf@google@@CAPEBDPEAVMessageLite@23@PEBDPEAVParseContext@123@UTcFieldData@123@PEBUTcParseTableBase@123@_K@Z
	??$SingularString@GUArenaStringPtr@internal@protobuf@google@@$01@TcParser@internal@protobuf@google@@CAPEBDPEAVMessageLite@23@PEBDPEAVParseContext@123@UTcFieldData@123@PEBUTcParseTableBase@123@_K@Z
	??$SingularString@GUArenaStringPtr@internal@protobuf@google@@$0A@@TcParser@internal@protobuf@google@@CAPEBDPEAVMessageLite@23@PEBDPEAVParseContext@123@UTcFieldData@123@PEBUTcParseTableBase@123@_K@Z
	??$SingularVarBigint@HE$00@TcParser@internal@protobuf@google@@CAPEBDPEAVMessageLite@23@PEBDPEAVParseContext@123@UTcFieldData@123@PEBUTcParseTableBase@123@_K@Z
	??$SingularVarBigint@HG$00@TcParser@internal@protobuf@google@@CAPEBDPEAVMessageLite@23@PEBDPEAVParseContext@123@UTcFieldData@123@PEBUTcParseTableBase@123@_K@Z
	??$SingularVarBigint@IG$0A@@TcParser@internal@protobuf@google@@CAPEBDPEAVMessageLite@23@PEBDPEAVParseContext@123@UTcFieldData@123@PEBUTcParseTableBase@123@_K@Z
	??$SingularVarBigint@_JE$00@TcParser@internal@protobuf@google@@CAPEBDPEAVMessageLite@23@PEBDPEAVParseContext@123@UTcFieldData@123@PEBUTcParseTableBase@123@_K@Z
	??$SingularVarBigint@_JG$00@TcParser@internal@protobuf@google@@CAPEBDPEAVMessageLite@23@PEBDPEAVParseContext@123@UTcFieldData@123@PEBUTcParseTableBase@123@_K@Z
	??$SingularVarBigint@_KG$0A@@TcParser@internal@protobuf@google@@CAPEBDPEAVMessageLite@23@PEBDPEAVParseContext@123@UTcFieldData@123@PEBUTcParseTableBase@123@_K@Z
	??$SingularVarBigint@_NG$0A@@TcParser@internal@protobuf@google@@CAPEBDPEAVMessageLite@23@PEBDPEAVParseContext@123@UTcFieldData@123@PEBUTcParseTableBase@123@_K@Z
	??$SingularVarint@HE$00@TcParser@internal@protobuf@google@@CAPEBDPEAVMessageLite@23@PEBDPEAVParseContext@123@UTcFieldData@123@PEBUTcParseTableBase@123@_K@Z
	??$SingularVarint@HG$00@TcParser@internal@protobuf@google@@CAPEBDPEAVMessageLite@23@PEBDPEAVParseContext@123@UTcFieldData@123@PEBUTcParseTableBase@123@_K@Z
	??$SingularVarint@IG$0A@@TcParser@internal@protobuf@google@@CAPEBDPEAVMessageLite@23@PEBDPEAVParseContext@123@UTcFieldData@123@PEBUTcParseTableBase@123@_K@Z
	??$SingularVarint@_JE$00@TcParser@internal@protobuf@google@@CAPEBDPEAVMessageLite@23@PEBDPEAVParseContext@123@UTcFieldData@123@PEBUTcParseTableBase@123@_K@Z
	??$SingularVarint@_JG$00@TcParser@internal@protobuf@google@@CAPEBDPEAVMessageLite@23@PEBDPEAVParseContext@123@UTcFieldData@123@PEBUTcParseTableBase@123@_K@Z
	??$SingularVarint@_KG$0A@@TcParser@internal@protobuf@google@@CAPEBDPEAVMessageLite@23@PEBDPEAVParseContext@123@UTcFieldData@123@PEBUTcParseTableBase@123@_K@Z
	??$SingularVarint@_NG$0A@@TcParser@internal@protobuf@google@@CAPEBDPEAVMessageLite@23@PEBDPEAVParseContext@123@UTcFieldData@123@PEBUTcParseTableBase@123@_K@Z
	??$Size@$00@?$LayoutImpl@V?$tuple@PEAV?$btree_node@U?$map_params@HUExtension@ExtensionSet@internal@protobuf@google@@U?$less@H@std@@V?$allocator@U?$pair@$$CBHUExtension@ExtensionSet@internal@protobuf@google@@@std@@@7@$0BAA@$0A@@container_internal@lts_20250814@absl@@@container_internal@lts_20250814@absl@@IET?$map_slot_type@HUExtension@ExtensionSet@internal@protobuf@google@@@234@PEAV1234@@std@@U?$integer_sequence@_K$00$0A@$03$06$07@2@U?$integer_sequence@_K$S@2@U?$integer_sequence@_K$0A@$00$01$02$03@2@U52@@internal_layout@container_internal@lts_20250814@absl@@QEBA_KXZ
	??$Size@$00@?$LayoutImpl@V?$tuple@PEAV?$btree_node@U?$map_params@HUExtension@ExtensionSet@internal@protobuf@google@@U?$less@H@std@@V?$allocator@U?$pair@$$CBHUExtension@ExtensionSet@internal@protobuf@google@@@std@@@7@$0BAA@$0A@@container_internal@lts_20250814@absl@@@container_internal@lts_20250814@absl@@IET?$map_slot_type@HUExtension@ExtensionSet@internal@protobuf@google@@@234@PEAV1234@@std@@U?$integer_sequence@_K$00$0A@$03@2@U?$integer_sequence@_K$0A@$00@2@U?$integer_sequence@_K$0A@$00$01$02$03@2@U52@@internal_layout@container_internal@lts_20250814@absl@@QEBA_KXZ
	??$Size@$00@?$LayoutImpl@V?$tuple@PEAV?$btree_node@U?$map_params@UVariantKey@internal@protobuf@google@@PEAUNodeBase@234@U?$less@UVariantKey@internal@protobuf@google@@@std@@V?$MapAllocator@U?$pair@$$CBUVariantKey@internal@protobuf@google@@PEAUNodeBase@234@@std@@@234@$0BAA@$0A@@container_internal@lts_20250814@absl@@@container_internal@lts_20250814@absl@@IET?$map_slot_type@UVariantKey@internal@protobuf@google@@PEAUNodeBase@234@@234@PEAV1234@@std@@U?$integer_sequence@_K$00$0A@$03$09$0L@@2@U?$integer_sequence@_K$S@2@U?$integer_sequence@_K$0A@$00$01$02$03@2@U52@@internal_layout@container_internal@lts_20250814@absl@@QEBA_KXZ
	??$Size@$00@?$LayoutImpl@V?$tuple@PEAV?$btree_node@U?$map_params@UVariantKey@internal@protobuf@google@@PEAUNodeBase@234@U?$less@UVariantKey@internal@protobuf@google@@@std@@V?$MapAllocator@U?$pair@$$CBUVariantKey@internal@protobuf@google@@PEAUNodeBase@234@@std@@@234@$0BAA@$0A@@container_internal@lts_20250814@absl@@@container_internal@lts_20250814@absl@@IET?$map_slot_type@UVariantKey@internal@protobuf@google@@PEAUNodeBase@234@@234@PEAV1234@@std@@U?$integer_sequence@_K$00$0A@$03@2@U?$integer_sequence@_K$0A@$00@2@U?$integer_sequence@_K$0A@$00$01$02$03@2@U52@@internal_layout@container_internal@lts_20250814@absl@@QEBA_KXZ
	??$Size@$00@?$LayoutImpl@V?$tuple@USerialArenaChunkHeader@internal@protobuf@google@@U?$atomic@PEAX@std@@U?$atomic@PEAVSerialArena@internal@protobuf@google@@@6@@std@@U?$integer_sequence@_K$S@2@U?$integer_sequence@_K$0A@$00$01@2@U42@U42@@internal_layout@container_internal@lts_20250814@absl@@QEBA_KXZ
	??$Size@$01@?$LayoutImpl@V?$tuple@PEAV?$btree_node@U?$map_params@HUExtension@ExtensionSet@internal@protobuf@google@@U?$less@H@std@@V?$allocator@U?$pair@$$CBHUExtension@ExtensionSet@internal@protobuf@google@@@std@@@7@$0BAA@$0A@@container_internal@lts_20250814@absl@@@container_internal@lts_20250814@absl@@IET?$map_slot_type@HUExtension@ExtensionSet@internal@protobuf@google@@@234@PEAV1234@@std@@U?$integer_sequence@_K$00$0A@$03$06$07@2@U?$integer_sequence@_K$S@2@U?$integer_sequence@_K$0A@$00$01$02$03@2@U52@@internal_layout@container_internal@lts_20250814@absl@@QEBA_KXZ
	??$Size@$01@?$LayoutImpl@V?$tuple@PEAV?$btree_node@U?$map_params@HUExtension@ExtensionSet@internal@protobuf@google@@U?$less@H@std@@V?$allocator@U?$pair@$$CBHUExtension@ExtensionSet@internal@protobuf@google@@@std@@@7@$0BAA@$0A@@container_internal@lts_20250814@absl@@@container_internal@lts_20250814@absl@@IET?$map_slot_type@HUExtension@ExtensionSet@internal@protobuf@google@@@234@PEAV1234@@std@@U?$integer_sequence@_K$00$0A@$03@2@U?$integer_sequence@_K$0A@$00@2@U?$integer_sequence@_K$0A@$00$01$02$03@2@U52@@internal_layout@container_internal@lts_20250814@absl@@QEBA_KXZ
	??$Size@$01@?$LayoutImpl@V?$tuple@PEAV?$btree_node@U?$map_params@UVariantKey@internal@protobuf@google@@PEAUNodeBase@234@U?$less@UVariantKey@internal@protobuf@google@@@std@@V?$MapAllocator@U?$pair@$$CBUVariantKey@internal@protobuf@google@@PEAUNodeBase@234@@std@@@234@$0BAA@$0A@@container_internal@lts_20250814@absl@@@container_internal@lts_20250814@absl@@IET?$map_slot_type@UVariantKey@internal@protobuf@google@@PEAUNodeBase@234@@234@PEAV1234@@std@@U?$integer_sequence@_K$00$0A@$03$09$0L@@2@U?$integer_sequence@_K$S@2@U?$integer_sequence@_K$0A@$00$01$02$03@2@U52@@internal_layout@container_internal@lts_20250814@absl@@QEBA_KXZ
	??$Size@$01@?$LayoutImpl@V?$tuple@PEAV?$btree_node@U?$map_params@UVariantKey@internal@protobuf@google@@PEAUNodeBase@234@U?$less@UVariantKey@internal@protobuf@google@@@std@@V?$MapAllocator@U?$pair@$$CBUVariantKey@internal@protobuf@google@@PEAUNodeBase@234@@std@@@234@$0BAA@$0A@@container_internal@lts_20250814@absl@@@container_internal@lts_20250814@absl@@IET?$map_slot_type@UVariantKey@internal@protobuf@google@@PEAUNodeBase@234@@234@PEAV1234@@std@@U?$integer_sequence@_K$00$0A@$03@2@U?$integer_sequence@_K$0A@$00@2@U?$integer_sequence@_K$0A@$00$01$02$03@2@U52@@internal_layout@container_internal@lts_20250814@absl@@QEBA_KXZ
	??$Size@$01@?$LayoutImpl@V?$tuple@USerialArenaChunkHeader@internal@protobuf@google@@U?$atomic@PEAX@std@@U?$atomic@PEAVSerialArena@internal@protobuf@google@@@6@@std@@U?$integer_sequence@_K$S@2@U?$integer_sequence@_K$0A@$00$01@2@U42@U42@@internal_layout@container_internal@lts_20250814@absl@@QEBA_KXZ
	??$Size@$02@?$LayoutImpl@V?$tuple@PEAV?$btree_node@U?$map_params@HUExtension@ExtensionSet@internal@protobuf@google@@U?$less@H@std@@V?$allocator@U?$pair@$$CBHUExtension@ExtensionSet@internal@protobuf@google@@@std@@@7@$0BAA@$0A@@container_internal@lts_20250814@absl@@@container_internal@lts_20250814@absl@@IET?$map_slot_type@HUExtension@ExtensionSet@internal@protobuf@google@@@234@PEAV1234@@std@@U?$integer_sequence@_K$00$0A@$03$06$07@2@U?$integer_sequence@_K$S@2@U?$integer_sequence@_K$0A@$00$01$02$03@2@U52@@internal_layout@container_internal@lts_20250814@absl@@QEBA_KXZ
	??$Size@$02@?$LayoutImpl@V?$tuple@PEAV?$btree_node@U?$map_params@HUExtension@ExtensionSet@internal@protobuf@google@@U?$less@H@std@@V?$allocator@U?$pair@$$CBHUExtension@ExtensionSet@internal@protobuf@google@@@std@@@7@$0BAA@$0A@@container_internal@lts_20250814@absl@@@container_internal@lts_20250814@absl@@IET?$map_slot_type@HUExtension@ExtensionSet@internal@protobuf@google@@@234@PEAV1234@@std@@U?$integer_sequence@_K$00$0A@$03@2@U?$integer_sequence@_K$0A@$00@2@U?$integer_sequence@_K$0A@$00$01$02$03@2@U52@@internal_layout@container_internal@lts_20250814@absl@@QEBA_KXZ
	??$Size@$02@?$LayoutImpl@V?$tuple@PEAV?$btree_node@U?$map_params@UVariantKey@internal@protobuf@google@@PEAUNodeBase@234@U?$less@UVariantKey@internal@protobuf@google@@@std@@V?$MapAllocator@U?$pair@$$CBUVariantKey@internal@protobuf@google@@PEAUNodeBase@234@@std@@@234@$0BAA@$0A@@container_internal@lts_20250814@absl@@@container_internal@lts_20250814@absl@@IET?$map_slot_type@UVariantKey@internal@protobuf@google@@PEAUNodeBase@234@@234@PEAV1234@@std@@U?$integer_sequence@_K$00$0A@$03$09$0L@@2@U?$integer_sequence@_K$S@2@U?$integer_sequence@_K$0A@$00$01$02$03@2@U52@@internal_layout@container_internal@lts_20250814@absl@@QEBA_KXZ
	??$Size@$02@?$LayoutImpl@V?$tuple@PEAV?$btree_node@U?$map_params@UVariantKey@internal@protobuf@google@@PEAUNodeBase@234@U?$less@UVariantKey@internal@protobuf@google@@@std@@V?$MapAllocator@U?$pair@$$CBUVariantKey@internal@protobuf@google@@PEAUNodeBase@234@@std@@@234@$0BAA@$0A@@container_internal@lts_20250814@absl@@@container_internal@lts_20250814@absl@@IET?$map_slot_type@UVariantKey@internal@protobuf@google@@PEAUNodeBase@234@@234@PEAV1234@@std@@U?$integer_sequence@_K$00$0A@$03@2@U?$integer_sequence@_K$0A@$00@2@U?$integer_sequence@_K$0A@$00$01$02$03@2@U52@@internal_layout@container_internal@lts_20250814@absl@@QEBA_KXZ
	??$Size@$03@?$LayoutImpl@V?$tuple@PEAV?$btree_node@U?$map_params@HUExtension@ExtensionSet@internal@protobuf@google@@U?$less@H@std@@V?$allocator@U?$pair@$$CBHUExtension@ExtensionSet@internal@protobuf@google@@@std@@@7@$0BAA@$0A@@container_internal@lts_20250814@absl@@@container_internal@lts_20250814@absl@@IET?$map_slot_type@HUExtension@ExtensionSet@internal@protobuf@google@@@234@PEAV1234@@std@@U?$integer_sequence@_K$00$0A@$03$06$07@2@U?$integer_sequence@_K$S@2@U?$integer_sequence@_K$0A@$00$01$02$03@2@U52@@internal_layout@container_internal@lts_20250814@absl@@QEBA_KXZ
	??$Size@$03@?$LayoutImpl@V?$tuple@PEAV?$btree_node@U?$map_params@HUExtension@ExtensionSet@internal@protobuf@google@@U?$less@H@std@@V?$allocator@U?$pair@$$CBHUExtension@ExtensionSet@internal@protobuf@google@@@std@@@7@$0BAA@$0A@@container_internal@lts_20250814@absl@@@container_internal@lts_20250814@absl@@IET?$map_slot_type@HUExtension@ExtensionSet@internal@protobuf@google@@@234@PEAV1234@@std@@U?$integer_sequence@_K$00$0A@$03@2@U?$integer_sequence@_K$0A@$00@2@U?$integer_sequence@_K$0A@$00$01$02$03@2@U52@@internal_layout@container_internal@lts_20250814@absl@@QEBA_KXZ
	??$Size@$03@?$LayoutImpl@V?$tuple@PEAV?$btree_node@U?$map_params@UVariantKey@internal@protobuf@google@@PEAUNodeBase@234@U?$less@UVariantKey@internal@protobuf@google@@@std@@V?$MapAllocator@U?$pair@$$CBUVariantKey@internal@protobuf@google@@PEAUNodeBase@234@@std@@@234@$0BAA@$0A@@container_internal@lts_20250814@absl@@@container_internal@lts_20250814@absl@@IET?$map_slot_type@UVariantKey@internal@protobuf@google@@PEAUNodeBase@234@@234@PEAV1234@@std@@U?$integer_sequence@_K$00$0A@$03$09$0L@@2@U?$integer_sequence@_K$S@2@U?$integer_sequence@_K$0A@$00$01$02$03@2@U52@@internal_layout@container_internal@lts_20250814@absl@@QEBA_KXZ
	??$Size@$03@?$LayoutImpl@V?$tuple@PEAV?$btree_node@U?$map_params@UVariantKey@internal@protobuf@google@@PEAUNodeBase@234@U?$less@UVariantKey@internal@protobuf@google@@@std@@V?$MapAllocator@U?$pair@$$CBUVariantKey@internal@protobuf@google@@PEAUNodeBase@234@@std@@@234@$0BAA@$0A@@container_internal@lts_20250814@absl@@@container_internal@lts_20250814@absl@@IET?$map_slot_type@UVariantKey@internal@protobuf@google@@PEAUNodeBase@234@@234@PEAV1234@@std@@U?$integer_sequence@_K$00$0A@$03@2@U?$integer_sequence@_K$0A@$00@2@U?$integer_sequence@_K$0A@$00$01$02$03@2@U52@@internal_layout@container_internal@lts_20250814@absl@@QEBA_KXZ
	??$Size@$0A@@?$LayoutImpl@V?$tuple@PEAV?$btree_node@U?$map_params@HUExtension@ExtensionSet@internal@protobuf@google@@U?$less@H@std@@V?$allocator@U?$pair@$$CBHUExtension@ExtensionSet@internal@protobuf@google@@@std@@@7@$0BAA@$0A@@container_internal@lts_20250814@absl@@@container_internal@lts_20250814@absl@@IET?$map_slot_type@HUExtension@ExtensionSet@internal@protobuf@google@@@234@PEAV1234@@std@@U?$integer_sequence@_K$00$0A@$03$06$07@2@U?$integer_sequence@_K$S@2@U?$integer_sequence@_K$0A@$00$01$02$03@2@U52@@internal_layout@container_internal@lts_20250814@absl@@QEBA_KXZ
	??$Size@$0A@@?$LayoutImpl@V?$tuple@PEAV?$btree_node@U?$map_params@HUExtension@ExtensionSet@internal@protobuf@google@@U?$less@H@std@@V?$allocator@U?$pair@$$CBHUExtension@ExtensionSet@internal@protobuf@google@@@std@@@7@$0BAA@$0A@@container_internal@lts_20250814@absl@@@container_internal@lts_20250814@absl@@IET?$map_slot_type@HUExtension@ExtensionSet@internal@protobuf@google@@@234@PEAV1234@@std@@U?$integer_sequence@_K$00$0A@$03@2@U?$integer_sequence@_K$0A@$00@2@U?$integer_sequence@_K$0A@$00$01$02$03@2@U52@@internal_layout@container_internal@lts_20250814@absl@@QEBA_KXZ
	??$Size@$0A@@?$LayoutImpl@V?$tuple@PEAV?$btree_node@U?$map_params@UVariantKey@internal@protobuf@google@@PEAUNodeBase@234@U?$less@UVariantKey@internal@protobuf@google@@@std@@V?$MapAllocator@U?$pair@$$CBUVariantKey@internal@protobuf@google@@PEAUNodeBase@234@@std@@@234@$0BAA@$0A@@container_internal@lts_20250814@absl@@@container_internal@lts_20250814@absl@@IET?$map_slot_type@UVariantKey@internal@protobuf@google@@PEAUNodeBase@234@@234@PEAV1234@@std@@U?$integer_sequence@_K$00$0A@$03$09$0L@@2@U?$integer_sequence@_K$S@2@U?$integer_sequence@_K$0A@$00$01$02$03@2@U52@@internal_layout@container_internal@lts_20250814@absl@@QEBA_KXZ
	??$Size@$0A@@?$LayoutImpl@V?$tuple@PEAV?$btree_node@U?$map_params@UVariantKey@internal@protobuf@google@@PEAUNodeBase@234@U?$less@UVariantKey@internal@protobuf@google@@@std@@V?$MapAllocator@U?$pair@$$CBUVariantKey@internal@protobuf@google@@PEAUNodeBase@234@@std@@@234@$0BAA@$0A@@container_internal@lts_20250814@absl@@@container_internal@lts_20250814@absl@@IET?$map_slot_type@UVariantKey@internal@protobuf@google@@PEAUNodeBase@234@@234@PEAV1234@@std@@U?$integer_sequence@_K$00$0A@$03@2@U?$integer_sequence@_K$0A@$00@2@U?$integer_sequence@_K$0A@$00$01$02$03@2@U52@@internal_layout@container_internal@lts_20250814@absl@@QEBA_KXZ
	??$Size@$0A@@?$LayoutImpl@V?$tuple@USerialArenaChunkHeader@internal@protobuf@google@@U?$atomic@PEAX@std@@U?$atomic@PEAVSerialArena@internal@protobuf@google@@@6@@std@@U?$integer_sequence@_K$S@2@U?$integer_sequence@_K$0A@$00$01@2@U42@U42@@internal_layout@container_internal@lts_20250814@absl@@QEBA_KXZ
	??$Slice@$00$$CBD@?$LayoutImpl@V?$tuple@USerialArenaChunkHeader@internal@protobuf@google@@U?$atomic@PEAX@std@@U?$atomic@PEAVSerialArena@internal@protobuf@google@@@6@@std@@U?$integer_sequence@_K$S@2@U?$integer_sequence@_K$0A@$00$01@2@U42@U42@@internal_layout@container_internal@lts_20250814@absl@@QEBA?AV?$Span@$$CBU?$atomic@PEAX@std@@@34@PEBD@Z
	??$Slice@$01$$CBD@?$LayoutImpl@V?$tuple@USerialArenaChunkHeader@internal@protobuf@google@@U?$atomic@PEAX@std@@U?$atomic@PEAVSerialArena@internal@protobuf@google@@@6@@std@@U?$integer_sequence@_K$S@2@U?$integer_sequence@_K$0A@$00$01@2@U42@U42@@internal_layout@container_internal@lts_20250814@absl@@QEBA?AV?$Span@$$CBU?$atomic@PEAVSerialArena@internal@protobuf@google@@@std@@@34@PEBD@Z
	??$Slice@$01D@?$LayoutImpl@V?$tuple@USerialArenaChunkHeader@internal@protobuf@google@@U?$atomic@PEAX@std@@U?$atomic@PEAVSerialArena@internal@protobuf@google@@@6@@std@@U?$integer_sequence@_K$S@2@U?$integer_sequence@_K$0A@$00$01@2@U42@U42@@internal_layout@container_internal@lts_20250814@absl@@QEBA?AV?$Span@U?$atomic@PEAVSerialArena@internal@protobuf@google@@@std@@@34@PEAD@Z
	??$StrCat@$$V@lts_20250814@absl@@YA?AV?$basic_string@DU?$char_traits@D@std@@V?$allocator@D@2@@std@@AEBVAlphaNum@01@0000@Z
	??$StrCat@V?$basic_string@DU?$char_traits@D@std@@V?$allocator@D@2@@std@@@lts_20250814@absl@@YA?AV?$basic_string@DU?$char_traits@D@std@@V?$allocator@D@2@@std@@AEBVAlphaNum@01@0000AEBV23@@Z
	??$StrSplit@D@lts_20250814@absl@@YA?AV?$Splitter@VByChar@lts_20250814@absl@@UAllowEmpty@23@V?$basic_string_view@DU?$char_traits@D@std@@@std@@@strings_internal@01@VConvertibleToStringView@301@D@Z
	??$StubParseImpl@VImplicitWeakMessage@internal@protobuf@google@@$1?ParseImpl@1234@SAPEBDPEAV1234@PEBDPEAVParseContext@234@@Z@internal@protobuf@google@@YAPEBDPEAVMessageLite@12@PEBDPEAVParseContext@012@UTcFieldData@012@PEBUTcParseTableBase@012@_K@Z
	??$TrailingZeros@G@container_internal@lts_20250814@absl@@YAIG@Z
	??$TransferNRelocatable@$0DA@@container_internal@lts_20250814@absl@@YAXPEAX00_K@Z
	??$UnalignedLoad@E@internal@protobuf@google@@YAEPEBD@Z
	??$UnalignedLoad@G@internal@protobuf@google@@YAGPEBD@Z
	??$UnalignedLoad@H@internal@protobuf@google@@YAHPEBD@Z
	??$UnalignedLoad@I@internal@protobuf@google@@YAIPEBD@Z
	??$UnalignedLoad@M@internal@protobuf@google@@YAMPEBD@Z
	??$UnalignedLoad@N@internal@protobuf@google@@YANPEBD@Z
	??$UnalignedLoad@_J@internal@protobuf@google@@YA_JPEBD@Z
	??$UnalignedLoad@_K@internal@protobuf@google@@YA_KPEBD@Z
	??$UnsafeArenaReleaseLast@V?$GenericTypeHandler@VMessageLite@protobuf@google@@@internal@protobuf@google@@@RepeatedPtrFieldBase@internal@protobuf@google@@IEAAPEAVMessageLite@23@XZ
	??$UnsafeVarint@I@EpsCopyOutputStream@io@protobuf@google@@CAPEAEIPEAE@Z
	??$UnsafeVarint@_K@EpsCopyOutputStream@io@protobuf@google@@CAPEAE_KPEAE@Z
	??$VarintParse@_K@internal@protobuf@google@@YAPEBDPEBDPEA_K@Z
	??$VarintParser@H$00@internal@protobuf@google@@YAPEBDPEAXPEBDPEAVParseContext@012@@Z
	??$VarintParser@H$0A@@internal@protobuf@google@@YAPEBDPEAXPEBDPEAVParseContext@012@@Z
	??$VarintParser@I$0A@@internal@protobuf@google@@YAPEBDPEAXPEBDPEAVParseContext@012@@Z
	??$VarintParser@_J$00@internal@protobuf@google@@YAPEBDPEAXPEBDPEAVParseContext@012@@Z
	??$VarintParser@_J$0A@@internal@protobuf@google@@YAPEBDPEAXPEBDPEAVParseContext@012@@Z
	??$VarintParser@_K$0A@@internal@protobuf@google@@YAPEBDPEAXPEBDPEAVParseContext@012@@Z
	??$VarintParser@_N$0A@@internal@protobuf@google@@YAPEBDPEAXPEBDPEAVParseContext@012@@Z
	??$VarintShl@$00@internal@protobuf@google@@YA_NC_JAEA_J@Z
	??$VarintShl@$01@internal@protobuf@google@@YA_NC_JAEA_J@Z
	??$VarintShlAnd@$02@internal@protobuf@google@@YA_NC_JAEA_J@Z
	??$VarintShlAnd@$03@internal@protobuf@google@@YA_NC_JAEA_J@Z
	??$VarintShlAnd@$04@internal@protobuf@google@@YA_NC_JAEA_J@Z
	??$VarintShlAnd@$05@internal@protobuf@google@@YA_NC_JAEA_J@Z
	??$VarintShlAnd@$06@internal@protobuf@google@@YA_NC_JAEA_J@Z
	??$VarintShlAnd@$07@internal@protobuf@google@@YA_NC_JAEA_J@Z
	??$VarintShlByte@$00@internal@protobuf@google@@YA_JC_J@Z
	??$VarintShlByte@$01@internal@protobuf@google@@YA_JC_J@Z
	??$VarintShlByte@$02@internal@protobuf@google@@YA_JC_J@Z
	??$VarintShlByte@$03@internal@protobuf@google@@YA_JC_J@Z
	??$VarintShlByte@$04@internal@protobuf@google@@YA_JC_J@Z
	??$VarintShlByte@$05@internal@protobuf@google@@YA_JC_J@Z
	??$VarintShlByte@$06@internal@protobuf@google@@YA_JC_J@Z
	??$VarintShlByte@$07@internal@protobuf@google@@YA_JC_J@Z
	??$WireFormatParser@VUnknownFieldLiteParserHelper@internal@protobuf@google@@@internal@protobuf@google@@YAPEBDAEAVUnknownFieldLiteParserHelper@012@PEBDPEAVParseContext@012@@Z
	??$WriteFixedNoTagToArray@H@WireFormatLite@internal@protobuf@google@@SAPEAEAEBV?$RepeatedField@H@23@P6APEAEHPEAE@Z1@Z
	??$WriteFixedNoTagToArray@I@WireFormatLite@internal@protobuf@google@@SAPEAEAEBV?$RepeatedField@I@23@P6APEAEIPEAE@Z1@Z
	??$WriteFixedNoTagToArray@M@WireFormatLite@internal@protobuf@google@@SAPEAEAEBV?$RepeatedField@M@23@P6APEAEMPEAE@Z1@Z
	??$WriteFixedNoTagToArray@N@WireFormatLite@internal@protobuf@google@@SAPEAEAEBV?$RepeatedField@N@23@P6APEAENPEAE@Z1@Z
	??$WriteFixedNoTagToArray@_J@WireFormatLite@internal@protobuf@google@@SAPEAEAEBV?$RepeatedField@_J@23@P6APEAE_JPEAE@Z2@Z
	??$WriteFixedNoTagToArray@_K@WireFormatLite@internal@protobuf@google@@SAPEAEAEBV?$RepeatedField@_K@23@P6APEAE_KPEAE@Z2@Z
	??$WriteLengthDelimitedToUnknown@V?$basic_string@DU?$char_traits@D@std@@V?$allocator@D@2@@std@@@TcParser@internal@protobuf@google@@CAXPEAVMessageLite@23@HV?$basic_string_view@DU?$char_traits@D@std@@@std@@@Z
	??$WritePrimitiveNoTagToArray@H@WireFormatLite@internal@protobuf@google@@SAPEAEAEBV?$RepeatedField@H@23@P6APEAEHPEAE@Z1@Z
	??$WritePrimitiveNoTagToArray@I@WireFormatLite@internal@protobuf@google@@SAPEAEAEBV?$RepeatedField@I@23@P6APEAEIPEAE@Z1@Z
	??$WritePrimitiveNoTagToArray@_J@WireFormatLite@internal@protobuf@google@@SAPEAEAEBV?$RepeatedField@_J@23@P6APEAE_JPEAE@Z2@Z
	??$WritePrimitiveNoTagToArray@_K@WireFormatLite@internal@protobuf@google@@SAPEAEAEBV?$RepeatedField@_K@23@P6APEAE_KPEAE@Z2@Z
	??$WritePrimitiveNoTagToArray@_N@WireFormatLite@internal@protobuf@google@@SAPEAEAEBV?$RepeatedField@_N@23@P6APEAE_NPEAE@Z2@Z
	??$WritePrimitiveToArray@H@WireFormatLite@internal@protobuf@google@@SAPEAEHAEBV?$RepeatedField@H@23@P6APEAEHHPEAE@Z1@Z
	??$WritePrimitiveToArray@I@WireFormatLite@internal@protobuf@google@@SAPEAEHAEBV?$RepeatedField@I@23@P6APEAEHIPEAE@Z1@Z
	??$WritePrimitiveToArray@M@WireFormatLite@internal@protobuf@google@@SAPEAEHAEBV?$RepeatedField@M@23@P6APEAEHMPEAE@Z1@Z
	??$WritePrimitiveToArray@N@WireFormatLite@internal@protobuf@google@@SAPEAEHAEBV?$RepeatedField@N@23@P6APEAEHNPEAE@Z1@Z
	??$WritePrimitiveToArray@_J@WireFormatLite@internal@protobuf@google@@SAPEAEHAEBV?$RepeatedField@_J@23@P6APEAEH_JPEAE@Z2@Z
	??$WritePrimitiveToArray@_K@WireFormatLite@internal@protobuf@google@@SAPEAEHAEBV?$RepeatedField@_K@23@P6APEAEH_KPEAE@Z2@Z
	??$WritePrimitiveToArray@_N@WireFormatLite@internal@protobuf@google@@SAPEAEHAEBV?$RepeatedField@_N@23@P6APEAEH_NPEAE@Z2@Z
	??$WriteString@V?$basic_string@DU?$char_traits@D@std@@V?$allocator@D@2@@std@@@EpsCopyOutputStream@io@protobuf@google@@QEAAPEAEIAEBV?$basic_string@DU?$char_traits@D@std@@V?$allocator@D@2@@std@@PEAE@Z
	??$WriteVarintToUnknown@V?$basic_string@DU?$char_traits@D@std@@V?$allocator@D@2@@std@@@TcParser@internal@protobuf@google@@CAXPEAVMessageLite@23@HH@Z
	??$_Adl_verify_range@PEADPEAD@std@@YAXAEBQEAD0@Z
	??$_Adl_verify_range@PEAPEAUCachedBlock@SerialArena@internal@protobuf@google@@PEAPEAU12345@@std@@YAXAEBQEAPEAUCachedBlock@SerialArena@internal@protobuf@google@@0@Z
	??$_Adl_verify_range@PEAUKeyValue@ExtensionSet@internal@protobuf@google@@PEAU12345@@std@@YAXAEBQEAUKeyValue@ExtensionSet@internal@protobuf@google@@0@Z
	??$_Adl_verify_range@PEAW4TableEntryPtr@internal@protobuf@google@@PEAW41234@@std@@YAXAEBQEAW4TableEntryPtr@internal@protobuf@google@@0@Z
	??$_Adl_verify_range@PEBEPEBE@std@@YAXAEBQEBE0@Z
	??$_Adl_verify_range@PEBHPEBH@std@@YAXAEBQEBH0@Z
	??$_Adl_verify_range@PEBIPEBI@std@@YAXAEBQEBI0@Z
	??$_Adl_verify_range@PEBMPEBM@std@@YAXAEBQEBM0@Z
	??$_Adl_verify_range@PEBNPEBN@std@@YAXAEBQEBN0@Z
	??$_Adl_verify_range@PEBUEnumEntry@internal@protobuf@google@@PEBU1234@@std@@YAXAEBQEBUEnumEntry@internal@protobuf@google@@0@Z
	??$_Adl_verify_range@PEB_JPEB_J@std@@YAXAEBQEB_J0@Z
	??$_Adl_verify_range@PEB_KPEB_K@std@@YAXAEBQEB_K0@Z
	??$_Adl_verify_range@PEB_NPEB_N@std@@YAXAEBQEB_N0@Z
	??$_Adl_verify_range@V?$_Vector_iterator@V?$_Vector_val@U?$_Simple_types@H@std@@@std@@@std@@V12@@std@@YAXAEBV?$_Vector_iterator@V?$_Vector_val@U?$_Simple_types@H@std@@@std@@@0@0@Z
	??$_Adl_verify_range@V?$_Vector_iterator@V?$_Vector_val@U?$_Simple_types@I@std@@@std@@@std@@V12@@std@@YAXAEBV?$_Vector_iterator@V?$_Vector_val@U?$_Simple_types@I@std@@@std@@@0@0@Z
	??$_Adl_verify_range@V?$_Vector_iterator@V?$_Vector_val@U?$_Simple_types@U?$pair@P6AXPEBX@ZPEBX@std@@@std@@@std@@@std@@V12@@std@@YAXAEBV?$_Vector_iterator@V?$_Vector_val@U?$_Simple_types@U?$pair@P6AXPEBX@ZPEBX@std@@@std@@@std@@@0@0@Z
	??$_Allocate@$0BA@U_Default_allocate_traits@std@@@std@@YAPEAX_K@Z
	??$_Allocate_at_least_helper@V?$allocator@D@std@@@std@@YAPEADAEAV?$allocator@D@0@AEA_K@Z
	??$_Allocate_at_least_helper@V?$allocator@H@std@@@std@@YAPEAHAEAV?$allocator@H@0@AEA_K@Z
	??$_Allocate_at_least_helper@V?$allocator@I@std@@@std@@YAPEAIAEAV?$allocator@I@0@AEA_K@Z
	??$_Allocate_at_least_helper@V?$allocator@PEAX@std@@@std@@YAPEAPEAXAEAV?$allocator@PEAX@0@AEA_K@Z
	??$_Allocate_at_least_helper@V?$allocator@U?$pair@P6AXPEBX@ZPEBX@std@@@std@@@std@@YAPEAU?$pair@P6AXPEBX@ZPEBX@0@AEAV?$allocator@U?$pair@P6AXPEBX@ZPEBX@std@@@0@AEA_K@Z
	??$_Allocate_at_least_helper@V?$allocator@V?$basic_string@_WU?$char_traits@_W@std@@V?$allocator@_W@2@@std@@@std@@@std@@YAPEAV?$basic_string@_WU?$char_traits@_W@std@@V?$allocator@_W@2@@0@AEAV?$allocator@V?$basic_string@_WU?$char_traits@_W@std@@V?$allocator@_W@2@@std@@@0@AEA_K@Z
	??$_Allocate_at_least_helper@V?$allocator@_W@std@@@std@@YAPEA_WAEAV?$allocator@_W@0@AEA_K@Z
	??$_Allocate_for_capacity@$0A@@?$basic_string@DU?$char_traits@D@std@@V?$allocator@D@2@@std@@CAPEADAEAV?$allocator@D@1@AEA_K@Z
	??$_Allocate_for_capacity@$0A@@?$basic_string@_WU?$char_traits@_W@std@@V?$allocator@_W@2@@std@@CAPEA_WAEAV?$allocator@_W@1@AEA_K@Z
	??$_Allocate_manually_vector_aligned@U_Default_allocate_traits@std@@@std@@YAPEAX_K@Z
	??$_Assign@AEAH@?$_Optional_construct_base@F@std@@QEAAXAEAH@Z
	??$_Atomic_address_as@DU?$_Atomic_padded@_N@std@@@std@@YAPECDAEAU?$_Atomic_padded@_N@0@@Z
	??$_Atomic_address_as@DU?$_Atomic_padded@_N@std@@@std@@YAPEDDAEBU?$_Atomic_padded@_N@0@@Z
	??$_Atomic_address_as@HU?$_Atomic_padded@H@std@@@std@@YAPECHAEAU?$_Atomic_padded@H@0@@Z
	??$_Atomic_address_as@HU?$_Atomic_padded@H@std@@@std@@YAPEDHAEBU?$_Atomic_padded@H@0@@Z
	??$_Atomic_address_as@HU?$_Atomic_padded@I@std@@@std@@YAPECHAEAU?$_Atomic_padded@I@0@@Z
	??$_Atomic_address_as@HU?$_Atomic_padded@I@std@@@std@@YAPEDHAEBU?$_Atomic_padded@I@0@@Z
	??$_Atomic_address_as@JU?$_Atomic_padded@H@std@@@std@@YAPECJAEAU?$_Atomic_padded@H@0@@Z
	??$_Atomic_address_as@JU?$_Atomic_padded@I@std@@@std@@YAPECJAEAU?$_Atomic_padded@I@0@@Z
	??$_Atomic_address_as@_JU?$_Atomic_padded@P6APEAVLazyMessageExtension@ExtensionSet@internal@protobuf@google@@PEAVArena@45@@Z@std@@@std@@YAPED_JAEBU?$_Atomic_padded@P6APEAVLazyMessageExtension@ExtensionSet@internal@protobuf@google@@PEAVArena@45@@Z@0@@Z
	??$_Atomic_address_as@_JU?$_Atomic_padded@P6APEBDPEAVMessageLite@protobuf@google@@PEBDPEAVParseContext@internal@23@UTcFieldData@523@PEBUTcParseTableBase@523@_K@Z@std@@@std@@YAPED_JAEBU?$_Atomic_padded@P6APEBDPEAVMessageLite@protobuf@google@@PEBDPEAVParseContext@internal@23@UTcFieldData@523@PEBUTcParseTableBase@523@_K@Z@0@@Z
	??$_Atomic_address_as@_JU?$_Atomic_padded@PEAD@std@@@std@@YAPEC_JAEAU?$_Atomic_padded@PEAD@0@@Z
	??$_Atomic_address_as@_JU?$_Atomic_padded@PEAD@std@@@std@@YAPED_JAEBU?$_Atomic_padded@PEAD@0@@Z
	??$_Atomic_address_as@_JU?$_Atomic_padded@PEAUArenaBlock@internal@protobuf@google@@@std@@@std@@YAPEC_JAEAU?$_Atomic_padded@PEAUArenaBlock@internal@protobuf@google@@@0@@Z
	??$_Atomic_address_as@_JU?$_Atomic_padded@PEAUArenaBlock@internal@protobuf@google@@@std@@@std@@YAPED_JAEBU?$_Atomic_padded@PEAUArenaBlock@internal@protobuf@google@@@0@@Z
	??$_Atomic_address_as@_JU?$_Atomic_padded@PEAVSerialArena@internal@protobuf@google@@@std@@@std@@YAPEC_JAEAU?$_Atomic_padded@PEAVSerialArena@internal@protobuf@google@@@0@@Z
	??$_Atomic_address_as@_JU?$_Atomic_padded@PEAVSerialArena@internal@protobuf@google@@@std@@@std@@YAPED_JAEBU?$_Atomic_padded@PEAVSerialArena@internal@protobuf@google@@@0@@Z
	??$_Atomic_address_as@_JU?$_Atomic_padded@PEAVSerialArenaChunk@ThreadSafeArena@internal@protobuf@google@@@std@@@std@@YAPEC_JAEAU?$_Atomic_padded@PEAVSerialArenaChunk@ThreadSafeArena@internal@protobuf@google@@@0@@Z
	??$_Atomic_address_as@_JU?$_Atomic_padded@PEAVSerialArenaChunk@ThreadSafeArena@internal@protobuf@google@@@std@@@std@@YAPED_JAEBU?$_Atomic_padded@PEAVSerialArenaChunk@ThreadSafeArena@internal@protobuf@google@@@0@@Z
	??$_Atomic_address_as@_JU?$_Atomic_padded@PEAVStringBlock@internal@protobuf@google@@@std@@@std@@YAPEC_JAEAU?$_Atomic_padded@PEAVStringBlock@internal@protobuf@google@@@0@@Z
	??$_Atomic_address_as@_JU?$_Atomic_padded@PEAVStringBlock@internal@protobuf@google@@@std@@@std@@YAPED_JAEBU?$_Atomic_padded@PEAVStringBlock@internal@protobuf@google@@@0@@Z
	??$_Atomic_address_as@_JU?$_Atomic_padded@PEAX@std@@@std@@YAPEC_JAEAU?$_Atomic_padded@PEAX@0@@Z
	??$_Atomic_address_as@_JU?$_Atomic_padded@PEAX@std@@@std@@YAPED_JAEBU?$_Atomic_padded@PEAX@0@@Z
	??$_Atomic_address_as@_JU?$_Atomic_padded@PEBV?$basic_string@DU?$char_traits@D@std@@V?$allocator@D@2@@std@@@std@@@std@@YAPEC_JAEAU?$_Atomic_padded@PEBV?$basic_string@DU?$char_traits@D@std@@V?$allocator@D@2@@std@@@0@@Z
	??$_Atomic_address_as@_JU?$_Atomic_padded@PEBV?$basic_string@DU?$char_traits@D@std@@V?$allocator@D@2@@std@@@std@@@std@@YAPED_JAEBU?$_Atomic_padded@PEBV?$basic_string@DU?$char_traits@D@std@@V?$allocator@D@2@@std@@@0@@Z
	??$_Atomic_address_as@_JU?$_Atomic_padded@_K@std@@@std@@YAPEC_JAEAU?$_Atomic_padded@_K@0@@Z
	??$_Atomic_address_as@_JU?$_Atomic_padded@_K@std@@@std@@YAPED_JAEBU?$_Atomic_padded@_K@0@@Z
	??$_Atomic_reinterpret_as@D_N@std@@YADAEB_N@Z
	??$_Atomic_reinterpret_as@HH@std@@YAHAEBH@Z
	??$_Atomic_reinterpret_as@HI@std@@YAHAEBI@Z
	??$_Atomic_reinterpret_as@_JPEAD@std@@YA_JAEBQEAD@Z
	??$_Atomic_reinterpret_as@_JPEAUArenaBlock@internal@protobuf@google@@@std@@YA_JAEBQEAUArenaBlock@internal@protobuf@google@@@Z
	??$_Atomic_reinterpret_as@_JPEAVSerialArena@internal@protobuf@google@@@std@@YA_JAEBQEAVSerialArena@internal@protobuf@google@@@Z
	??$_Atomic_reinterpret_as@_JPEAVSerialArenaChunk@ThreadSafeArena@internal@protobuf@google@@@std@@YA_JAEBQEAVSerialArenaChunk@ThreadSafeArena@internal@protobuf@google@@@Z
	??$_Atomic_reinterpret_as@_JPEAVStringBlock@internal@protobuf@google@@@std@@YA_JAEBQEAVStringBlock@internal@protobuf@google@@@Z
	??$_Atomic_reinterpret_as@_JPEAX@std@@YA_JAEBQEAX@Z
	??$_Atomic_reinterpret_as@_JPEBV?$basic_string@DU?$char_traits@D@std@@V?$allocator@D@2@@std@@@std@@YA_JAEBQEBV?$basic_string@DU?$char_traits@D@std@@V?$allocator@D@2@@0@@Z
	??$_Atomic_reinterpret_as@_J_K@std@@YA_JAEB_K@Z
	??$_Buyheadnode@V?$allocator@U?$_Tree_node@U?$pair@$$CBV?$basic_string_view@DU?$char_traits@D@std@@@std@@PEBVRealDebugCounter@internal@protobuf@google@@@std@@PEAX@std@@@std@@@?$_Tree_node@U?$pair@$$CBV?$basic_string_view@DU?$char_traits@D@std@@@std@@PEBVRealDebugCounter@internal@protobuf@google@@@std@@PEAX@std@@SAPEAU01@AEAV?$allocator@U?$_Tree_node@U?$pair@$$CBV?$basic_string_view@DU?$char_traits@D@std@@@std@@PEBVRealDebugCounter@internal@protobuf@google@@@std@@PEAX@std@@@1@@Z
	??$_Buyheadnode@V?$allocator@U?$_Tree_node@U?$pair@$$CBV?$basic_string_view@DU?$char_traits@D@std@@@std@@V?$map@V?$basic_string_view@DU?$char_traits@D@std@@@std@@PEBVRealDebugCounter@internal@protobuf@google@@U?$less@V?$basic_string_view@DU?$char_traits@D@std@@@std@@@2@V?$allocator@U?$pair@$$CBV?$basic_string_view@DU?$char_traits@D@std@@@std@@PEBVRealDebugCounter@internal@protobuf@google@@@std@@@2@@2@@std@@PEAX@std@@@std@@@?$_Tree_node@U?$pair@$$CBV?$basic_string_view@DU?$char_traits@D@std@@@std@@V?$map@V?$basic_string_view@DU?$char_traits@D@std@@@std@@PEBVRealDebugCounter@internal@protobuf@google@@U?$less@V?$basic_string_view@DU?$char_traits@D@std@@@std@@@2@V?$allocator@U?$pair@$$CBV?$basic_string_view@DU?$char_traits@D@std@@@std@@PEBVRealDebugCounter@internal@protobuf@google@@@std@@@2@@2@@std@@PEAX@std@@SAPEAU01@AEAV?$allocator@U?$_Tree_node@U?$pair@$$CBV?$basic_string_view@DU?$char_traits@D@std@@@std@@V?$map@V?$basic_string_view@DU?$char_traits@D@std@@@std@@PEBVRealDebugCounter@internal@protobuf@google@@U?$less@V?$basic_string_view@DU?$char_traits@D@std@@@std@@@2@V?$allocator@U?$pair@$$CBV?$basic_string_view@DU?$char_traits@D@std@@@std@@PEBVRealDebugCounter@internal@protobuf@google@@@std@@@2@@2@@std@@PEAX@std@@@1@@Z
	??$_Construct@$00PEBD@?$basic_string@DU?$char_traits@D@std@@V?$allocator@D@2@@std@@AEAAXQEBD_K@Z
	??$_Construct@$00PEB_W@?$basic_string@_WU?$char_traits@_W@std@@V?$allocator@_W@2@@std@@AEAAXQEB_W_K@Z
	??$_Construct@$01PEBD@?$basic_string@DU?$char_traits@D@std@@V?$allocator@D@2@@std@@AEAAXQEBD_K@Z
	??$_Construct@$01PEB_W@?$basic_string@_WU?$char_traits@_W@std@@V?$allocator@_W@2@@std@@AEAAXQEB_W_K@Z
	??$_Construct@AEAH@?$_Optional_construct_base@F@std@@QEAAAEAFAEAH@Z
	??$_Construct_in_place@FAEAH@std@@YAXAEAFAEAH@Z
	??$_Construct_in_place@HAEBH@std@@YAXAEAHAEBH@Z
	??$_Construct_in_place@PEADAEAPEAD@std@@YAXAEAPEAD0@Z
	??$_Construct_in_place@PEADAEBQEAD@std@@YAXAEAPEADAEBQEAD@Z
	??$_Construct_in_place@PEAU?$_Tree_node@U?$pair@$$CBV?$basic_string_view@DU?$char_traits@D@std@@@std@@PEBVRealDebugCounter@internal@protobuf@google@@@std@@PEAX@std@@AEAPEAU12@@std@@YAXAEAPEAU?$_Tree_node@U?$pair@$$CBV?$basic_string_view@DU?$char_traits@D@std@@@std@@PEBVRealDebugCounter@internal@protobuf@google@@@std@@PEAX@0@0@Z
	??$_Construct_in_place@PEAU?$_Tree_node@U?$pair@$$CBV?$basic_string_view@DU?$char_traits@D@std@@@std@@PEBVRealDebugCounter@internal@protobuf@google@@@std@@PEAX@std@@AEBQEAU12@@std@@YAXAEAPEAU?$_Tree_node@U?$pair@$$CBV?$basic_string_view@DU?$char_traits@D@std@@@std@@PEBVRealDebugCounter@internal@protobuf@google@@@std@@PEAX@0@AEBQEAU10@@Z
	??$_Construct_in_place@PEAU?$_Tree_node@U?$pair@$$CBV?$basic_string_view@DU?$char_traits@D@std@@@std@@V?$map@V?$basic_string_view@DU?$char_traits@D@std@@@std@@PEBVRealDebugCounter@internal@protobuf@google@@U?$less@V?$basic_string_view@DU?$char_traits@D@std@@@std@@@2@V?$allocator@U?$pair@$$CBV?$basic_string_view@DU?$char_traits@D@std@@@std@@PEBVRealDebugCounter@internal@protobuf@google@@@std@@@2@@2@@std@@PEAX@std@@AEAPEAU12@@std@@YAXAEAPEAU?$_Tree_node@U?$pair@$$CBV?$basic_string_view@DU?$char_traits@D@std@@@std@@V?$map@V?$basic_string_view@DU?$char_traits@D@std@@@std@@PEBVRealDebugCounter@internal@protobuf@google@@U?$less@V?$basic_string_view@DU?$char_traits@D@std@@@std@@@2@V?$allocator@U?$pair@$$CBV?$basic_string_view@DU?$char_traits@D@std@@@std@@PEBVRealDebugCounter@internal@protobuf@google@@@std@@@2@@2@@std@@PEAX@0@0@Z
	??$_Construct_in_place@PEAU?$_Tree_node@U?$pair@$$CBV?$basic_string_view@DU?$char_traits@D@std@@@std@@V?$map@V?$basic_string_view@DU?$char_traits@D@std@@@std@@PEBVRealDebugCounter@internal@protobuf@google@@U?$less@V?$basic_string_view@DU?$char_traits@D@std@@@std@@@2@V?$allocator@U?$pair@$$CBV?$basic_string_view@DU?$char_traits@D@std@@@std@@PEBVRealDebugCounter@internal@protobuf@google@@@std@@@2@@2@@std@@PEAX@std@@AEBQEAU12@@std@@YAXAEAPEAU?$_Tree_node@U?$pair@$$CBV?$basic_string_view@DU?$char_traits@D@std@@@std@@V?$map@V?$basic_string_view@DU?$char_traits@D@std@@@std@@PEBVRealDebugCounter@internal@protobuf@google@@U?$less@V?$basic_string_view@DU?$char_traits@D@std@@@std@@@2@V?$allocator@U?$pair@$$CBV?$basic_string_view@DU?$char_traits@D@std@@@std@@PEBVRealDebugCounter@internal@protobuf@google@@@std@@@2@@2@@std@@PEAX@0@AEBQEAU10@@Z
	??$_Construct_in_place@PEAXAEBQEAX@std@@YAXAEAPEAXAEBQEAX@Z
	??$_Construct_in_place@PEA_WAEAPEA_W@std@@YAXAEAPEA_W0@Z
	??$_Construct_in_place@PEA_WAEBQEA_W@std@@YAXAEAPEA_WAEBQEA_W@Z
	??$_Construct_in_place@U?$pair@P6AXPEBX@ZPEBX@std@@U12@@std@@YAXAEAU?$pair@P6AXPEBX@ZPEBX@0@$$QEAU10@@Z
	??$_Construct_n@$$V@?$vector@IV?$allocator@I@std@@@std@@AEAAX_K@Z
	??$_Convert_size@_K_K@std@@YA_K_K@Z
	??$_Copy_backward_memmove@PEAUKeyValue@ExtensionSet@internal@protobuf@google@@PEAU12345@@std@@YAPEAUKeyValue@ExtensionSet@internal@protobuf@google@@PEAU12345@00@Z
	??$_Copy_backward_unchecked@PEAUKeyValue@ExtensionSet@internal@protobuf@google@@PEAU12345@@std@@YAPEAUKeyValue@ExtensionSet@internal@protobuf@google@@PEAU12345@00@Z
	??$_Copy_memmove@PEAHPEAH@std@@YAPEAHPEAH00@Z
	??$_Copy_memmove@PEAIPEAI@std@@YAPEAIPEAI00@Z
	??$_Copy_memmove@PEAPEAUCachedBlock@SerialArena@internal@protobuf@google@@PEAPEAU12345@@std@@YAPEAPEAUCachedBlock@SerialArena@internal@protobuf@google@@PEAPEAU12345@00@Z
	??$_Copy_memmove@PEAPEAXPEAPEAX@std@@YAPEAPEAXPEAPEAX00@Z
	??$_Copy_memmove@PEAU?$pair@P6AXPEBX@ZPEBX@std@@PEAU12@@std@@YAPEAU?$pair@P6AXPEBX@ZPEBX@0@PEAU10@00@Z
	??$_Copy_memmove@PEAUKeyValue@ExtensionSet@internal@protobuf@google@@PEAU12345@@std@@YAPEAUKeyValue@ExtensionSet@internal@protobuf@google@@PEAU12345@00@Z
	??$_Copy_memmove_n@PEBHPEAH@std@@YAPEAHPEBH_KPEAH@Z
	??$_Copy_memmove_n@PEBIPEAI@std@@YAPEAIPEBI_KPEAI@Z
	??$_Copy_memmove_n@PEBMPEAM@std@@YAPEAMPEBM_KPEAM@Z
	??$_Copy_memmove_n@PEBNPEAN@std@@YAPEANPEBN_KPEAN@Z
	??$_Copy_memmove_n@PEB_JPEA_J@std@@YAPEA_JPEB_J_KPEA_J@Z
	??$_Copy_memmove_n@PEB_KPEA_K@std@@YAPEA_KPEB_K_KPEA_K@Z
	??$_Copy_memmove_n@PEB_NPEA_N@std@@YAPEA_NPEB_N_KPEA_N@Z
	??$_Copy_memmove_tail@PEAH@std@@YAPEAHQEBDQEAH_K2@Z
	??$_Copy_memmove_tail@PEAI@std@@YAPEAIQEBDQEAI_K2@Z
	??$_Copy_memmove_tail@PEAM@std@@YAPEAMQEBDQEAM_K2@Z
	??$_Copy_memmove_tail@PEAN@std@@YAPEANQEBDQEAN_K2@Z
	??$_Copy_memmove_tail@PEAPEAUCachedBlock@SerialArena@internal@protobuf@google@@@std@@YAPEAPEAUCachedBlock@SerialArena@internal@protobuf@google@@QEBDQEAPEAU12345@_K2@Z
	??$_Copy_memmove_tail@PEAPEAX@std@@YAPEAPEAXQEBDQEAPEAX_K2@Z
	??$_Copy_memmove_tail@PEAU?$pair@P6AXPEBX@ZPEBX@std@@@std@@YAPEAU?$pair@P6AXPEBX@ZPEBX@0@QEBDQEAU10@_K2@Z
	??$_Copy_memmove_tail@PEAUKeyValue@ExtensionSet@internal@protobuf@google@@@std@@YAPEAUKeyValue@ExtensionSet@internal@protobuf@google@@QEBDQEAU12345@_K2@Z
	??$_Copy_memmove_tail@PEA_J@std@@YAPEA_JQEBDQEA_J_K2@Z
	??$_Copy_memmove_tail@PEA_K@std@@YAPEA_KQEBDQEA_K_K2@Z
	??$_Copy_memmove_tail@PEA_N@std@@YAPEA_NQEBDQEA_N_K2@Z
	??$_Copy_unchecked@PEAHPEAHPEAH@std@@YAPEAHPEAH00@Z
	??$_Copy_unchecked@PEAIPEAIPEAI@std@@YAPEAIPEAI00@Z
	??$_Copy_unchecked@PEAPEAUCachedBlock@SerialArena@internal@protobuf@google@@PEAPEAU12345@PEAPEAU12345@@std@@YAPEAPEAUCachedBlock@SerialArena@internal@protobuf@google@@PEAPEAU12345@00@Z
	??$_Copy_unchecked@PEAUKeyValue@ExtensionSet@internal@protobuf@google@@PEAU12345@PEAU12345@@std@@YAPEAUKeyValue@ExtensionSet@internal@protobuf@google@@PEAU12345@00@Z
	??$_Deallocate@$0BA@@std@@YAXPEAX_K@Z
	??$_Destroy_in_place@PEAD@std@@YAXAEAPEAD@Z
	??$_Destroy_in_place@PEAU?$_Tree_node@U?$pair@$$CBV?$basic_string_view@DU?$char_traits@D@std@@@std@@PEBVRealDebugCounter@internal@protobuf@google@@@std@@PEAX@std@@@std@@YAXAEAPEAU?$_Tree_node@U?$pair@$$CBV?$basic_string_view@DU?$char_traits@D@std@@@std@@PEBVRealDebugCounter@internal@protobuf@google@@@std@@PEAX@0@@Z
	??$_Destroy_in_place@PEAU?$_Tree_node@U?$pair@$$CBV?$basic_string_view@DU?$char_traits@D@std@@@std@@V?$map@V?$basic_string_view@DU?$char_traits@D@std@@@std@@PEBVRealDebugCounter@internal@protobuf@google@@U?$less@V?$basic_string_view@DU?$char_traits@D@std@@@std@@@2@V?$allocator@U?$pair@$$CBV?$basic_string_view@DU?$char_traits@D@std@@@std@@PEBVRealDebugCounter@internal@protobuf@google@@@std@@@2@@2@@std@@PEAX@std@@@std@@YAXAEAPEAU?$_Tree_node@U?$pair@$$CBV?$basic_string_view@DU?$char_traits@D@std@@@std@@V?$map@V?$basic_string_view@DU?$char_traits@D@std@@@std@@PEBVRealDebugCounter@internal@protobuf@google@@U?$less@V?$basic_string_view@DU?$char_traits@D@std@@@std@@@2@V?$allocator@U?$pair@$$CBV?$basic_string_view@DU?$char_traits@D@std@@@std@@PEBVRealDebugCounter@internal@protobuf@google@@@std@@@2@@2@@std@@PEAX@0@@Z
	??$_Destroy_in_place@PEA_W@std@@YAXAEAPEA_W@Z
	??$_Destroy_range@V?$allocator@H@std@@@std@@YAXPEAHQEAHAEAV?$allocator@H@0@@Z
	??$_Destroy_range@V?$allocator@I@std@@@std@@YAXPEAIQEAIAEAV?$allocator@I@0@@Z
	??$_Destroy_range@V?$allocator@PEAX@std@@@std@@YAXPEAPEAXQEAPEAXAEAV?$allocator@PEAX@0@@Z
	??$_Destroy_range@V?$allocator@U?$pair@P6AXPEBX@ZPEBX@std@@@std@@@std@@YAXPEAU?$pair@P6AXPEBX@ZPEBX@0@QEAU10@AEAV?$allocator@U?$pair@P6AXPEBX@ZPEBX@std@@@0@@Z
	??$_Destroy_range@V?$allocator@V?$basic_string@_WU?$char_traits@_W@std@@V?$allocator@_W@2@@std@@@std@@@std@@YAXPEAV?$basic_string@_WU?$char_traits@_W@std@@V?$allocator@_W@2@@0@QEAV10@AEAV?$allocator@V?$basic_string@_WU?$char_traits@_W@std@@V?$allocator@_W@2@@std@@@0@@Z
	??$_Emplace_back@$$V@?$_Uninitialized_backout_al@V?$allocator@H@std@@@std@@QEAAXXZ
	??$_Emplace_back@$$V@?$_Uninitialized_backout_al@V?$allocator@I@std@@@std@@QEAAXXZ
	??$_Emplace_back@H@?$_Uninitialized_backout_al@V?$allocator@H@std@@@std@@QEAAX$$QEAH@Z
	??$_Emplace_back@I@?$_Uninitialized_backout_al@V?$allocator@I@std@@@std@@QEAAX$$QEAI@Z
	??$_Emplace_back@PEAX@?$_Uninitialized_backout_al@V?$allocator@PEAX@std@@@std@@QEAAX$$QEAPEAX@Z
	??$_Emplace_back@U?$pair@P6AXPEBX@ZPEBX@std@@@?$_Uninitialized_backout_al@V?$allocator@U?$pair@P6AXPEBX@ZPEBX@std@@@std@@@std@@QEAAX$$QEAU?$pair@P6AXPEBX@ZPEBX@1@@Z
	??$_Emplace_back@V?$basic_string@_WU?$char_traits@_W@std@@V?$allocator@_W@2@@std@@@?$_Uninitialized_backout_al@V?$allocator@V?$basic_string@_WU?$char_traits@_W@std@@V?$allocator@_W@2@@std@@@std@@@std@@QEAAX$$QEAV?$basic_string@_WU?$char_traits@_W@std@@V?$allocator@_W@2@@1@@Z
	??$_Emplace_back_with_unused_capacity@AEBH@?$vector@HV?$allocator@H@std@@@std@@AEAAAEAHAEBH@Z
	??$_Emplace_back_with_unused_capacity@AEBQEAX@?$vector@PEAXV?$allocator@PEAX@std@@@std@@AEAAAEAPEAXAEBQEAX@Z
	??$_Emplace_back_with_unused_capacity@AEBV?$basic_string@_WU?$char_traits@_W@std@@V?$allocator@_W@2@@std@@@?$vector@V?$basic_string@_WU?$char_traits@_W@std@@V?$allocator@_W@2@@std@@V?$allocator@V?$basic_string@_WU?$char_traits@_W@std@@V?$allocator@_W@2@@std@@@2@@std@@AEAAAEAV?$basic_string@_WU?$char_traits@_W@std@@V?$allocator@_W@2@@1@AEBV21@@Z
	??$_Emplace_back_with_unused_capacity@U?$pair@P6AXPEBX@ZPEBX@std@@@?$vector@U?$pair@P6AXPEBX@ZPEBX@std@@V?$allocator@U?$pair@P6AXPEBX@ZPEBX@std@@@2@@std@@AEAAAEAU?$pair@P6AXPEBX@ZPEBX@1@$$QEAU21@@Z
	??$_Emplace_one_at_back@AEBH@?$vector@HV?$allocator@H@std@@@std@@AEAAAEAHAEBH@Z
	??$_Emplace_one_at_back@AEBQEAX@?$vector@PEAXV?$allocator@PEAX@std@@@std@@AEAAAEAPEAXAEBQEAX@Z
	??$_Emplace_one_at_back@AEBV?$basic_string@_WU?$char_traits@_W@std@@V?$allocator@_W@2@@std@@@?$vector@V?$basic_string@_WU?$char_traits@_W@std@@V?$allocator@_W@2@@std@@V?$allocator@V?$basic_string@_WU?$char_traits@_W@std@@V?$allocator@_W@2@@std@@@2@@std@@AEAAAEAV?$basic_string@_WU?$char_traits@_W@std@@V?$allocator@_W@2@@1@AEBV21@@Z
	??$_Emplace_one_at_back@U?$pair@P6AXPEBX@ZPEBX@std@@@?$vector@U?$pair@P6AXPEBX@ZPEBX@std@@V?$allocator@U?$pair@P6AXPEBX@ZPEBX@std@@@2@@std@@AEAAAEAU?$pair@P6AXPEBX@ZPEBX@1@$$QEAU21@@Z
	??$_Emplace_reallocate@AEBH@?$vector@HV?$allocator@H@std@@@std@@AEAAPEAHQEAHAEBH@Z
	??$_Emplace_reallocate@AEBQEAX@?$vector@PEAXV?$allocator@PEAX@std@@@std@@AEAAPEAPEAXQEAPEAXAEBQEAX@Z
	??$_Emplace_reallocate@AEBV?$basic_string@_WU?$char_traits@_W@std@@V?$allocator@_W@2@@std@@@?$vector@V?$basic_string@_WU?$char_traits@_W@std@@V?$allocator@_W@2@@std@@V?$allocator@V?$basic_string@_WU?$char_traits@_W@std@@V?$allocator@_W@2@@std@@@2@@std@@AEAAPEAV?$basic_string@_WU?$char_traits@_W@std@@V?$allocator@_W@2@@1@QEAV21@AEBV21@@Z
	??$_Emplace_reallocate@U?$pair@P6AXPEBX@ZPEBX@std@@@?$vector@U?$pair@P6AXPEBX@ZPEBX@std@@V?$allocator@U?$pair@P6AXPEBX@ZPEBX@std@@@2@@std@@AEAAPEAU?$pair@P6AXPEBX@ZPEBX@1@QEAU21@$$QEAU21@@Z
	??$_Erase_head@V?$allocator@U?$_Tree_node@U?$pair@$$CBV?$basic_string_view@DU?$char_traits@D@std@@@std@@PEBVRealDebugCounter@internal@protobuf@google@@@std@@PEAX@std@@@std@@@?$_Tree_val@U?$_Tree_simple_types@U?$pair@$$CBV?$basic_string_view@DU?$char_traits@D@std@@@std@@PEBVRealDebugCounter@internal@protobuf@google@@@std@@@std@@@std@@QEAAXAEAV?$allocator@U?$_Tree_node@U?$pair@$$CBV?$basic_string_view@DU?$char_traits@D@std@@@std@@PEBVRealDebugCounter@internal@protobuf@google@@@std@@PEAX@std@@@1@@Z
	??$_Erase_head@V?$allocator@U?$_Tree_node@U?$pair@$$CBV?$basic_string_view@DU?$char_traits@D@std@@@std@@V?$map@V?$basic_string_view@DU?$char_traits@D@std@@@std@@PEBVRealDebugCounter@internal@protobuf@google@@U?$less@V?$basic_string_view@DU?$char_traits@D@std@@@std@@@2@V?$allocator@U?$pair@$$CBV?$basic_string_view@DU?$char_traits@D@std@@@std@@PEBVRealDebugCounter@internal@protobuf@google@@@std@@@2@@2@@std@@PEAX@std@@@std@@@?$_Tree_val@U?$_Tree_simple_types@U?$pair@$$CBV?$basic_string_view@DU?$char_traits@D@std@@@std@@V?$map@V?$basic_string_view@DU?$char_traits@D@std@@@std@@PEBVRealDebugCounter@internal@protobuf@google@@U?$less@V?$basic_string_view@DU?$char_traits@D@std@@@std@@@2@V?$allocator@U?$pair@$$CBV?$basic_string_view@DU?$char_traits@D@std@@@std@@PEBVRealDebugCounter@internal@protobuf@google@@@std@@@2@@2@@std@@@std@@@std@@QEAAXAEAV?$allocator@U?$_Tree_node@U?$pair@$$CBV?$basic_string_view@DU?$char_traits@D@std@@@std@@V?$map@V?$basic_string_view@DU?$char_traits@D@std@@@std@@PEBVRealDebugCounter@internal@protobuf@google@@U?$less@V?$basic_string_view@DU?$char_traits@D@std@@@std@@@2@V?$allocator@U?$pair@$$CBV?$basic_string_view@DU?$char_traits@D@std@@@std@@PEBVRealDebugCounter@internal@protobuf@google@@@std@@@2@@2@@std@@PEAX@std@@@1@@Z
	??$_Erase_tree@V?$allocator@U?$_Tree_node@U?$pair@$$CBV?$basic_string_view@DU?$char_traits@D@std@@@std@@PEBVRealDebugCounter@internal@protobuf@google@@@std@@PEAX@std@@@std@@@?$_Tree_val@U?$_Tree_simple_types@U?$pair@$$CBV?$basic_string_view@DU?$char_traits@D@std@@@std@@PEBVRealDebugCounter@internal@protobuf@google@@@std@@@std@@@std@@QEAAXAEAV?$allocator@U?$_Tree_node@U?$pair@$$CBV?$basic_string_view@DU?$char_traits@D@std@@@std@@PEBVRealDebugCounter@internal@protobuf@google@@@std@@PEAX@std@@@1@PEAU?$_Tree_node@U?$pair@$$CBV?$basic_string_view@DU?$char_traits@D@std@@@std@@PEBVRealDebugCounter@internal@protobuf@google@@@std@@PEAX@1@@Z
	??$_Erase_tree@V?$allocator@U?$_Tree_node@U?$pair@$$CBV?$basic_string_view@DU?$char_traits@D@std@@@std@@V?$map@V?$basic_string_view@DU?$char_traits@D@std@@@std@@PEBVRealDebugCounter@internal@protobuf@google@@U?$less@V?$basic_string_view@DU?$char_traits@D@std@@@std@@@2@V?$allocator@U?$pair@$$CBV?$basic_string_view@DU?$char_traits@D@std@@@std@@PEBVRealDebugCounter@internal@protobuf@google@@@std@@@2@@2@@std@@PEAX@std@@@std@@@?$_Tree_val@U?$_Tree_simple_types@U?$pair@$$CBV?$basic_string_view@DU?$char_traits@D@std@@@std@@V?$map@V?$basic_string_view@DU?$char_traits@D@std@@@std@@PEBVRealDebugCounter@internal@protobuf@google@@U?$less@V?$basic_string_view@DU?$char_traits@D@std@@@std@@@2@V?$allocator@U?$pair@$$CBV?$basic_string_view@DU?$char_traits@D@std@@@std@@PEBVRealDebugCounter@internal@protobuf@google@@@std@@@2@@2@@std@@@std@@@std@@QEAAXAEAV?$allocator@U?$_Tree_node@U?$pair@$$CBV?$basic_string_view@DU?$char_traits@D@std@@@std@@V?$map@V?$basic_string_view@DU?$char_traits@D@std@@@std@@PEBVRealDebugCounter@internal@protobuf@google@@U?$less@V?$basic_string_view@DU?$char_traits@D@std@@@std@@@2@V?$allocator@U?$pair@$$CBV?$basic_string_view@DU?$char_traits@D@std@@@std@@PEBVRealDebugCounter@internal@protobuf@google@@@std@@@2@@2@@std@@PEAX@std@@@1@PEAU?$_Tree_node@U?$pair@$$CBV?$basic_string_view@DU?$char_traits@D@std@@@std@@V?$map@V?$basic_string_view@DU?$char_traits@D@std@@@std@@PEBVRealDebugCounter@internal@protobuf@google@@U?$less@V?$basic_string_view@DU?$char_traits@D@std@@@std@@@2@V?$allocator@U?$pair@$$CBV?$basic_string_view@DU?$char_traits@D@std@@@std@@PEBVRealDebugCounter@internal@protobuf@google@@@std@@@2@@2@@std@@PEAX@1@@Z
	??$_Fill_zero_memset@PEAPEAUCachedBlock@SerialArena@internal@protobuf@google@@@std@@YAXPEAPEAUCachedBlock@SerialArena@internal@protobuf@google@@_K@Z
	??$_Fill_zero_memset@PEAW4TableEntryPtr@internal@protobuf@google@@@std@@YAXPEAW4TableEntryPtr@internal@protobuf@google@@_K@Z
	??$_Find_first_of_pos_vectorized@DD@std@@YA_KQEBD_K01@Z
	??$_Find_last_of_pos_vectorized@DD@std@@YA_KQEBD_K01@Z
	??$_Find_last_vectorized@$$CBDD@std@@YAPEBDQEBD0D@Z
	??$_Find_lower_bound@V?$basic_string_view@DU?$char_traits@D@std@@@std@@@?$_Tree@V?$_Tmap_traits@V?$basic_string_view@DU?$char_traits@D@std@@@std@@PEBVRealDebugCounter@internal@protobuf@google@@U?$less@V?$basic_string_view@DU?$char_traits@D@std@@@std@@@2@V?$allocator@U?$pair@$$CBV?$basic_string_view@DU?$char_traits@D@std@@@std@@PEBVRealDebugCounter@internal@protobuf@google@@@std@@@2@$0A@@std@@@std@@IEBA?AU?$_Tree_find_result@PEAU?$_Tree_node@U?$pair@$$CBV?$basic_string_view@DU?$char_traits@D@std@@@std@@PEBVRealDebugCounter@internal@protobuf@google@@@std@@PEAX@std@@@1@AEBV?$basic_string_view@DU?$char_traits@D@std@@@1@@Z
	??$_Find_lower_bound@V?$basic_string_view@DU?$char_traits@D@std@@@std@@@?$_Tree@V?$_Tmap_traits@V?$basic_string_view@DU?$char_traits@D@std@@@std@@V?$map@V?$basic_string_view@DU?$char_traits@D@std@@@std@@PEBVRealDebugCounter@internal@protobuf@google@@U?$less@V?$basic_string_view@DU?$char_traits@D@std@@@std@@@2@V?$allocator@U?$pair@$$CBV?$basic_string_view@DU?$char_traits@D@std@@@std@@PEBVRealDebugCounter@internal@protobuf@google@@@std@@@2@@2@U?$less@V?$basic_string_view@DU?$char_traits@D@std@@@std@@@2@V?$allocator@U?$pair@$$CBV?$basic_string_view@DU?$char_traits@D@std@@@std@@V?$map@V?$basic_string_view@DU?$char_traits@D@std@@@std@@PEBVRealDebugCounter@internal@protobuf@google@@U?$less@V?$basic_string_view@DU?$char_traits@D@std@@@std@@@2@V?$allocator@U?$pair@$$CBV?$basic_string_view@DU?$char_traits@D@std@@@std@@PEBVRealDebugCounter@internal@protobuf@google@@@std@@@2@@2@@std@@@2@$0A@@std@@@std@@IEBA?AU?$_Tree_find_result@PEAU?$_Tree_node@U?$pair@$$CBV?$basic_string_view@DU?$char_traits@D@std@@@std@@V?$map@V?$basic_string_view@DU?$char_traits@D@std@@@std@@PEBVRealDebugCounter@internal@protobuf@google@@U?$less@V?$basic_string_view@DU?$char_traits@D@std@@@std@@@2@V?$allocator@U?$pair@$$CBV?$basic_string_view@DU?$char_traits@D@std@@@std@@PEBVRealDebugCounter@internal@protobuf@google@@@std@@@2@@2@@std@@PEAX@std@@@1@AEBV?$basic_string_view@DU?$char_traits@D@std@@@1@@Z
	??$_Freenode0@V?$allocator@U?$_Tree_node@U?$pair@$$CBV?$basic_string_view@DU?$char_traits@D@std@@@std@@PEBVRealDebugCounter@internal@protobuf@google@@@std@@PEAX@std@@@std@@@?$_Tree_node@U?$pair@$$CBV?$basic_string_view@DU?$char_traits@D@std@@@std@@PEBVRealDebugCounter@internal@protobuf@google@@@std@@PEAX@std@@SAXAEAV?$allocator@U?$_Tree_node@U?$pair@$$CBV?$basic_string_view@DU?$char_traits@D@std@@@std@@PEBVRealDebugCounter@internal@protobuf@google@@@std@@PEAX@std@@@1@PEAU01@@Z
	??$_Freenode0@V?$allocator@U?$_Tree_node@U?$pair@$$CBV?$basic_string_view@DU?$char_traits@D@std@@@std@@V?$map@V?$basic_string_view@DU?$char_traits@D@std@@@std@@PEBVRealDebugCounter@internal@protobuf@google@@U?$less@V?$basic_string_view@DU?$char_traits@D@std@@@std@@@2@V?$allocator@U?$pair@$$CBV?$basic_string_view@DU?$char_traits@D@std@@@std@@PEBVRealDebugCounter@internal@protobuf@google@@@std@@@2@@2@@std@@PEAX@std@@@std@@@?$_Tree_node@U?$pair@$$CBV?$basic_string_view@DU?$char_traits@D@std@@@std@@V?$map@V?$basic_string_view@DU?$char_traits@D@std@@@std@@PEBVRealDebugCounter@internal@protobuf@google@@U?$less@V?$basic_string_view@DU?$char_traits@D@std@@@std@@@2@V?$allocator@U?$pair@$$CBV?$basic_string_view@DU?$char_traits@D@std@@@std@@PEBVRealDebugCounter@internal@protobuf@google@@@std@@@2@@2@@std@@PEAX@std@@SAXAEAV?$allocator@U?$_Tree_node@U?$pair@$$CBV?$basic_string_view@DU?$char_traits@D@std@@@std@@V?$map@V?$basic_string_view@DU?$char_traits@D@std@@@std@@PEBVRealDebugCounter@internal@protobuf@google@@U?$less@V?$basic_string_view@DU?$char_traits@D@std@@@std@@@2@V?$allocator@U?$pair@$$CBV?$basic_string_view@DU?$char_traits@D@std@@@std@@PEBVRealDebugCounter@internal@protobuf@google@@@std@@@2@@2@@std@@PEAX@std@@@1@PEAU01@@Z
	??$_Freenode@V?$allocator@U?$_Tree_node@U?$pair@$$CBV?$basic_string_view@DU?$char_traits@D@std@@@std@@PEBVRealDebugCounter@internal@protobuf@google@@@std@@PEAX@std@@@std@@@?$_Tree_node@U?$pair@$$CBV?$basic_string_view@DU?$char_traits@D@std@@@std@@PEBVRealDebugCounter@internal@protobuf@google@@@std@@PEAX@std@@SAXAEAV?$allocator@U?$_Tree_node@U?$pair@$$CBV?$basic_string_view@DU?$char_traits@D@std@@@std@@PEBVRealDebugCounter@internal@protobuf@google@@@std@@PEAX@std@@@1@PEAU01@@Z
	??$_Freenode@V?$allocator@U?$_Tree_node@U?$pair@$$CBV?$basic_string_view@DU?$char_traits@D@std@@@std@@V?$map@V?$basic_string_view@DU?$char_traits@D@std@@@std@@PEBVRealDebugCounter@internal@protobuf@google@@U?$less@V?$basic_string_view@DU?$char_traits@D@std@@@std@@@2@V?$allocator@U?$pair@$$CBV?$basic_string_view@DU?$char_traits@D@std@@@std@@PEBVRealDebugCounter@internal@protobuf@google@@@std@@@2@@2@@std@@PEAX@std@@@std@@@?$_Tree_node@U?$pair@$$CBV?$basic_string_view@DU?$char_traits@D@std@@@std@@V?$map@V?$basic_string_view@DU?$char_traits@D@std@@@std@@PEBVRealDebugCounter@internal@protobuf@google@@U?$less@V?$basic_string_view@DU?$char_traits@D@std@@@std@@@2@V?$allocator@U?$pair@$$CBV?$basic_string_view@DU?$char_traits@D@std@@@std@@PEBVRealDebugCounter@internal@protobuf@google@@@std@@@2@@2@@std@@PEAX@std@@SAXAEAV?$allocator@U?$_Tree_node@U?$pair@$$CBV?$basic_string_view@DU?$char_traits@D@std@@@std@@V?$map@V?$basic_string_view@DU?$char_traits@D@std@@@std@@PEBVRealDebugCounter@internal@protobuf@google@@U?$less@V?$basic_string_view@DU?$char_traits@D@std@@@std@@@2@V?$allocator@U?$pair@$$CBV?$basic_string_view@DU?$char_traits@D@std@@@std@@PEBVRealDebugCounter@internal@protobuf@google@@@std@@@2@@2@@std@@PEAX@std@@@1@PEAU01@@Z
	??$_Get_size_of_n@$00@std@@YA_K_K@Z
	??$_Get_size_of_n@$01@std@@YA_K_K@Z
	??$_Get_size_of_n@$03@std@@YA_K_K@Z
	??$_Get_size_of_n@$07@std@@YA_K_K@Z
	??$_Get_size_of_n@$0BA@@std@@YA_K_K@Z
	??$_Get_size_of_n@$0CA@@std@@YA_K_K@Z
	??$_Get_size_of_n@$0DI@@std@@YA_K_K@Z
	??$_Get_size_of_n@$0EA@@std@@YA_K_K@Z
	??$_Get_unwrapped@AEAPEAPEAUCachedBlock@SerialArena@internal@protobuf@google@@@std@@YA?A_TAEAPEAPEAUCachedBlock@SerialArena@internal@protobuf@google@@@Z
	??$_Get_unwrapped@AEAPEAUKeyValue@ExtensionSet@internal@protobuf@google@@@std@@YA?A_TAEAPEAUKeyValue@ExtensionSet@internal@protobuf@google@@@Z
	??$_Get_unwrapped@AEAPEBH@std@@YA?A_TAEAPEBH@Z
	??$_Get_unwrapped@AEAPEBI@std@@YA?A_TAEAPEBI@Z
	??$_Get_unwrapped@AEAPEBM@std@@YA?A_TAEAPEBM@Z
	??$_Get_unwrapped@AEAPEBN@std@@YA?A_TAEAPEBN@Z
	??$_Get_unwrapped@AEAPEBUEnumEntry@internal@protobuf@google@@@std@@YA?A_TAEAPEBUEnumEntry@internal@protobuf@google@@@Z
	??$_Get_unwrapped@AEAPEB_J@std@@YA?A_TAEAPEB_J@Z
	??$_Get_unwrapped@AEAPEB_K@std@@YA?A_TAEAPEB_K@Z
	??$_Get_unwrapped@AEAPEB_N@std@@YA?A_TAEAPEB_N@Z
	??$_Get_unwrapped@AEAV?$_Vector_iterator@V?$_Vector_val@U?$_Simple_types@H@std@@@std@@@std@@@std@@YA?A_TAEAV?$_Vector_iterator@V?$_Vector_val@U?$_Simple_types@H@std@@@std@@@0@@Z
	??$_Get_unwrapped@AEAV?$_Vector_iterator@V?$_Vector_val@U?$_Simple_types@I@std@@@std@@@std@@@std@@YA?A_TAEAV?$_Vector_iterator@V?$_Vector_val@U?$_Simple_types@I@std@@@std@@@0@@Z
	??$_Get_unwrapped@AEBQEAD@std@@YA?A_TAEBQEAD@Z
	??$_Get_unwrapped@AEBQEAH@std@@YA?A_TAEBQEAH@Z
	??$_Get_unwrapped@AEBQEAI@std@@YA?A_TAEBQEAI@Z
	??$_Get_unwrapped@AEBQEAPEAUCachedBlock@SerialArena@internal@protobuf@google@@@std@@YA?A_TAEBQEAPEAUCachedBlock@SerialArena@internal@protobuf@google@@@Z
	??$_Get_unwrapped@AEBQEAPEAX@std@@YA?A_TAEBQEAPEAX@Z
	??$_Get_unwrapped@AEBQEAU?$pair@P6AXPEBX@ZPEBX@std@@@std@@YA?A_TAEBQEAU?$pair@P6AXPEBX@ZPEBX@0@@Z
	??$_Get_unwrapped@AEBQEAV?$basic_string@_WU?$char_traits@_W@std@@V?$allocator@_W@2@@std@@@std@@YA?A_TAEBQEAV?$basic_string@_WU?$char_traits@_W@std@@V?$allocator@_W@2@@0@@Z
	??$_Get_unwrapped@AEBQEAW4TableEntryPtr@internal@protobuf@google@@@std@@YA?A_TAEBQEAW4TableEntryPtr@internal@protobuf@google@@@Z
	??$_Get_unwrapped@AEBQEBE@std@@YA?A_TAEBQEBE@Z
	??$_Get_unwrapped@AEBQEBH@std@@YA?A_TAEBQEBH@Z
	??$_Get_unwrapped@AEBQEBUEnumEntry@internal@protobuf@google@@@std@@YA?A_TAEBQEBUEnumEntry@internal@protobuf@google@@@Z
	??$_Get_unwrapped@AEBV?$_Vector_iterator@V?$_Vector_val@U?$_Simple_types@U?$pair@P6AXPEBX@ZPEBX@std@@@std@@@std@@@std@@@std@@YA?A_TAEBV?$_Vector_iterator@V?$_Vector_val@U?$_Simple_types@U?$pair@P6AXPEBX@ZPEBX@std@@@std@@@std@@@0@@Z
	??$_Get_unwrapped_n@AEAPEAD_J@std@@YA?A_TAEAPEAD_J@Z
	??$_Get_unwrapped_n@AEAPEAHH@std@@YA?A_TAEAPEAHH@Z
	??$_Get_unwrapped_n@AEAPEAH_J@std@@YA?A_TAEAPEAH_J@Z
	??$_Get_unwrapped_n@AEAPEAIH@std@@YA?A_TAEAPEAIH@Z
	??$_Get_unwrapped_n@AEAPEAMH@std@@YA?A_TAEAPEAMH@Z
	??$_Get_unwrapped_n@AEAPEANH@std@@YA?A_TAEAPEANH@Z
	??$_Get_unwrapped_n@AEAPEAUKeyValue@ExtensionSet@internal@protobuf@google@@_J@std@@YA?A_TAEAPEAUKeyValue@ExtensionSet@internal@protobuf@google@@_J@Z
	??$_Get_unwrapped_n@AEAPEA_JH@std@@YA?A_TAEAPEA_JH@Z
	??$_Get_unwrapped_n@AEAPEA_KH@std@@YA?A_TAEAPEA_KH@Z
	??$_Get_unwrapped_n@AEAPEA_NH@std@@YA?A_TAEAPEA_NH@Z
	??$_Get_unwrapped_n@AEBQEBHH@std@@YA?A_TAEBQEBHH@Z
	??$_Get_unwrapped_n@AEBQEBIH@std@@YA?A_TAEBQEBIH@Z
	??$_Get_unwrapped_n@AEBQEBMH@std@@YA?A_TAEBQEBMH@Z
	??$_Get_unwrapped_n@AEBQEBNH@std@@YA?A_TAEBQEBNH@Z
	??$_Get_unwrapped_n@AEBQEB_JH@std@@YA?A_TAEBQEB_JH@Z
	??$_Get_unwrapped_n@AEBQEB_KH@std@@YA?A_TAEBQEB_KH@Z
	??$_Get_unwrapped_n@AEBQEB_NH@std@@YA?A_TAEBQEB_NH@Z
	??$_Get_unwrapped_n@PEAI_J@std@@YA?A_T$$QEAPEAI_J@Z
	??$_Get_unwrapped_n@PEAPEAUCachedBlock@SerialArena@internal@protobuf@google@@_J@std@@YA?A_T$$QEAPEAPEAUCachedBlock@SerialArena@internal@protobuf@google@@_J@Z
	??$_Get_unwrapped_n@PEAUKeyValue@ExtensionSet@internal@protobuf@google@@_J@std@@YA?A_T$$QEAPEAUKeyValue@ExtensionSet@internal@protobuf@google@@_J@Z
	??$_Get_unwrapped_n@V?$btree_iterator@V?$btree_node@U?$map_params@HUExtension@ExtensionSet@internal@protobuf@google@@U?$less@H@std@@V?$allocator@U?$pair@$$CBHUExtension@ExtensionSet@internal@protobuf@google@@@std@@@7@$0BAA@$0A@@container_internal@lts_20250814@absl@@@container_internal@lts_20250814@absl@@AEAU?$pair@$$CBHUExtension@ExtensionSet@internal@protobuf@google@@@std@@PEAU56@@container_internal@lts_20250814@absl@@_J@std@@YA?A_T$$QEAV?$btree_iterator@V?$btree_node@U?$map_params@HUExtension@ExtensionSet@internal@protobuf@google@@U?$less@H@std@@V?$allocator@U?$pair@$$CBHUExtension@ExtensionSet@internal@protobuf@google@@@std@@@7@$0BAA@$0A@@container_internal@lts_20250814@absl@@@container_internal@lts_20250814@absl@@AEAU?$pair@$$CBHUExtension@ExtensionSet@internal@protobuf@google@@@std@@PEAU56@@container_internal@lts_20250814@absl@@_J@Z
	??$_Get_unwrapped_n@V?$btree_iterator@V?$btree_node@U?$map_params@UVariantKey@internal@protobuf@google@@PEAUNodeBase@234@U?$less@UVariantKey@internal@protobuf@google@@@std@@V?$MapAllocator@U?$pair@$$CBUVariantKey@internal@protobuf@google@@PEAUNodeBase@234@@std@@@234@$0BAA@$0A@@container_internal@lts_20250814@absl@@@container_internal@lts_20250814@absl@@AEAU?$pair@$$CBUVariantKey@internal@protobuf@google@@PEAUNodeBase@234@@std@@PEAU56@@container_internal@lts_20250814@absl@@_J@std@@YA?A_T$$QEAV?$btree_iterator@V?$btree_node@U?$map_params@UVariantKey@internal@protobuf@google@@PEAUNodeBase@234@U?$less@UVariantKey@internal@protobuf@google@@@std@@V?$MapAllocator@U?$pair@$$CBUVariantKey@internal@protobuf@google@@PEAUNodeBase@234@@std@@@234@$0BAA@$0A@@container_internal@lts_20250814@absl@@@container_internal@lts_20250814@absl@@AEAU?$pair@$$CBUVariantKey@internal@protobuf@google@@PEAUNodeBase@234@@std@@PEAU56@@container_internal@lts_20250814@absl@@_J@Z
	??$_Getvals@_W@?$time_get@DV?$istreambuf_iterator@DU?$char_traits@D@std@@@std@@@std@@IEAAX_WAEBV_Locinfo@1@@Z
	??$_Getvals@_W@?$time_get@_WV?$istreambuf_iterator@_WU?$char_traits@_W@std@@@std@@@std@@IEAAX_WAEBV_Locinfo@1@@Z
	??$_Idl_dist_add@_J_J@std@@YA?A_P_J0@Z
	??$_Idl_distance@PEADPEAD@std@@YA?A_PAEBQEAD0@Z
	??$_Idl_distance@PEAPEAUCachedBlock@SerialArena@internal@protobuf@google@@PEAPEAU12345@@std@@YA?A_PAEBQEAPEAUCachedBlock@SerialArena@internal@protobuf@google@@0@Z
	??$_Idl_distance@PEAUKeyValue@ExtensionSet@internal@protobuf@google@@PEAU12345@@std@@YA?A_PAEBQEAUKeyValue@ExtensionSet@internal@protobuf@google@@0@Z
	??$_Idl_distance@V?$_Vector_iterator@V?$_Vector_val@U?$_Simple_types@H@std@@@std@@@std@@PEAH@std@@YA?A_PAEBQEAH0@Z
	??$_Idl_distance@V?$_Vector_iterator@V?$_Vector_val@U?$_Simple_types@I@std@@@std@@@std@@PEAI@std@@YA?A_PAEBQEAI0@Z
	??$_Insert_string@_WU?$char_traits@_W@std@@_K@std@@YAAEAV?$basic_ostream@_WU?$char_traits@_W@std@@@0@AEAV10@QEB_W_K@Z
	??$_Is_all_bits_zero@$$T@std@@YA_NAEB$$T@Z
	??$_Is_all_bits_zero@W4TableEntryPtr@internal@protobuf@google@@@std@@YA_NAEBW4TableEntryPtr@internal@protobuf@google@@@Z
	??$_Kfn@$$CBV?$basic_string_view@DU?$char_traits@D@std@@@std@@PEBVRealDebugCounter@internal@protobuf@google@@@?$_Tmap_traits@V?$basic_string_view@DU?$char_traits@D@std@@@std@@PEBVRealDebugCounter@internal@protobuf@google@@U?$less@V?$basic_string_view@DU?$char_traits@D@std@@@std@@@2@V?$allocator@U?$pair@$$CBV?$basic_string_view@DU?$char_traits@D@std@@@std@@PEBVRealDebugCounter@internal@protobuf@google@@@std@@@2@$0A@@std@@SAAEBV?$basic_string_view@DU?$char_traits@D@std@@@1@AEBU?$pair@$$CBV?$basic_string_view@DU?$char_traits@D@std@@@std@@PEBVRealDebugCounter@internal@protobuf@google@@@1@@Z
	??$_Kfn@$$CBV?$basic_string_view@DU?$char_traits@D@std@@@std@@V?$map@V?$basic_string_view@DU?$char_traits@D@std@@@std@@PEBVRealDebugCounter@internal@protobuf@google@@U?$less@V?$basic_string_view@DU?$char_traits@D@std@@@std@@@2@V?$allocator@U?$pair@$$CBV?$basic_string_view@DU?$char_traits@D@std@@@std@@PEBVRealDebugCounter@internal@protobuf@google@@@std@@@2@@2@@?$_Tmap_traits@V?$basic_string_view@DU?$char_traits@D@std@@@std@@V?$map@V?$basic_string_view@DU?$char_traits@D@std@@@std@@PEBVRealDebugCounter@internal@protobuf@google@@U?$less@V?$basic_string_view@DU?$char_traits@D@std@@@std@@@2@V?$allocator@U?$pair@$$CBV?$basic_string_view@DU?$char_traits@D@std@@@std@@PEBVRealDebugCounter@internal@protobuf@google@@@std@@@2@@2@U?$less@V?$basic_string_view@DU?$char_traits@D@std@@@std@@@2@V?$allocator@U?$pair@$$CBV?$basic_string_view@DU?$char_traits@D@std@@@std@@V?$map@V?$basic_string_view@DU?$char_traits@D@std@@@std@@PEBVRealDebugCounter@internal@protobuf@google@@U?$less@V?$basic_string_view@DU?$char_traits@D@std@@@std@@@2@V?$allocator@U?$pair@$$CBV?$basic_string_view@DU?$char_traits@D@std@@@std@@PEBVRealDebugCounter@internal@protobuf@google@@@std@@@2@@2@@std@@@2@$0A@@std@@SAAEBV?$basic_string_view@DU?$char_traits@D@std@@@1@AEBU?$pair@$$CBV?$basic_string_view@DU?$char_traits@D@std@@@std@@V?$map@V?$basic_string_view@DU?$char_traits@D@std@@@std@@PEBVRealDebugCounter@internal@protobuf@google@@U?$less@V?$basic_string_view@DU?$char_traits@D@std@@@std@@@2@V?$allocator@U?$pair@$$CBV?$basic_string_view@DU?$char_traits@D@std@@@std@@PEBVRealDebugCounter@internal@protobuf@google@@@std@@@2@@2@@1@@Z
	??$_Lower_bound_duplicate@V?$basic_string_view@DU?$char_traits@D@std@@@std@@@?$_Tree@V?$_Tmap_traits@V?$basic_string_view@DU?$char_traits@D@std@@@std@@PEBVRealDebugCounter@internal@protobuf@google@@U?$less@V?$basic_string_view@DU?$char_traits@D@std@@@std@@@2@V?$allocator@U?$pair@$$CBV?$basic_string_view@DU?$char_traits@D@std@@@std@@PEBVRealDebugCounter@internal@protobuf@google@@@std@@@2@$0A@@std@@@std@@IEBA_NQEAU?$_Tree_node@U?$pair@$$CBV?$basic_string_view@DU?$char_traits@D@std@@@std@@PEBVRealDebugCounter@internal@protobuf@google@@@std@@PEAX@1@AEBV?$basic_string_view@DU?$char_traits@D@std@@@1@@Z
	??$_Lower_bound_duplicate@V?$basic_string_view@DU?$char_traits@D@std@@@std@@@?$_Tree@V?$_Tmap_traits@V?$basic_string_view@DU?$char_traits@D@std@@@std@@V?$map@V?$basic_string_view@DU?$char_traits@D@std@@@std@@PEBVRealDebugCounter@internal@protobuf@google@@U?$less@V?$basic_string_view@DU?$char_traits@D@std@@@std@@@2@V?$allocator@U?$pair@$$CBV?$basic_string_view@DU?$char_traits@D@std@@@std@@PEBVRealDebugCounter@internal@protobuf@google@@@std@@@2@@2@U?$less@V?$basic_string_view@DU?$char_traits@D@std@@@std@@@2@V?$allocator@U?$pair@$$CBV?$basic_string_view@DU?$char_traits@D@std@@@std@@V?$map@V?$basic_string_view@DU?$char_traits@D@std@@@std@@PEBVRealDebugCounter@internal@protobuf@google@@U?$less@V?$basic_string_view@DU?$char_traits@D@std@@@std@@@2@V?$allocator@U?$pair@$$CBV?$basic_string_view@DU?$char_traits@D@std@@@std@@PEBVRealDebugCounter@internal@protobuf@google@@@std@@@2@@2@@std@@@2@$0A@@std@@@std@@IEBA_NQEAU?$_Tree_node@U?$pair@$$CBV?$basic_string_view@DU?$char_traits@D@std@@@std@@V?$map@V?$basic_string_view@DU?$char_traits@D@std@@@std@@PEBVRealDebugCounter@internal@protobuf@google@@U?$less@V?$basic_string_view@DU?$char_traits@D@std@@@std@@@2@V?$allocator@U?$pair@$$CBV?$basic_string_view@DU?$char_traits@D@std@@@std@@PEBVRealDebugCounter@internal@protobuf@google@@@std@@@2@@2@@std@@PEAX@1@AEBV?$basic_string_view@DU?$char_traits@D@std@@@1@@Z
	??$_Max_limit@_J@std@@YA_JXZ
	??$_Next_iter@PEBH@std@@YAPEBHPEBH@Z
	??$_Next_iter@PEBUEnumEntry@internal@protobuf@google@@@std@@YAPEBUEnumEntry@internal@protobuf@google@@PEBU1234@@Z
	??$_Pocca@V?$allocator@D@std@@@std@@YAXAEAV?$allocator@D@0@AEBV10@@Z
	??$_Pocca@V?$allocator@_W@std@@@std@@YAXAEAV?$allocator@_W@0@AEBV10@@Z
	??$_Pocma@V?$allocator@D@std@@@std@@YAXAEAV?$allocator@D@0@0@Z
	??$_Pocma@V?$allocator@H@std@@@std@@YAXAEAV?$allocator@H@0@0@Z
	??$_Pocma@V?$allocator@_W@std@@@std@@YAXAEAV?$allocator@_W@0@0@Z
	??$_Pocs@V?$allocator@D@std@@@std@@YAXAEAV?$allocator@D@0@0@Z
	??$_Reallocate_for@V<lambda_3fa8b2c8193a0f3144fc4b1b8f243931>@@PEB_W@?$basic_string@_WU?$char_traits@_W@std@@V?$allocator@_W@2@@std@@AEAAAEAV01@_KV<lambda_3fa8b2c8193a0f3144fc4b1b8f243931>@@PEB_W@Z
	??$_Reallocate_for@V<lambda_66f57f934f28d61049862f64df852ff0>@@PEBD@?$basic_string@DU?$char_traits@D@std@@V?$allocator@D@2@@std@@AEAAAEAV01@_KV<lambda_66f57f934f28d61049862f64df852ff0>@@PEBD@Z
	??$_Reallocate_grow_by@V<lambda_1dfe18491bcca09701d8ccb01d0b0af4>@@PEB_W_K@?$basic_string@_WU?$char_traits@_W@std@@V?$allocator@_W@2@@std@@AEAAAEAV01@_KV<lambda_1dfe18491bcca09701d8ccb01d0b0af4>@@PEB_W_K@Z
	??$_Reallocate_grow_by@V<lambda_319d5e083f45f90dcdce5dce53cbb275>@@D@?$basic_string@DU?$char_traits@D@std@@V?$allocator@D@2@@std@@AEAAAEAV01@_KV<lambda_319d5e083f45f90dcdce5dce53cbb275>@@D@Z
	??$_Reallocate_grow_by@V<lambda_65e615be2a453ca0576c979606f46740>@@PEBD_K@?$basic_string@DU?$char_traits@D@std@@V?$allocator@D@2@@std@@AEAAAEAV01@_KV<lambda_65e615be2a453ca0576c979606f46740>@@PEBD_K@Z
	??$_Reallocate_grow_by@V<lambda_9013ee9e23efe4882b67eff5b0ecf103>@@$$V@?$basic_string@DU?$char_traits@D@std@@V?$allocator@D@2@@std@@AEAAAEAV01@_KV<lambda_9013ee9e23efe4882b67eff5b0ecf103>@@@Z
	??$_Reallocate_grow_by@V<lambda_967c2ed818824c5314a20ec3af46b793>@@_KPEB_W_K@?$basic_string@_WU?$char_traits@_W@std@@V?$allocator@_W@2@@std@@AEAAAEAV01@_KV<lambda_967c2ed818824c5314a20ec3af46b793>@@_KPEB_W2@Z
	??$_Reallocate_grow_by@V<lambda_e1befb086ad3257e3f042a63030725f7>@@_KD@?$basic_string@DU?$char_traits@D@std@@V?$allocator@D@2@@std@@AEAAAEAV01@_KV<lambda_e1befb086ad3257e3f042a63030725f7>@@_KD@Z
	??$_Resize@U_Value_init_tag@std@@@?$vector@HV?$allocator@H@std@@@std@@AEAAX_KAEBU_Value_init_tag@1@@Z
	??$_Resize@U_Value_init_tag@std@@@?$vector@IV?$allocator@I@std@@@std@@AEAAX_KAEBU_Value_init_tag@1@@Z
	??$_Resize_reallocate@U_Value_init_tag@std@@@?$vector@HV?$allocator@H@std@@@std@@AEAAX_KAEBU_Value_init_tag@1@@Z
	??$_Resize_reallocate@U_Value_init_tag@std@@@?$vector@IV?$allocator@I@std@@@std@@AEAAX_KAEBU_Value_init_tag@1@@Z
	??$_Seek_wrapped@PEADPEAD@std@@YAXAEAPEAD$$QEAPEAD@Z
	??$_Seek_wrapped@PEAHAEAPEAH@std@@YAXAEAPEAH0@Z
	??$_Seek_wrapped@PEAHPEAH@std@@YAXAEAPEAH$$QEAPEAH@Z
	??$_Seek_wrapped@PEAIAEAPEAI@std@@YAXAEAPEAI0@Z
	??$_Seek_wrapped@PEAIPEAI@std@@YAXAEAPEAI$$QEAPEAI@Z
	??$_Seek_wrapped@PEAMAEAPEAM@std@@YAXAEAPEAM0@Z
	??$_Seek_wrapped@PEANAEAPEAN@std@@YAXAEAPEAN0@Z
	??$_Seek_wrapped@PEAPEAUCachedBlock@SerialArena@internal@protobuf@google@@PEAPEAU12345@@std@@YAXAEAPEAPEAUCachedBlock@SerialArena@internal@protobuf@google@@$$QEAPEAPEAU12345@@Z
	??$_Seek_wrapped@PEAUKeyValue@ExtensionSet@internal@protobuf@google@@PEAU12345@@std@@YAXAEAPEAUKeyValue@ExtensionSet@internal@protobuf@google@@$$QEAPEAU12345@@Z
	??$_Seek_wrapped@PEA_JAEAPEA_J@std@@YAXAEAPEA_J0@Z
	??$_Seek_wrapped@PEA_KAEAPEA_K@std@@YAXAEAPEA_K0@Z
	??$_Seek_wrapped@PEA_NAEAPEA_N@std@@YAXAEAPEA_N0@Z
	??$_Seek_wrapped@PEBHAEAPEBH@std@@YAXAEAPEBH0@Z
	??$_Seek_wrapped@PEBUEnumEntry@internal@protobuf@google@@AEAPEBU1234@@std@@YAXAEAPEBUEnumEntry@internal@protobuf@google@@0@Z
	??$_Swap_ranges_unchecked@PEADPEAD@std@@YAPEADPEADQEAD0@Z
	??$_To_address@PEAD@std@@YA?A_PAEBQEAD@Z
	??$_To_address@PEAH@std@@YA?A_PAEBQEAH@Z
	??$_To_address@PEAI@std@@YA?A_PAEBQEAI@Z
	??$_To_address@PEAM@std@@YA?A_PAEBQEAM@Z
	??$_To_address@PEAN@std@@YA?A_PAEBQEAN@Z
	??$_To_address@PEAPEAUCachedBlock@SerialArena@internal@protobuf@google@@@std@@YA?A_PAEBQEAPEAUCachedBlock@SerialArena@internal@protobuf@google@@@Z
	??$_To_address@PEAPEAX@std@@YA?A_PAEBQEAPEAX@Z
	??$_To_address@PEAU?$pair@P6AXPEBX@ZPEBX@std@@@std@@YA?A_PAEBQEAU?$pair@P6AXPEBX@ZPEBX@0@@Z
	??$_To_address@PEAUKeyValue@ExtensionSet@internal@protobuf@google@@@std@@YA?A_PAEBQEAUKeyValue@ExtensionSet@internal@protobuf@google@@@Z
	??$_To_address@PEAW4TableEntryPtr@internal@protobuf@google@@@std@@YA?A_PAEBQEAW4TableEntryPtr@internal@protobuf@google@@@Z
	??$_To_address@PEA_J@std@@YA?A_PAEBQEA_J@Z
	??$_To_address@PEA_K@std@@YA?A_PAEBQEA_K@Z
	??$_To_address@PEA_N@std@@YA?A_PAEBQEA_N@Z
	??$_To_address@PEBH@std@@YA?A_PAEBQEBH@Z
	??$_To_address@PEBI@std@@YA?A_PAEBQEBI@Z
	??$_To_address@PEBM@std@@YA?A_PAEBQEBM@Z
	??$_To_address@PEBN@std@@YA?A_PAEBQEBN@Z
	??$_To_address@PEB_J@std@@YA?A_PAEBQEB_J@Z
	??$_To_address@PEB_K@std@@YA?A_PAEBQEB_K@Z
	??$_To_address@PEB_N@std@@YA?A_PAEBQEB_N@Z
	??$_Traits_compare@U?$char_traits@D@std@@@std@@YAHQEBD_K01@Z
	??$_Traits_equal@U?$char_traits@D@std@@@std@@YA_NQEBD_K01@Z
	??$_Traits_equal@U?$char_traits@_W@std@@@std@@YA_NQEB_W_K01@Z
	??$_Traits_find_first_of@U?$char_traits@D@std@@@std@@YA_KQEBD_K101@Z
	??$_Traits_find_last_of@U?$char_traits@D@std@@@std@@YA_KQEBD_K101@Z
	??$_Traits_rfind_ch@U?$char_traits@D@std@@@std@@YA_KQEBD_K1D@Z
	??$_Try_emplace@AEBV?$basic_string_view@DU?$char_traits@D@std@@@std@@$$V@?$map@V?$basic_string_view@DU?$char_traits@D@std@@@std@@PEBVRealDebugCounter@internal@protobuf@google@@U?$less@V?$basic_string_view@DU?$char_traits@D@std@@@std@@@2@V?$allocator@U?$pair@$$CBV?$basic_string_view@DU?$char_traits@D@std@@@std@@PEBVRealDebugCounter@internal@protobuf@google@@@std@@@2@@std@@AEAA?AU?$pair@PEAU?$_Tree_node@U?$pair@$$CBV?$basic_string_view@DU?$char_traits@D@std@@@std@@PEBVRealDebugCounter@internal@protobuf@google@@@std@@PEAX@std@@_N@1@AEBV?$basic_string_view@DU?$char_traits@D@std@@@1@@Z
	??$_Try_emplace@AEBV?$basic_string_view@DU?$char_traits@D@std@@@std@@$$V@?$map@V?$basic_string_view@DU?$char_traits@D@std@@@std@@V?$map@V?$basic_string_view@DU?$char_traits@D@std@@@std@@PEBVRealDebugCounter@internal@protobuf@google@@U?$less@V?$basic_string_view@DU?$char_traits@D@std@@@std@@@2@V?$allocator@U?$pair@$$CBV?$basic_string_view@DU?$char_traits@D@std@@@std@@PEBVRealDebugCounter@internal@protobuf@google@@@std@@@2@@2@U?$less@V?$basic_string_view@DU?$char_traits@D@std@@@std@@@2@V?$allocator@U?$pair@$$CBV?$basic_string_view@DU?$char_traits@D@std@@@std@@V?$map@V?$basic_string_view@DU?$char_traits@D@std@@@std@@PEBVRealDebugCounter@internal@protobuf@google@@U?$less@V?$basic_string_view@DU?$char_traits@D@std@@@std@@@2@V?$allocator@U?$pair@$$CBV?$basic_string_view@DU?$char_traits@D@std@@@std@@PEBVRealDebugCounter@internal@protobuf@google@@@std@@@2@@2@@std@@@2@@std@@AEAA?AU?$pair@PEAU?$_Tree_node@U?$pair@$$CBV?$basic_string_view@DU?$char_traits@D@std@@@std@@V?$map@V?$basic_string_view@DU?$char_traits@D@std@@@std@@PEBVRealDebugCounter@internal@protobuf@google@@U?$less@V?$basic_string_view@DU?$char_traits@D@std@@@std@@@2@V?$allocator@U?$pair@$$CBV?$basic_string_view@DU?$char_traits@D@std@@@std@@PEBVRealDebugCounter@internal@protobuf@google@@@std@@@2@@2@@std@@PEAX@std@@_N@1@AEBV?$basic_string_view@DU?$char_traits@D@std@@@1@@Z
	??$_Tuple_get@$0A@$$QEAUVariantKey@internal@protobuf@google@@@std@@YA$$QEA_P$$QEAV?$tuple@$$QEAUVariantKey@internal@protobuf@google@@@0@@Z
	??$_Tuple_get@$0A@AEAPEAUNodeBase@internal@protobuf@google@@@std@@YA$$QEA_P$$QEAV?$tuple@AEAPEAUNodeBase@internal@protobuf@google@@@0@@Z
	??$_Tuple_get@$0A@AEBV?$basic_string_view@DU?$char_traits@D@std@@@std@@@std@@YA$$QEA_P$$QEAV?$tuple@AEBV?$basic_string_view@DU?$char_traits@D@std@@@std@@@0@@Z
	??$_Unfancy@D@std@@YAPEADPEAD@Z
	??$_Unfancy@H@std@@YAPEAHPEAH@Z
	??$_Unfancy@I@std@@YAPEAIPEAI@Z
	??$_Unfancy@PEAX@std@@YAPEAPEAXPEAPEAX@Z
	??$_Unfancy@U?$pair@P6AXPEBX@ZPEBX@std@@@std@@YAPEAU?$pair@P6AXPEBX@ZPEBX@0@PEAU10@@Z
	??$_Unfancy@V?$basic_string@_WU?$char_traits@_W@std@@V?$allocator@_W@2@@std@@@std@@YAPEAV?$basic_string@_WU?$char_traits@_W@std@@V?$allocator@_W@2@@0@PEAV10@@Z
	??$_Unfancy@_W@std@@YAPEA_WPEA_W@Z
	??$_Unfancy_maybe_null@H@std@@YAPEAHPEAH@Z
	??$_Unfancy_maybe_null@I@std@@YAPEAIPEAI@Z
	??$_Unfancy_maybe_null@U?$pair@P6AXPEBX@ZPEBX@std@@@std@@YAPEAU?$pair@P6AXPEBX@ZPEBX@0@PEAU10@@Z
	??$_Uninitialized_move@PEAHV?$allocator@H@std@@@std@@YAPEAHQEAH0PEAHAEAV?$allocator@H@0@@Z
	??$_Uninitialized_move@PEAIV?$allocator@I@std@@@std@@YAPEAIQEAI0PEAIAEAV?$allocator@I@0@@Z
	??$_Uninitialized_move@PEAPEAXV?$allocator@PEAX@std@@@std@@YAPEAPEAXQEAPEAX0PEAPEAXAEAV?$allocator@PEAX@0@@Z
	??$_Uninitialized_move@PEAU?$pair@P6AXPEBX@ZPEBX@std@@V?$allocator@U?$pair@P6AXPEBX@ZPEBX@std@@@2@@std@@YAPEAU?$pair@P6AXPEBX@ZPEBX@0@QEAU10@0PEAU10@AEAV?$allocator@U?$pair@P6AXPEBX@ZPEBX@std@@@0@@Z
	??$_Uninitialized_move@PEAV?$basic_string@_WU?$char_traits@_W@std@@V?$allocator@_W@2@@std@@V?$allocator@V?$basic_string@_WU?$char_traits@_W@std@@V?$allocator@_W@2@@std@@@2@@std@@YAPEAV?$basic_string@_WU?$char_traits@_W@std@@V?$allocator@_W@2@@0@QEAV10@0PEAV10@AEAV?$allocator@V?$basic_string@_WU?$char_traits@_W@std@@V?$allocator@_W@2@@std@@@0@@Z
	??$_Uninitialized_value_construct_n@V?$allocator@H@std@@@std@@YAPEAHPEAH_KAEAV?$allocator@H@0@@Z
	??$_Uninitialized_value_construct_n@V?$allocator@I@std@@@std@@YAPEAIPEAI_KAEAV?$allocator@I@0@@Z
	??$_Verify_ranges_do_not_overlap@PEADPEADPEAD@std@@YAXAEBQEAD00@Z
	??$_Zero_range@PEAH@std@@YAPEAHQEAH0@Z
	??$_Zero_range@PEAI@std@@YAPEAIQEAI0@Z
	??$accumulate@PEBE_K@std@@YA_KQEBE0_K@Z
	??$accumulate@PEBE_KU?$plus@X@std@@@std@@YA_KQEBE0_KU?$plus@X@0@@Z
	??$addressof@$$CBG@std@@YAPEBGAEBG@Z
	??$addressof@$$CBI@std@@YAPEBIAEBI@Z
	??$addressof@$$CBM@std@@YAPEBMAEBM@Z
	??$addressof@$$CBN@std@@YAPEBNAEBN@Z
	??$addressof@$$CBTPointer@Extension@ExtensionSet@internal@protobuf@google@@@std@@YAPEBTPointer@Extension@ExtensionSet@internal@protobuf@google@@AEBT123456@@Z
	??$addressof@$$CBV?$_Tree_val@U?$_Tree_simple_types@U?$pair@$$CBV?$basic_string_view@DU?$char_traits@D@std@@@std@@PEBVRealDebugCounter@internal@protobuf@google@@@std@@@std@@@std@@@std@@YAPEBV?$_Tree_val@U?$_Tree_simple_types@U?$pair@$$CBV?$basic_string_view@DU?$char_traits@D@std@@@std@@PEBVRealDebugCounter@internal@protobuf@google@@@std@@@std@@@0@AEBV10@@Z
	??$addressof@$$CBV?$_Tree_val@U?$_Tree_simple_types@U?$pair@$$CBV?$basic_string_view@DU?$char_traits@D@std@@@std@@V?$map@V?$basic_string_view@DU?$char_traits@D@std@@@std@@PEBVRealDebugCounter@internal@protobuf@google@@U?$less@V?$basic_string_view@DU?$char_traits@D@std@@@std@@@2@V?$allocator@U?$pair@$$CBV?$basic_string_view@DU?$char_traits@D@std@@@std@@PEBVRealDebugCounter@internal@protobuf@google@@@std@@@2@@2@@std@@@std@@@std@@@std@@YAPEBV?$_Tree_val@U?$_Tree_simple_types@U?$pair@$$CBV?$basic_string_view@DU?$char_traits@D@std@@@std@@V?$map@V?$basic_string_view@DU?$char_traits@D@std@@@std@@PEBVRealDebugCounter@internal@protobuf@google@@U?$less@V?$basic_string_view@DU?$char_traits@D@std@@@std@@@2@V?$allocator@U?$pair@$$CBV?$basic_string_view@DU?$char_traits@D@std@@@std@@PEBVRealDebugCounter@internal@protobuf@google@@@std@@@2@@2@@std@@@std@@@0@AEBV10@@Z
	??$addressof@$$CBV?$basic_string@DU?$char_traits@D@std@@V?$allocator@D@2@@std@@@std@@YAPEBV?$basic_string@DU?$char_traits@D@std@@V?$allocator@D@2@@0@AEBV10@@Z
	??$addressof@$$CBV?$basic_string@_WU?$char_traits@_W@std@@V?$allocator@_W@2@@std@@@std@@YAPEBV?$basic_string@_WU?$char_traits@_W@std@@V?$allocator@_W@2@@0@AEBV10@@Z
	??$addressof@$$CBV?$basic_string_view@DU?$char_traits@D@std@@@std@@@std@@YAPEBV?$basic_string_view@DU?$char_traits@D@std@@@0@AEBV10@@Z
	??$addressof@$$CB_J@std@@YAPEB_JAEB_J@Z
	??$addressof@$$CB_K@std@@YAPEB_KAEB_K@Z
	??$addressof@$$CB_W@std@@YAPEB_WAEB_W@Z
	??$addressof@D@std@@YAPEADAEAD@Z
	??$addressof@F@std@@YAPEAFAEAF@Z
	??$addressof@H@std@@YAPEAHAEAH@Z
	??$addressof@I@std@@YAPEAIAEAI@Z
	??$addressof@M@std@@YAPEAMAEAM@Z
	??$addressof@N@std@@YAPEANAEAN@Z
	??$addressof@PEAD@std@@YAPEAPEADAEAPEAD@Z
	??$addressof@PEAU?$_Tree_node@U?$pair@$$CBV?$basic_string_view@DU?$char_traits@D@std@@@std@@PEBVRealDebugCounter@internal@protobuf@google@@@std@@PEAX@std@@@std@@YAPEAPEAU?$_Tree_node@U?$pair@$$CBV?$basic_string_view@DU?$char_traits@D@std@@@std@@PEBVRealDebugCounter@internal@protobuf@google@@@std@@PEAX@0@AEAPEAU10@@Z
	??$addressof@PEAU?$_Tree_node@U?$pair@$$CBV?$basic_string_view@DU?$char_traits@D@std@@@std@@V?$map@V?$basic_string_view@DU?$char_traits@D@std@@@std@@PEBVRealDebugCounter@internal@protobuf@google@@U?$less@V?$basic_string_view@DU?$char_traits@D@std@@@std@@@2@V?$allocator@U?$pair@$$CBV?$basic_string_view@DU?$char_traits@D@std@@@std@@PEBVRealDebugCounter@internal@protobuf@google@@@std@@@2@@2@@std@@PEAX@std@@@std@@YAPEAPEAU?$_Tree_node@U?$pair@$$CBV?$basic_string_view@DU?$char_traits@D@std@@@std@@V?$map@V?$basic_string_view@DU?$char_traits@D@std@@@std@@PEBVRealDebugCounter@internal@protobuf@google@@U?$less@V?$basic_string_view@DU?$char_traits@D@std@@@std@@@2@V?$allocator@U?$pair@$$CBV?$basic_string_view@DU?$char_traits@D@std@@@std@@PEBVRealDebugCounter@internal@protobuf@google@@@std@@@2@@2@@std@@PEAX@0@AEAPEAU10@@Z
	??$addressof@PEAX@std@@YAPEAPEAXAEAPEAX@Z
	??$addressof@PEA_W@std@@YAPEAPEA_WAEAPEA_W@Z
	??$addressof@PEBX@std@@YAPEAPEBXAEAPEBX@Z
	??$addressof@U?$pair@$$CBV?$basic_string_view@DU?$char_traits@D@std@@@std@@PEBVRealDebugCounter@internal@protobuf@google@@@std@@@std@@YAPEAU?$pair@$$CBV?$basic_string_view@DU?$char_traits@D@std@@@std@@PEBVRealDebugCounter@internal@protobuf@google@@@0@AEAU10@@Z
	??$addressof@U?$pair@$$CBV?$basic_string_view@DU?$char_traits@D@std@@@std@@V?$map@V?$basic_string_view@DU?$char_traits@D@std@@@std@@PEBVRealDebugCounter@internal@protobuf@google@@U?$less@V?$basic_string_view@DU?$char_traits@D@std@@@std@@@2@V?$allocator@U?$pair@$$CBV?$basic_string_view@DU?$char_traits@D@std@@@std@@PEBVRealDebugCounter@internal@protobuf@google@@@std@@@2@@2@@std@@@std@@YAPEAU?$pair@$$CBV?$basic_string_view@DU?$char_traits@D@std@@@std@@V?$map@V?$basic_string_view@DU?$char_traits@D@std@@@std@@PEBVRealDebugCounter@internal@protobuf@google@@U?$less@V?$basic_string_view@DU?$char_traits@D@std@@@std@@@2@V?$allocator@U?$pair@$$CBV?$basic_string_view@DU?$char_traits@D@std@@@std@@PEBVRealDebugCounter@internal@protobuf@google@@@std@@@2@@2@@0@AEAU10@@Z
	??$addressof@U?$pair@P6AXPEBX@ZPEBX@std@@@std@@YAPEAU?$pair@P6AXPEBX@ZPEBX@0@AEAU10@@Z
	??$addressof@V?$_String_val@U?$_Simple_types@D@std@@@std@@@std@@YAPEAV?$_String_val@U?$_Simple_types@D@std@@@0@AEAV10@@Z
	??$addressof@V?$_String_val@U?$_Simple_types@_W@std@@@std@@@std@@YAPEAV?$_String_val@U?$_Simple_types@_W@std@@@0@AEAV10@@Z
	??$addressof@V?$_Tree_val@U?$_Tree_simple_types@U?$pair@$$CBV?$basic_string_view@DU?$char_traits@D@std@@@std@@PEBVRealDebugCounter@internal@protobuf@google@@@std@@@std@@@std@@@std@@YAPEAV?$_Tree_val@U?$_Tree_simple_types@U?$pair@$$CBV?$basic_string_view@DU?$char_traits@D@std@@@std@@PEBVRealDebugCounter@internal@protobuf@google@@@std@@@std@@@0@AEAV10@@Z
	??$addressof@V?$_Tree_val@U?$_Tree_simple_types@U?$pair@$$CBV?$basic_string_view@DU?$char_traits@D@std@@@std@@V?$map@V?$basic_string_view@DU?$char_traits@D@std@@@std@@PEBVRealDebugCounter@internal@protobuf@google@@U?$less@V?$basic_string_view@DU?$char_traits@D@std@@@std@@@2@V?$allocator@U?$pair@$$CBV?$basic_string_view@DU?$char_traits@D@std@@@std@@PEBVRealDebugCounter@internal@protobuf@google@@@std@@@2@@2@@std@@@std@@@std@@@std@@YAPEAV?$_Tree_val@U?$_Tree_simple_types@U?$pair@$$CBV?$basic_string_view@DU?$char_traits@D@std@@@std@@V?$map@V?$basic_string_view@DU?$char_traits@D@std@@@std@@PEBVRealDebugCounter@internal@protobuf@google@@U?$less@V?$basic_string_view@DU?$char_traits@D@std@@@std@@@2@V?$allocator@U?$pair@$$CBV?$basic_string_view@DU?$char_traits@D@std@@@std@@PEBVRealDebugCounter@internal@protobuf@google@@@std@@@2@@2@@std@@@std@@@0@AEAV10@@Z
	??$addressof@V?$_Vector_val@U?$_Simple_types@H@std@@@std@@@std@@YAPEAV?$_Vector_val@U?$_Simple_types@H@std@@@0@AEAV10@@Z
	??$addressof@V?$_Vector_val@U?$_Simple_types@I@std@@@std@@@std@@YAPEAV?$_Vector_val@U?$_Simple_types@I@std@@@0@AEAV10@@Z
	??$addressof@V?$_Vector_val@U?$_Simple_types@U?$pair@P6AXPEBX@ZPEBX@std@@@std@@@std@@@std@@YAPEAV?$_Vector_val@U?$_Simple_types@U?$pair@P6AXPEBX@ZPEBX@std@@@std@@@0@AEAV10@@Z
	??$addressof@V?$basic_ostream@DU?$char_traits@D@std@@@std@@@std@@YAPEAV?$basic_ostream@DU?$char_traits@D@std@@@0@AEAV10@@Z
	??$addressof@V?$basic_ostream@_WU?$char_traits@_W@std@@@std@@@std@@YAPEAV?$basic_ostream@_WU?$char_traits@_W@std@@@0@AEAV10@@Z
	??$addressof@V?$basic_string@DU?$char_traits@D@std@@V?$allocator@D@2@@std@@@std@@YAPEAV?$basic_string@DU?$char_traits@D@std@@V?$allocator@D@2@@0@AEAV10@@Z
	??$addressof@V?$basic_string@_WU?$char_traits@_W@std@@V?$allocator@_W@2@@std@@@std@@YAPEAV?$basic_string@_WU?$char_traits@_W@std@@V?$allocator@_W@2@@0@AEAV10@@Z
	??$addressof@V?$basic_string_view@DU?$char_traits@D@std@@@std@@@std@@YAPEAV?$basic_string_view@DU?$char_traits@D@std@@@0@AEAV10@@Z
	??$addressof@V?$basic_stringbuf@_WU?$char_traits@_W@std@@V?$allocator@_W@2@@std@@@std@@YAPEAV?$basic_stringbuf@_WU?$char_traits@_W@std@@V?$allocator@_W@2@@0@AEAV10@@Z
	??$addressof@V?$vector@HV?$allocator@H@std@@@std@@@std@@YAPEAV?$vector@HV?$allocator@H@std@@@0@AEAV10@@Z
	??$addressof@_K@std@@YAPEA_KAEA_K@Z
	??$addressof@_W@std@@YAPEA_WAEA_W@Z
	??$advance@PEBH_J@std@@YAXAEAPEBH_J@Z
	??$advance@PEBUEnumEntry@internal@protobuf@google@@_J@std@@YAXAEAPEBUEnumEntry@internal@protobuf@google@@_J@Z
	??$advance@V?$btree_iterator@V?$btree_node@U?$map_params@HUExtension@ExtensionSet@internal@protobuf@google@@U?$less@H@std@@V?$allocator@U?$pair@$$CBHUExtension@ExtensionSet@internal@protobuf@google@@@std@@@7@$0BAA@$0A@@container_internal@lts_20250814@absl@@@container_internal@lts_20250814@absl@@AEAU?$pair@$$CBHUExtension@ExtensionSet@internal@protobuf@google@@@std@@PEAU56@@container_internal@lts_20250814@absl@@_J@std@@YAXAEAV?$btree_iterator@V?$btree_node@U?$map_params@HUExtension@ExtensionSet@internal@protobuf@google@@U?$less@H@std@@V?$allocator@U?$pair@$$CBHUExtension@ExtensionSet@internal@protobuf@google@@@std@@@7@$0BAA@$0A@@container_internal@lts_20250814@absl@@@container_internal@lts_20250814@absl@@AEAU?$pair@$$CBHUExtension@ExtensionSet@internal@protobuf@google@@@std@@PEAU56@@container_internal@lts_20250814@absl@@_J@Z
	??$advance@V?$btree_iterator@V?$btree_node@U?$map_params@UVariantKey@internal@protobuf@google@@PEAUNodeBase@234@U?$less@UVariantKey@internal@protobuf@google@@@std@@V?$MapAllocator@U?$pair@$$CBUVariantKey@internal@protobuf@google@@PEAUNodeBase@234@@std@@@234@$0BAA@$0A@@container_internal@lts_20250814@absl@@@container_internal@lts_20250814@absl@@AEAU?$pair@$$CBUVariantKey@internal@protobuf@google@@PEAUNodeBase@234@@std@@PEAU56@@container_internal@lts_20250814@absl@@_J@std@@YAXAEAV?$btree_iterator@V?$btree_node@U?$map_params@UVariantKey@internal@protobuf@google@@PEAUNodeBase@234@U?$less@UVariantKey@internal@protobuf@google@@@std@@V?$MapAllocator@U?$pair@$$CBUVariantKey@internal@protobuf@google@@PEAUNodeBase@234@@std@@@234@$0BAA@$0A@@container_internal@lts_20250814@absl@@@container_internal@lts_20250814@absl@@AEAU?$pair@$$CBUVariantKey@internal@protobuf@google@@PEAUNodeBase@234@@std@@PEAU56@@container_internal@lts_20250814@absl@@_J@Z
	??$arena_delete_object@V?$basic_string@DU?$char_traits@D@std@@V?$allocator@D@2@@std@@@internal@protobuf@google@@YAXPEAX@Z
	??$arena_delete_object@VMessageLite@protobuf@google@@@internal@protobuf@google@@YAXPEAX@Z
	??$arena_destruct_object@U?$Container@V?$basic_string@DU?$char_traits@D@std@@V?$allocator@D@2@@std@@@InternalMetadata@internal@protobuf@google@@@cleanup@internal@protobuf@google@@YAXPEAX@Z
	??$arena_destruct_object@V?$basic_string@DU?$char_traits@D@std@@V?$allocator@D@2@@std@@@cleanup@internal@protobuf@google@@YAXPEAX@Z
	??$arena_destruct_object@V?$btree_map@HUExtension@ExtensionSet@internal@protobuf@google@@U?$less@H@std@@V?$allocator@U?$pair@$$CBHUExtension@ExtensionSet@internal@protobuf@google@@@std@@@7@@lts_20250814@absl@@@cleanup@internal@protobuf@google@@YAXPEAX@Z
	??$arena_destruct_object@V?$btree_map@UVariantKey@internal@protobuf@google@@PEAUNodeBase@234@U?$less@UVariantKey@internal@protobuf@google@@@std@@V?$MapAllocator@U?$pair@$$CBUVariantKey@internal@protobuf@google@@PEAUNodeBase@234@@std@@@234@@lts_20250814@absl@@@cleanup@internal@protobuf@google@@YAXPEAX@Z
	??$arena_destruct_object@VCord@lts_20250814@absl@@@cleanup@internal@protobuf@google@@YAXPEAX@Z
	??$binary_search@HU?$upper_bound_adapter@Uchecked_compare@?$key_compare_adapter@U?$less@H@std@@H@container_internal@lts_20250814@absl@@@container_internal@lts_20250814@absl@@@?$btree_node@U?$map_params@HUExtension@ExtensionSet@internal@protobuf@google@@U?$less@H@std@@V?$allocator@U?$pair@$$CBHUExtension@ExtensionSet@internal@protobuf@google@@@std@@@7@$0BAA@$0A@@container_internal@lts_20250814@absl@@@container_internal@lts_20250814@absl@@QEBA?AU?$SearchResult@_K$0A@@123@AEBHAEBU?$upper_bound_adapter@Uchecked_compare@?$key_compare_adapter@U?$less@H@std@@H@container_internal@lts_20250814@absl@@@123@@Z
	??$binary_search@HUchecked_compare@?$key_compare_adapter@U?$less@H@std@@H@container_internal@lts_20250814@absl@@@?$btree_node@U?$map_params@HUExtension@ExtensionSet@internal@protobuf@google@@U?$less@H@std@@V?$allocator@U?$pair@$$CBHUExtension@ExtensionSet@internal@protobuf@google@@@std@@@7@$0BAA@$0A@@container_internal@lts_20250814@absl@@@container_internal@lts_20250814@absl@@QEBA?AU?$SearchResult@_K$0A@@123@AEBHAEBUchecked_compare@?$key_compare_adapter@U?$less@H@std@@H@123@@Z
	??$binary_search@UVariantKey@internal@protobuf@google@@Uchecked_compare@?$key_compare_adapter@U?$less@UVariantKey@internal@protobuf@google@@@std@@UVariantKey@internal@protobuf@google@@@container_internal@lts_20250814@absl@@@?$btree_node@U?$map_params@UVariantKey@internal@protobuf@google@@PEAUNodeBase@234@U?$less@UVariantKey@internal@protobuf@google@@@std@@V?$MapAllocator@U?$pair@$$CBUVariantKey@internal@protobuf@google@@PEAUNodeBase@234@@std@@@234@$0BAA@$0A@@container_internal@lts_20250814@absl@@@container_internal@lts_20250814@absl@@QEBA?AU?$SearchResult@_K$0A@@123@AEBUVariantKey@internal@protobuf@google@@AEBUchecked_compare@?$key_compare_adapter@U?$less@UVariantKey@internal@protobuf@google@@@std@@UVariantKey@internal@protobuf@google@@@123@@Z
	??$binary_search_impl@HU?$upper_bound_adapter@Uchecked_compare@?$key_compare_adapter@U?$less@H@std@@H@container_internal@lts_20250814@absl@@@container_internal@lts_20250814@absl@@@?$btree_node@U?$map_params@HUExtension@ExtensionSet@internal@protobuf@google@@U?$less@H@std@@V?$allocator@U?$pair@$$CBHUExtension@ExtensionSet@internal@protobuf@google@@@std@@@7@$0BAA@$0A@@container_internal@lts_20250814@absl@@@container_internal@lts_20250814@absl@@QEBA?AU?$SearchResult@_K$0A@@123@AEBH_K1AEBU?$upper_bound_adapter@Uchecked_compare@?$key_compare_adapter@U?$less@H@std@@H@container_internal@lts_20250814@absl@@@123@U?$integral_constant@_N$0A@@std@@@Z
	??$binary_search_impl@HUchecked_compare@?$key_compare_adapter@U?$less@H@std@@H@container_internal@lts_20250814@absl@@@?$btree_node@U?$map_params@HUExtension@ExtensionSet@internal@protobuf@google@@U?$less@H@std@@V?$allocator@U?$pair@$$CBHUExtension@ExtensionSet@internal@protobuf@google@@@std@@@7@$0BAA@$0A@@container_internal@lts_20250814@absl@@@container_internal@lts_20250814@absl@@QEBA?AU?$SearchResult@_K$0A@@123@AEBH_K1AEBUchecked_compare@?$key_compare_adapter@U?$less@H@std@@H@123@U?$integral_constant@_N$0A@@std@@@Z
	??$binary_search_impl@UVariantKey@internal@protobuf@google@@Uchecked_compare@?$key_compare_adapter@U?$less@UVariantKey@internal@protobuf@google@@@std@@UVariantKey@internal@protobuf@google@@@container_internal@lts_20250814@absl@@@?$btree_node@U?$map_params@UVariantKey@internal@protobuf@google@@PEAUNodeBase@234@U?$less@UVariantKey@internal@protobuf@google@@@std@@V?$MapAllocator@U?$pair@$$CBUVariantKey@internal@protobuf@google@@PEAUNodeBase@234@@std@@@234@$0BAA@$0A@@container_internal@lts_20250814@absl@@@container_internal@lts_20250814@absl@@QEBA?AU?$SearchResult@_K$0A@@123@AEBUVariantKey@internal@protobuf@google@@_K1AEBUchecked_compare@?$key_compare_adapter@U?$less@UVariantKey@internal@protobuf@google@@@std@@UVariantKey@internal@protobuf@google@@@123@U?$integral_constant@_N$0A@@std@@@Z
	??$bit_cast@FG$0A@@lts_20250814@absl@@YAFAEBG@Z
	??$bit_cast@IM$0A@@lts_20250814@absl@@YAIAEBM@Z
	??$bit_cast@MI$0A@@lts_20250814@absl@@YAMAEBI@Z
	??$bit_cast@N_K$0A@@lts_20250814@absl@@YANAEB_K@Z
	??$bit_cast@PEBXTPointer@Extension@ExtensionSet@internal@protobuf@google@@$0A@@lts_20250814@absl@@YAPEBXAEBTPointer@Extension@ExtensionSet@internal@protobuf@google@@@Z
	??$bit_cast@_KN$0A@@lts_20250814@absl@@YA_KAEBN@Z
	??$bit_cast@_K_J$0A@@lts_20250814@absl@@YA_KAEB_J@Z
	??$bit_width@_K@lts_20250814@absl@@YAH_K@Z
	??$can_have_multiple_equivalent_keys@H@?$common_params@HU?$less@H@std@@V?$allocator@U?$pair@$$CBHUExtension@ExtensionSet@internal@protobuf@google@@@std@@@2@$0BAA@$0A@$00U?$map_slot_policy@HUExtension@ExtensionSet@internal@protobuf@google@@@container_internal@lts_20250814@absl@@@container_internal@lts_20250814@absl@@SA_NXZ
	??$cast@V?$GenericTypeHandler@V?$basic_string@DU?$char_traits@D@std@@V?$allocator@D@2@@std@@@internal@protobuf@google@@@RepeatedPtrFieldBase@internal@protobuf@google@@CAPEAV?$basic_string@DU?$char_traits@D@std@@V?$allocator@D@2@@std@@PEAX@Z
	??$cast@V?$GenericTypeHandler@V?$basic_string@DU?$char_traits@D@std@@V?$allocator@D@2@@std@@@internal@protobuf@google@@@RepeatedPtrFieldBase@internal@protobuf@google@@CAPEBV?$basic_string@DU?$char_traits@D@std@@V?$allocator@D@2@@std@@PEBX@Z
	??$cast@V?$GenericTypeHandler@VMessageLite@protobuf@google@@@internal@protobuf@google@@@RepeatedPtrFieldBase@internal@protobuf@google@@CAPEAVMessageLite@23@PEAX@Z
	??$cast@V?$GenericTypeHandler@VMessageLite@protobuf@google@@@internal@protobuf@google@@@RepeatedPtrFieldBase@internal@protobuf@google@@CAPEBVMessageLite@23@PEBX@Z
	??$coded_tag@E@TcFieldData@internal@protobuf@google@@QEBAEXZ
	??$coded_tag@G@TcFieldData@internal@protobuf@google@@QEBAGXZ
	??$combine@H$$V@?$HashStateBase@VMixingHashState@hash_internal@lts_20250814@absl@@@hash_internal@lts_20250814@absl@@SA?AVMixingHashState@123@V4123@AEBH@Z
	??$combine@IV?$basic_string_view@DU?$char_traits@D@std@@@std@@@?$HashStateBase@VMixingHashState@hash_internal@lts_20250814@absl@@@hash_internal@lts_20250814@absl@@SA?AVMixingHashState@123@V4123@AEBIAEBV?$basic_string_view@DU?$char_traits@D@std@@@std@@@Z
	??$combine@PEAW4TableEntryPtr@internal@protobuf@google@@PEBX@?$HashStateBase@VMixingHashState@hash_internal@lts_20250814@absl@@@hash_internal@lts_20250814@absl@@SA?AVMixingHashState@123@V4123@AEBQEAW4TableEntryPtr@internal@protobuf@google@@AEBQEBX@Z
	??$combine@PEBVMessageLite@protobuf@google@@H@?$HashStateBase@VMixingHashState@hash_internal@lts_20250814@absl@@@hash_internal@lts_20250814@absl@@SA?AVMixingHashState@123@V4123@AEBQEBVMessageLite@protobuf@google@@AEBH@Z
	??$combine@PEBX$$V@?$HashStateBase@VMixingHashState@hash_internal@lts_20250814@absl@@@hash_internal@lts_20250814@absl@@SA?AVMixingHashState@123@V4123@AEBQEBX@Z
	??$combine@V?$basic_string_view@DU?$char_traits@D@std@@@std@@$$V@?$HashStateBase@VMixingHashState@hash_internal@lts_20250814@absl@@@hash_internal@lts_20250814@absl@@SA?AVMixingHashState@123@V4123@AEBV?$basic_string_view@DU?$char_traits@D@std@@@std@@@Z
	??$combine@V?$tuple@AEBIAEBV?$basic_string_view@DU?$char_traits@D@std@@@std@@@std@@$$V@?$HashStateBase@VMixingHashState@hash_internal@lts_20250814@absl@@@hash_internal@lts_20250814@absl@@SA?AVMixingHashState@123@V4123@AEBV?$tuple@AEBIAEBV?$basic_string_view@DU?$char_traits@D@std@@@std@@@std@@@Z
	??$combine@V?$tuple@AEBQEBVMessageLite@protobuf@google@@AEBH@std@@$$V@?$HashStateBase@VMixingHashState@hash_internal@lts_20250814@absl@@@hash_internal@lts_20250814@absl@@SA?AVMixingHashState@123@V4123@AEBV?$tuple@AEBQEBVMessageLite@protobuf@google@@AEBH@std@@@Z
	??$combine@V?$tuple@AEB_K@std@@$$V@?$HashStateBase@VMixingHashState@hash_internal@lts_20250814@absl@@@hash_internal@lts_20250814@absl@@SA?AVMixingHashState@123@V4123@AEBV?$tuple@AEB_K@std@@@Z
	??$combine@V?$tuple@AEB_KAEBQEAW4TableEntryPtr@internal@protobuf@google@@AEBQEBX@std@@$$V@?$HashStateBase@VMixingHashState@hash_internal@lts_20250814@absl@@@hash_internal@lts_20250814@absl@@SA?AVMixingHashState@123@V4123@AEBV?$tuple@AEB_KAEBQEAW4TableEntryPtr@internal@protobuf@google@@AEBQEBX@std@@@Z
	??$combine@_K$$V@?$HashStateBase@VMixingHashState@hash_internal@lts_20250814@absl@@@hash_internal@lts_20250814@absl@@SA?AVMixingHashState@123@V4123@AEB_K@Z
	??$combine@_KPEAW4TableEntryPtr@internal@protobuf@google@@PEBX@?$HashStateBase@VMixingHashState@hash_internal@lts_20250814@absl@@@hash_internal@lts_20250814@absl@@SA?AVMixingHashState@123@V4123@AEB_KAEBQEAW4TableEntryPtr@internal@protobuf@google@@AEBQEBX@Z
	??$combine_contiguous@D@?$HashStateBase@VMixingHashState@hash_internal@lts_20250814@absl@@@hash_internal@lts_20250814@absl@@SA?AVMixingHashState@123@V4123@PEBD_K@Z
	??$compare_keys@HH@?$btree@U?$map_params@HUExtension@ExtensionSet@internal@protobuf@google@@U?$less@H@std@@V?$allocator@U?$pair@$$CBHUExtension@ExtensionSet@internal@protobuf@google@@@std@@@7@$0BAA@$0A@@container_internal@lts_20250814@absl@@@container_internal@lts_20250814@absl@@QEBA_NAEBH0@Z
	??$compare_keys@UVariantKey@internal@protobuf@google@@U1234@@?$btree@U?$map_params@UVariantKey@internal@protobuf@google@@PEAUNodeBase@234@U?$less@UVariantKey@internal@protobuf@google@@@std@@V?$MapAllocator@U?$pair@$$CBUVariantKey@internal@protobuf@google@@PEAUNodeBase@234@@std@@@234@$0BAA@$0A@@container_internal@lts_20250814@absl@@@container_internal@lts_20250814@absl@@QEBA_NAEBUVariantKey@internal@protobuf@google@@0@Z
	??$compare_result_as_less_than@_N$0A@@compare_internal@lts_20250814@absl@@YA_N_N@Z
	??$construct@H$$V@?$_Default_allocator_traits@V?$allocator@H@std@@@std@@SAXAEAV?$allocator@H@1@QEAH@Z
	??$construct@HAEBH@?$_Default_allocator_traits@V?$allocator@H@std@@@std@@SAXAEAV?$allocator@H@1@QEAHAEBH@Z
	??$construct@HH@?$_Default_allocator_traits@V?$allocator@H@std@@@std@@SAXAEAV?$allocator@H@1@QEAH$$QEAH@Z
	??$construct@I$$V@?$_Default_allocator_traits@V?$allocator@I@std@@@std@@SAXAEAV?$allocator@I@1@QEAI@Z
	??$construct@II@?$_Default_allocator_traits@V?$allocator@I@std@@@std@@SAXAEAV?$allocator@I@1@QEAI$$QEAI@Z
	??$construct@PEAXAEBQEAX@?$_Default_allocator_traits@V?$allocator@PEAX@std@@@std@@SAXAEAV?$allocator@PEAX@1@QEAPEAXAEBQEAX@Z
	??$construct@PEAXPEAX@?$_Default_allocator_traits@V?$allocator@PEAX@std@@@std@@SAXAEAV?$allocator@PEAX@1@QEAPEAX$$QEAPEAX@Z
	??$construct@U?$pair@$$CBHUExtension@ExtensionSet@internal@protobuf@google@@@std@@U12@@?$_Default_allocator_traits@V?$allocator@U?$pair@$$CBHUExtension@ExtensionSet@internal@protobuf@google@@@std@@@std@@@std@@SAXAEAV?$allocator@U?$pair@$$CBHUExtension@ExtensionSet@internal@protobuf@google@@@std@@@1@QEAU?$pair@$$CBHUExtension@ExtensionSet@internal@protobuf@google@@@1@$$QEAU31@@Z
	??$construct@U?$pair@$$CBUVariantKey@internal@protobuf@google@@PEAUNodeBase@234@@std@@AEBUpiecewise_construct_t@2@V?$tuple@$$QEAUVariantKey@internal@protobuf@google@@@2@V?$tuple@AEAPEAUNodeBase@internal@protobuf@google@@@2@@?$MapAllocator@U?$pair@$$CBUVariantKey@internal@protobuf@google@@PEAUNodeBase@234@@std@@@internal@protobuf@google@@QEAAXPEAU?$pair@$$CBUVariantKey@internal@protobuf@google@@PEAUNodeBase@234@@std@@AEBUpiecewise_construct_t@5@$$QEAV?$tuple@$$QEAUVariantKey@internal@protobuf@google@@@5@$$QEAV?$tuple@AEAPEAUNodeBase@internal@protobuf@google@@@5@@Z
	??$construct@U?$pair@$$CBUVariantKey@internal@protobuf@google@@PEAUNodeBase@234@@std@@AEBUpiecewise_construct_t@2@V?$tuple@$$QEAUVariantKey@internal@protobuf@google@@@2@V?$tuple@AEAPEAUNodeBase@internal@protobuf@google@@@2@@?$_Normal_allocator_traits@V?$MapAllocator@U?$pair@$$CBUVariantKey@internal@protobuf@google@@PEAUNodeBase@234@@std@@@internal@protobuf@google@@@std@@SAXAEAV?$MapAllocator@U?$pair@$$CBUVariantKey@internal@protobuf@google@@PEAUNodeBase@234@@std@@@internal@protobuf@google@@PEAU?$pair@$$CBUVariantKey@internal@protobuf@google@@PEAUNodeBase@234@@1@AEBUpiecewise_construct_t@1@$$QEAV?$tuple@$$QEAUVariantKey@internal@protobuf@google@@@1@$$QEAV?$tuple@AEAPEAUNodeBase@internal@protobuf@google@@@1@@Z
	??$construct@U?$pair@$$CBUVariantKey@internal@protobuf@google@@PEAUNodeBase@234@@std@@U12@@?$MapAllocator@U?$pair@$$CBUVariantKey@internal@protobuf@google@@PEAUNodeBase@234@@std@@@internal@protobuf@google@@QEAAXPEAU?$pair@$$CBUVariantKey@internal@protobuf@google@@PEAUNodeBase@234@@std@@$$QEAU45@@Z
	??$construct@U?$pair@$$CBUVariantKey@internal@protobuf@google@@PEAUNodeBase@234@@std@@U12@@?$_Normal_allocator_traits@V?$MapAllocator@U?$pair@$$CBUVariantKey@internal@protobuf@google@@PEAUNodeBase@234@@std@@@internal@protobuf@google@@@std@@SAXAEAV?$MapAllocator@U?$pair@$$CBUVariantKey@internal@protobuf@google@@PEAUNodeBase@234@@std@@@internal@protobuf@google@@PEAU?$pair@$$CBUVariantKey@internal@protobuf@google@@PEAUNodeBase@234@@1@$$QEAU61@@Z
	??$construct@U?$pair@$$CBV?$basic_string_view@DU?$char_traits@D@std@@@std@@PEBVRealDebugCounter@internal@protobuf@google@@@std@@AEBUpiecewise_construct_t@2@V?$tuple@AEBV?$basic_string_view@DU?$char_traits@D@std@@@std@@@2@V?$tuple@$$V@2@@?$_Default_allocator_traits@V?$allocator@U?$_Tree_node@U?$pair@$$CBV?$basic_string_view@DU?$char_traits@D@std@@@std@@PEBVRealDebugCounter@internal@protobuf@google@@@std@@PEAX@std@@@std@@@std@@SAXAEAV?$allocator@U?$_Tree_node@U?$pair@$$CBV?$basic_string_view@DU?$char_traits@D@std@@@std@@PEBVRealDebugCounter@internal@protobuf@google@@@std@@PEAX@std@@@1@QEAU?$pair@$$CBV?$basic_string_view@DU?$char_traits@D@std@@@std@@PEBVRealDebugCounter@internal@protobuf@google@@@1@AEBUpiecewise_construct_t@1@$$QEAV?$tuple@AEBV?$basic_string_view@DU?$char_traits@D@std@@@std@@@1@$$QEAV?$tuple@$$V@1@@Z
	??$construct@U?$pair@$$CBV?$basic_string_view@DU?$char_traits@D@std@@@std@@V?$map@V?$basic_string_view@DU?$char_traits@D@std@@@std@@PEBVRealDebugCounter@internal@protobuf@google@@U?$less@V?$basic_string_view@DU?$char_traits@D@std@@@std@@@2@V?$allocator@U?$pair@$$CBV?$basic_string_view@DU?$char_traits@D@std@@@std@@PEBVRealDebugCounter@internal@protobuf@google@@@std@@@2@@2@@std@@AEBUpiecewise_construct_t@2@V?$tuple@AEBV?$basic_string_view@DU?$char_traits@D@std@@@std@@@2@V?$tuple@$$V@2@@?$_Default_allocator_traits@V?$allocator@U?$_Tree_node@U?$pair@$$CBV?$basic_string_view@DU?$char_traits@D@std@@@std@@V?$map@V?$basic_string_view@DU?$char_traits@D@std@@@std@@PEBVRealDebugCounter@internal@protobuf@google@@U?$less@V?$basic_string_view@DU?$char_traits@D@std@@@std@@@2@V?$allocator@U?$pair@$$CBV?$basic_string_view@DU?$char_traits@D@std@@@std@@PEBVRealDebugCounter@internal@protobuf@google@@@std@@@2@@2@@std@@PEAX@std@@@std@@@std@@SAXAEAV?$allocator@U?$_Tree_node@U?$pair@$$CBV?$basic_string_view@DU?$char_traits@D@std@@@std@@V?$map@V?$basic_string_view@DU?$char_traits@D@std@@@std@@PEBVRealDebugCounter@internal@protobuf@google@@U?$less@V?$basic_string_view@DU?$char_traits@D@std@@@std@@@2@V?$allocator@U?$pair@$$CBV?$basic_string_view@DU?$char_traits@D@std@@@std@@PEBVRealDebugCounter@internal@protobuf@google@@@std@@@2@@2@@std@@PEAX@std@@@1@QEAU?$pair@$$CBV?$basic_string_view@DU?$char_traits@D@std@@@std@@V?$map@V?$basic_string_view@DU?$char_traits@D@std@@@std@@PEBVRealDebugCounter@internal@protobuf@google@@U?$less@V?$basic_string_view@DU?$char_traits@D@std@@@std@@@2@V?$allocator@U?$pair@$$CBV?$basic_string_view@DU?$char_traits@D@std@@@std@@PEBVRealDebugCounter@internal@protobuf@google@@@std@@@2@@2@@1@AEBUpiecewise_construct_t@1@$$QEAV?$tuple@AEBV?$basic_string_view@DU?$char_traits@D@std@@@std@@@1@$$QEAV?$tuple@$$V@1@@Z
	??$construct@U?$pair@HUExtension@ExtensionSet@internal@protobuf@google@@@std@@U12@@?$_Default_allocator_traits@V?$allocator@U?$pair@$$CBHUExtension@ExtensionSet@internal@protobuf@google@@@std@@@std@@@std@@SAXAEAV?$allocator@U?$pair@$$CBHUExtension@ExtensionSet@internal@protobuf@google@@@std@@@1@QEAU?$pair@HUExtension@ExtensionSet@internal@protobuf@google@@@1@$$QEAU31@@Z
	??$construct@U?$pair@HUExtension@ExtensionSet@internal@protobuf@google@@@std@@U?$pair@$$CBHUExtension@ExtensionSet@internal@protobuf@google@@@2@@?$_Default_allocator_traits@V?$allocator@U?$pair@$$CBHUExtension@ExtensionSet@internal@protobuf@google@@@std@@@std@@@std@@SAXAEAV?$allocator@U?$pair@$$CBHUExtension@ExtensionSet@internal@protobuf@google@@@std@@@1@QEAU?$pair@HUExtension@ExtensionSet@internal@protobuf@google@@@1@$$QEAU?$pair@$$CBHUExtension@ExtensionSet@internal@protobuf@google@@@1@@Z
	??$construct@U?$pair@P6AXPEBX@ZPEBX@std@@U12@@?$_Default_allocator_traits@V?$allocator@U?$pair@P6AXPEBX@ZPEBX@std@@@std@@@std@@SAXAEAV?$allocator@U?$pair@P6AXPEBX@ZPEBX@std@@@1@QEAU?$pair@P6AXPEBX@ZPEBX@1@$$QEAU31@@Z
	??$construct@U?$pair@UVariantKey@internal@protobuf@google@@PEAUNodeBase@234@@std@@AEBUpiecewise_construct_t@2@V?$tuple@$$QEAUVariantKey@internal@protobuf@google@@@2@V?$tuple@AEAPEAUNodeBase@internal@protobuf@google@@@2@@?$MapAllocator@U?$pair@$$CBUVariantKey@internal@protobuf@google@@PEAUNodeBase@234@@std@@@internal@protobuf@google@@QEAAXPEAU?$pair@UVariantKey@internal@protobuf@google@@PEAUNodeBase@234@@std@@AEBUpiecewise_construct_t@5@$$QEAV?$tuple@$$QEAUVariantKey@internal@protobuf@google@@@5@$$QEAV?$tuple@AEAPEAUNodeBase@internal@protobuf@google@@@5@@Z
	??$construct@U?$pair@UVariantKey@internal@protobuf@google@@PEAUNodeBase@234@@std@@AEBUpiecewise_construct_t@2@V?$tuple@$$QEAUVariantKey@internal@protobuf@google@@@2@V?$tuple@AEAPEAUNodeBase@internal@protobuf@google@@@2@@?$_Normal_allocator_traits@V?$MapAllocator@U?$pair@$$CBUVariantKey@internal@protobuf@google@@PEAUNodeBase@234@@std@@@internal@protobuf@google@@@std@@SAXAEAV?$MapAllocator@U?$pair@$$CBUVariantKey@internal@protobuf@google@@PEAUNodeBase@234@@std@@@internal@protobuf@google@@PEAU?$pair@UVariantKey@internal@protobuf@google@@PEAUNodeBase@234@@1@AEBUpiecewise_construct_t@1@$$QEAV?$tuple@$$QEAUVariantKey@internal@protobuf@google@@@1@$$QEAV?$tuple@AEAPEAUNodeBase@internal@protobuf@google@@@1@@Z
	??$construct@U?$pair@UVariantKey@internal@protobuf@google@@PEAUNodeBase@234@@std@@U12@@?$MapAllocator@U?$pair@$$CBUVariantKey@internal@protobuf@google@@PEAUNodeBase@234@@std@@@internal@protobuf@google@@QEAAXPEAU?$pair@UVariantKey@internal@protobuf@google@@PEAUNodeBase@234@@std@@$$QEAU45@@Z
	??$construct@U?$pair@UVariantKey@internal@protobuf@google@@PEAUNodeBase@234@@std@@U12@@?$_Normal_allocator_traits@V?$MapAllocator@U?$pair@$$CBUVariantKey@internal@protobuf@google@@PEAUNodeBase@234@@std@@@internal@protobuf@google@@@std@@SAXAEAV?$MapAllocator@U?$pair@$$CBUVariantKey@internal@protobuf@google@@PEAUNodeBase@234@@std@@@internal@protobuf@google@@PEAU?$pair@UVariantKey@internal@protobuf@google@@PEAUNodeBase@234@@1@$$QEAU61@@Z
	??$construct@UExtensionInfo@internal@protobuf@google@@AEBU1234@@?$_Default_allocator_traits@V?$allocator@UExtensionInfo@internal@protobuf@google@@@std@@@std@@SAXAEAV?$allocator@UExtensionInfo@internal@protobuf@google@@@1@QEAUExtensionInfo@internal@protobuf@google@@AEBU3456@@Z
	??$construct@V?$MapAllocator@U?$pair@$$CBUVariantKey@internal@protobuf@google@@PEAUNodeBase@234@@std@@@internal@protobuf@google@@@?$map_slot_policy@UVariantKey@internal@protobuf@google@@PEAUNodeBase@234@@container_internal@lts_20250814@absl@@SAXPEAV?$MapAllocator@U?$pair@$$CBUVariantKey@internal@protobuf@google@@PEAUNodeBase@234@@std@@@internal@protobuf@google@@PEAT?$map_slot_type@UVariantKey@internal@protobuf@google@@PEAUNodeBase@234@@123@1@Z
	??$construct@V?$MapAllocator@U?$pair@$$CBUVariantKey@internal@protobuf@google@@PEAUNodeBase@234@@std@@@internal@protobuf@google@@AEBUpiecewise_construct_t@std@@V?$tuple@$$QEAUVariantKey@internal@protobuf@google@@@6@V?$tuple@AEAPEAUNodeBase@internal@protobuf@google@@@6@@?$common_policy_traits@U?$map_slot_policy@UVariantKey@internal@protobuf@google@@PEAUNodeBase@234@@container_internal@lts_20250814@absl@@X@container_internal@lts_20250814@absl@@SAXPEAV?$MapAllocator@U?$pair@$$CBUVariantKey@internal@protobuf@google@@PEAUNodeBase@234@@std@@@internal@protobuf@google@@PEAT?$map_slot_type@UVariantKey@internal@protobuf@google@@PEAUNodeBase@234@@123@AEBUpiecewise_construct_t@std@@$$QEAV?$tuple@$$QEAUVariantKey@internal@protobuf@google@@@std@@$$QEAV?$tuple@AEAPEAUNodeBase@internal@protobuf@google@@@std@@@Z
	??$construct@V?$MapAllocator@U?$pair@$$CBUVariantKey@internal@protobuf@google@@PEAUNodeBase@234@@std@@@internal@protobuf@google@@AEBUpiecewise_construct_t@std@@V?$tuple@$$QEAUVariantKey@internal@protobuf@google@@@6@V?$tuple@AEAPEAUNodeBase@internal@protobuf@google@@@6@@?$map_slot_policy@UVariantKey@internal@protobuf@google@@PEAUNodeBase@234@@container_internal@lts_20250814@absl@@SAXPEAV?$MapAllocator@U?$pair@$$CBUVariantKey@internal@protobuf@google@@PEAUNodeBase@234@@std@@@internal@protobuf@google@@PEAT?$map_slot_type@UVariantKey@internal@protobuf@google@@PEAUNodeBase@234@@123@AEBUpiecewise_construct_t@std@@$$QEAV?$tuple@$$QEAUVariantKey@internal@protobuf@google@@@std@@$$QEAV?$tuple@AEAPEAUNodeBase@internal@protobuf@google@@@std@@@Z
	??$construct@V?$MapAllocator@U?$pair@$$CBUVariantKey@internal@protobuf@google@@PEAUNodeBase@234@@std@@@internal@protobuf@google@@PEAT?$map_slot_type@UVariantKey@internal@protobuf@google@@PEAUNodeBase@234@@container_internal@lts_20250814@absl@@@?$common_policy_traits@U?$map_slot_policy@UVariantKey@internal@protobuf@google@@PEAUNodeBase@234@@container_internal@lts_20250814@absl@@X@container_internal@lts_20250814@absl@@SAXPEAV?$MapAllocator@U?$pair@$$CBUVariantKey@internal@protobuf@google@@PEAUNodeBase@234@@std@@@internal@protobuf@google@@PEAT?$map_slot_type@UVariantKey@internal@protobuf@google@@PEAUNodeBase@234@@123@$$QEAPEAT8123@@Z
	??$construct@V?$allocator@U?$pair@$$CBHUExtension@ExtensionSet@internal@protobuf@google@@@std@@@std@@@?$map_slot_policy@HUExtension@ExtensionSet@internal@protobuf@google@@@container_internal@lts_20250814@absl@@SAXPEAV?$allocator@U?$pair@$$CBHUExtension@ExtensionSet@internal@protobuf@google@@@std@@@std@@PEAT?$map_slot_type@HUExtension@ExtensionSet@internal@protobuf@google@@@123@1@Z
	??$construct@V?$allocator@U?$pair@$$CBHUExtension@ExtensionSet@internal@protobuf@google@@@std@@@std@@PEAT?$map_slot_type@HUExtension@ExtensionSet@internal@protobuf@google@@@container_internal@lts_20250814@absl@@@?$common_policy_traits@U?$map_slot_policy@HUExtension@ExtensionSet@internal@protobuf@google@@@container_internal@lts_20250814@absl@@X@container_internal@lts_20250814@absl@@SAXPEAV?$allocator@U?$pair@$$CBHUExtension@ExtensionSet@internal@protobuf@google@@@std@@@std@@PEAT?$map_slot_type@HUExtension@ExtensionSet@internal@protobuf@google@@@123@$$QEAPEAT6123@@Z
	??$construct@V?$allocator@U?$pair@$$CBHUExtension@ExtensionSet@internal@protobuf@google@@@std@@@std@@U?$pair@$$CBHUExtension@ExtensionSet@internal@protobuf@google@@@2@@?$common_policy_traits@U?$map_slot_policy@HUExtension@ExtensionSet@internal@protobuf@google@@@container_internal@lts_20250814@absl@@X@container_internal@lts_20250814@absl@@SAXPEAV?$allocator@U?$pair@$$CBHUExtension@ExtensionSet@internal@protobuf@google@@@std@@@std@@PEAT?$map_slot_type@HUExtension@ExtensionSet@internal@protobuf@google@@@123@$$QEAU?$pair@$$CBHUExtension@ExtensionSet@internal@protobuf@google@@@5@@Z
	??$construct@V?$allocator@U?$pair@$$CBHUExtension@ExtensionSet@internal@protobuf@google@@@std@@@std@@U?$pair@$$CBHUExtension@ExtensionSet@internal@protobuf@google@@@2@@?$map_slot_policy@HUExtension@ExtensionSet@internal@protobuf@google@@@container_internal@lts_20250814@absl@@SAXPEAV?$allocator@U?$pair@$$CBHUExtension@ExtensionSet@internal@protobuf@google@@@std@@@std@@PEAT?$map_slot_type@HUExtension@ExtensionSet@internal@protobuf@google@@@123@$$QEAU?$pair@$$CBHUExtension@ExtensionSet@internal@protobuf@google@@@5@@Z
	??$construct@V?$allocator@UExtensionInfo@internal@protobuf@google@@@std@@AEBUExtensionInfo@internal@protobuf@google@@@?$FlatHashSetPolicy@UExtensionInfo@internal@protobuf@google@@@container_internal@lts_20250814@absl@@SAXPEAV?$allocator@UExtensionInfo@internal@protobuf@google@@@std@@PEAUExtensionInfo@internal@protobuf@google@@AEBU6789@@Z
	??$construct@V?$allocator@UExtensionInfo@internal@protobuf@google@@@std@@AEBUExtensionInfo@internal@protobuf@google@@@?$common_policy_traits@U?$FlatHashSetPolicy@UExtensionInfo@internal@protobuf@google@@@container_internal@lts_20250814@absl@@X@container_internal@lts_20250814@absl@@SAXPEAV?$allocator@UExtensionInfo@internal@protobuf@google@@@std@@PEAUExtensionInfo@internal@protobuf@google@@AEBU6789@@Z
	??$construct@V?$basic_string@_WU?$char_traits@_W@std@@V?$allocator@_W@2@@std@@AEBV12@@?$_Default_allocator_traits@V?$allocator@V?$basic_string@_WU?$char_traits@_W@std@@V?$allocator@_W@2@@std@@@std@@@std@@SAXAEAV?$allocator@V?$basic_string@_WU?$char_traits@_W@std@@V?$allocator@_W@2@@std@@@1@QEAV?$basic_string@_WU?$char_traits@_W@std@@V?$allocator@_W@2@@1@AEBV31@@Z
	??$construct@V?$basic_string@_WU?$char_traits@_W@std@@V?$allocator@_W@2@@std@@V12@@?$_Default_allocator_traits@V?$allocator@V?$basic_string@_WU?$char_traits@_W@std@@V?$allocator@_W@2@@std@@@std@@@std@@SAXAEAV?$allocator@V?$basic_string@_WU?$char_traits@_W@std@@V?$allocator@_W@2@@std@@@1@QEAV?$basic_string@_WU?$char_traits@_W@std@@V?$allocator@_W@2@@1@$$QEAV31@@Z
	??$copy@PEAPEAUCachedBlock@SerialArena@internal@protobuf@google@@PEAPEAU12345@@std@@YAPEAPEAUCachedBlock@SerialArena@internal@protobuf@google@@PEAPEAU12345@00@Z
	??$copy@PEAUKeyValue@ExtensionSet@internal@protobuf@google@@PEAU12345@@std@@YAPEAUKeyValue@ExtensionSet@internal@protobuf@google@@PEAU12345@00@Z
	??$copy@V?$GenericTypeHandler@VMessageLite@protobuf@google@@@internal@protobuf@google@@@RepeatedPtrFieldBase@internal@protobuf@google@@KAPEAVMessageLite@23@PEBV423@@Z
	??$copy@V?$_Vector_iterator@V?$_Vector_val@U?$_Simple_types@I@std@@@std@@@std@@PEAI@std@@YAPEAIV?$_Vector_iterator@V?$_Vector_val@U?$_Simple_types@I@std@@@std@@@0@0PEAI@Z
	??$copy_backward@PEAUKeyValue@ExtensionSet@internal@protobuf@google@@PEAU12345@@std@@YAPEAUKeyValue@ExtensionSet@internal@protobuf@google@@PEAU12345@00@Z
	??$countl_zero@I@lts_20250814@absl@@YAHI@Z
	??$countl_zero@_K@lts_20250814@absl@@YAH_K@Z
	??$countr_zero@G@lts_20250814@absl@@YAHG@Z
	??$countr_zero@_K@lts_20250814@absl@@YAH_K@Z
	??$destroy@U?$pair@$$CBHUExtension@ExtensionSet@internal@protobuf@google@@@std@@@?$_Default_allocator_traits@V?$allocator@U?$pair@$$CBHUExtension@ExtensionSet@internal@protobuf@google@@@std@@@std@@@std@@SAXAEAV?$allocator@U?$pair@$$CBHUExtension@ExtensionSet@internal@protobuf@google@@@std@@@1@QEAU?$pair@$$CBHUExtension@ExtensionSet@internal@protobuf@google@@@1@@Z
	??$destroy@U?$pair@$$CBUVariantKey@internal@protobuf@google@@PEAUNodeBase@234@@std@@@?$MapAllocator@U?$pair@$$CBUVariantKey@internal@protobuf@google@@PEAUNodeBase@234@@std@@@internal@protobuf@google@@QEAAXPEAU?$pair@$$CBUVariantKey@internal@protobuf@google@@PEAUNodeBase@234@@std@@@Z
	??$destroy@U?$pair@$$CBUVariantKey@internal@protobuf@google@@PEAUNodeBase@234@@std@@@?$_Normal_allocator_traits@V?$MapAllocator@U?$pair@$$CBUVariantKey@internal@protobuf@google@@PEAUNodeBase@234@@std@@@internal@protobuf@google@@@std@@SAXAEAV?$MapAllocator@U?$pair@$$CBUVariantKey@internal@protobuf@google@@PEAUNodeBase@234@@std@@@internal@protobuf@google@@PEAU?$pair@$$CBUVariantKey@internal@protobuf@google@@PEAUNodeBase@234@@1@@Z
	??$destroy@U?$pair@$$CBV?$basic_string_view@DU?$char_traits@D@std@@@std@@PEBVRealDebugCounter@internal@protobuf@google@@@std@@@?$_Default_allocator_traits@V?$allocator@U?$_Tree_node@U?$pair@$$CBV?$basic_string_view@DU?$char_traits@D@std@@@std@@PEBVRealDebugCounter@internal@protobuf@google@@@std@@PEAX@std@@@std@@@std@@SAXAEAV?$allocator@U?$_Tree_node@U?$pair@$$CBV?$basic_string_view@DU?$char_traits@D@std@@@std@@PEBVRealDebugCounter@internal@protobuf@google@@@std@@PEAX@std@@@1@QEAU?$pair@$$CBV?$basic_string_view@DU?$char_traits@D@std@@@std@@PEBVRealDebugCounter@internal@protobuf@google@@@1@@Z
	??$destroy@U?$pair@$$CBV?$basic_string_view@DU?$char_traits@D@std@@@std@@V?$map@V?$basic_string_view@DU?$char_traits@D@std@@@std@@PEBVRealDebugCounter@internal@protobuf@google@@U?$less@V?$basic_string_view@DU?$char_traits@D@std@@@std@@@2@V?$allocator@U?$pair@$$CBV?$basic_string_view@DU?$char_traits@D@std@@@std@@PEBVRealDebugCounter@internal@protobuf@google@@@std@@@2@@2@@std@@@?$_Default_allocator_traits@V?$allocator@U?$_Tree_node@U?$pair@$$CBV?$basic_string_view@DU?$char_traits@D@std@@@std@@V?$map@V?$basic_string_view@DU?$char_traits@D@std@@@std@@PEBVRealDebugCounter@internal@protobuf@google@@U?$less@V?$basic_string_view@DU?$char_traits@D@std@@@std@@@2@V?$allocator@U?$pair@$$CBV?$basic_string_view@DU?$char_traits@D@std@@@std@@PEBVRealDebugCounter@internal@protobuf@google@@@std@@@2@@2@@std@@PEAX@std@@@std@@@std@@SAXAEAV?$allocator@U?$_Tree_node@U?$pair@$$CBV?$basic_string_view@DU?$char_traits@D@std@@@std@@V?$map@V?$basic_string_view@DU?$char_traits@D@std@@@std@@PEBVRealDebugCounter@internal@protobuf@google@@U?$less@V?$basic_string_view@DU?$char_traits@D@std@@@std@@@2@V?$allocator@U?$pair@$$CBV?$basic_string_view@DU?$char_traits@D@std@@@std@@PEBVRealDebugCounter@internal@protobuf@google@@@std@@@2@@2@@std@@PEAX@std@@@1@QEAU?$pair@$$CBV?$basic_string_view@DU?$char_traits@D@std@@@std@@V?$map@V?$basic_string_view@DU?$char_traits@D@std@@@std@@PEBVRealDebugCounter@internal@protobuf@google@@U?$less@V?$basic_string_view@DU?$char_traits@D@std@@@std@@@2@V?$allocator@U?$pair@$$CBV?$basic_string_view@DU?$char_traits@D@std@@@std@@PEBVRealDebugCounter@internal@protobuf@google@@@std@@@2@@2@@1@@Z
	??$destroy@U?$pair@HUExtension@ExtensionSet@internal@protobuf@google@@@std@@@?$_Default_allocator_traits@V?$allocator@U?$pair@$$CBHUExtension@ExtensionSet@internal@protobuf@google@@@std@@@std@@@std@@SAXAEAV?$allocator@U?$pair@$$CBHUExtension@ExtensionSet@internal@protobuf@google@@@std@@@1@QEAU?$pair@HUExtension@ExtensionSet@internal@protobuf@google@@@1@@Z
	??$destroy@U?$pair@UVariantKey@internal@protobuf@google@@PEAUNodeBase@234@@std@@@?$MapAllocator@U?$pair@$$CBUVariantKey@internal@protobuf@google@@PEAUNodeBase@234@@std@@@internal@protobuf@google@@QEAAXPEAU?$pair@UVariantKey@internal@protobuf@google@@PEAUNodeBase@234@@std@@@Z
	??$destroy@U?$pair@UVariantKey@internal@protobuf@google@@PEAUNodeBase@234@@std@@@?$_Normal_allocator_traits@V?$MapAllocator@U?$pair@$$CBUVariantKey@internal@protobuf@google@@PEAUNodeBase@234@@std@@@internal@protobuf@google@@@std@@SAXAEAV?$MapAllocator@U?$pair@$$CBUVariantKey@internal@protobuf@google@@PEAUNodeBase@234@@std@@@internal@protobuf@google@@PEAU?$pair@UVariantKey@internal@protobuf@google@@PEAUNodeBase@234@@1@@Z
	??$destroy@UExtensionInfo@internal@protobuf@google@@@?$_Default_allocator_traits@V?$allocator@UExtensionInfo@internal@protobuf@google@@@std@@@std@@SAXAEAV?$allocator@UExtensionInfo@internal@protobuf@google@@@1@QEAUExtensionInfo@internal@protobuf@google@@@Z
	??$destroy@V?$MapAllocator@U?$pair@$$CBUVariantKey@internal@protobuf@google@@PEAUNodeBase@234@@std@@@internal@protobuf@google@@@?$common_policy_traits@U?$map_slot_policy@UVariantKey@internal@protobuf@google@@PEAUNodeBase@234@@container_internal@lts_20250814@absl@@X@container_internal@lts_20250814@absl@@SA?A_PPEAV?$MapAllocator@U?$pair@$$CBUVariantKey@internal@protobuf@google@@PEAUNodeBase@234@@std@@@internal@protobuf@google@@PEAT?$map_slot_type@UVariantKey@internal@protobuf@google@@PEAUNodeBase@234@@123@@Z
	??$destroy@V?$MapAllocator@U?$pair@$$CBUVariantKey@internal@protobuf@google@@PEAUNodeBase@234@@std@@@internal@protobuf@google@@@?$map_slot_policy@UVariantKey@internal@protobuf@google@@PEAUNodeBase@234@@container_internal@lts_20250814@absl@@SA?A_PPEAV?$MapAllocator@U?$pair@$$CBUVariantKey@internal@protobuf@google@@PEAUNodeBase@234@@std@@@internal@protobuf@google@@PEAT?$map_slot_type@UVariantKey@internal@protobuf@google@@PEAUNodeBase@234@@123@@Z
	??$destroy@V?$allocator@U?$pair@$$CBHUExtension@ExtensionSet@internal@protobuf@google@@@std@@@std@@@?$common_policy_traits@U?$map_slot_policy@HUExtension@ExtensionSet@internal@protobuf@google@@@container_internal@lts_20250814@absl@@X@container_internal@lts_20250814@absl@@SA?A_PPEAV?$allocator@U?$pair@$$CBHUExtension@ExtensionSet@internal@protobuf@google@@@std@@@std@@PEAT?$map_slot_type@HUExtension@ExtensionSet@internal@protobuf@google@@@123@@Z
	??$destroy@V?$allocator@U?$pair@$$CBHUExtension@ExtensionSet@internal@protobuf@google@@@std@@@std@@@?$map_slot_policy@HUExtension@ExtensionSet@internal@protobuf@google@@@container_internal@lts_20250814@absl@@SA?A_PPEAV?$allocator@U?$pair@$$CBHUExtension@ExtensionSet@internal@protobuf@google@@@std@@@std@@PEAT?$map_slot_type@HUExtension@ExtensionSet@internal@protobuf@google@@@123@@Z
	??$destroy@V?$allocator@UExtensionInfo@internal@protobuf@google@@@std@@@?$FlatHashSetPolicy@UExtensionInfo@internal@protobuf@google@@@container_internal@lts_20250814@absl@@SA?A_PPEAV?$allocator@UExtensionInfo@internal@protobuf@google@@@std@@PEAUExtensionInfo@internal@protobuf@google@@@Z
	??$destroy@V?$allocator@UExtensionInfo@internal@protobuf@google@@@std@@@?$common_policy_traits@U?$FlatHashSetPolicy@UExtensionInfo@internal@protobuf@google@@@container_internal@lts_20250814@absl@@X@container_internal@lts_20250814@absl@@SA?A_PPEAV?$allocator@UExtensionInfo@internal@protobuf@google@@@std@@PEAUExtensionInfo@internal@protobuf@google@@@Z
	??$destroy@V?$basic_string@_WU?$char_traits@_W@std@@V?$allocator@_W@2@@std@@@?$_Default_allocator_traits@V?$allocator@V?$basic_string@_WU?$char_traits@_W@std@@V?$allocator@_W@2@@std@@@std@@@std@@SAXAEAV?$allocator@V?$basic_string@_WU?$char_traits@_W@std@@V?$allocator@_W@2@@std@@@1@QEAV?$basic_string@_WU?$char_traits@_W@std@@V?$allocator@_W@2@@1@@Z
	??$destroy_is_trivial@V?$allocator@UExtensionInfo@internal@protobuf@google@@@std@@@?$common_policy_traits@U?$FlatHashSetPolicy@UExtensionInfo@internal@protobuf@google@@@container_internal@lts_20250814@absl@@X@container_internal@lts_20250814@absl@@SA_NXZ
	??$distance@PEAUKeyValue@ExtensionSet@internal@protobuf@google@@@std@@YA_JPEAUKeyValue@ExtensionSet@internal@protobuf@google@@0@Z
	??$distance@PEBH@std@@YA_JPEBH0@Z
	??$distance@PEBUEnumEntry@internal@protobuf@google@@@std@@YA_JPEBUEnumEntry@internal@protobuf@google@@0@Z
	??$element@U?$FlatHashSetPolicy@UExtensionInfo@internal@protobuf@google@@@container_internal@lts_20250814@absl@@@?$common_policy_traits@U?$FlatHashSetPolicy@UExtensionInfo@internal@protobuf@google@@@container_internal@lts_20250814@absl@@X@container_internal@lts_20250814@absl@@SAAEAUExtensionInfo@internal@protobuf@google@@PEAU4567@@Z
	??$element@U?$map_slot_policy@HUExtension@ExtensionSet@internal@protobuf@google@@@container_internal@lts_20250814@absl@@@?$common_policy_traits@U?$map_slot_policy@HUExtension@ExtensionSet@internal@protobuf@google@@@container_internal@lts_20250814@absl@@X@container_internal@lts_20250814@absl@@SAAEAU?$pair@$$CBHUExtension@ExtensionSet@internal@protobuf@google@@@std@@PEAT?$map_slot_type@HUExtension@ExtensionSet@internal@protobuf@google@@@123@@Z
	??$element@U?$map_slot_policy@HUExtension@ExtensionSet@internal@protobuf@google@@@container_internal@lts_20250814@absl@@@?$common_policy_traits@U?$map_slot_policy@HUExtension@ExtensionSet@internal@protobuf@google@@@container_internal@lts_20250814@absl@@X@container_internal@lts_20250814@absl@@SAAEBU?$pair@$$CBHUExtension@ExtensionSet@internal@protobuf@google@@@std@@PEBT?$map_slot_type@HUExtension@ExtensionSet@internal@protobuf@google@@@123@@Z
	??$element@U?$map_slot_policy@UVariantKey@internal@protobuf@google@@PEAUNodeBase@234@@container_internal@lts_20250814@absl@@@?$common_policy_traits@U?$map_slot_policy@UVariantKey@internal@protobuf@google@@PEAUNodeBase@234@@container_internal@lts_20250814@absl@@X@container_internal@lts_20250814@absl@@SAAEAU?$pair@$$CBUVariantKey@internal@protobuf@google@@PEAUNodeBase@234@@std@@PEAT?$map_slot_type@UVariantKey@internal@protobuf@google@@PEAUNodeBase@234@@123@@Z
	??$emplace_value@AEBUpiecewise_construct_t@std@@V?$tuple@$$QEAUVariantKey@internal@protobuf@google@@@2@V?$tuple@AEAPEAUNodeBase@internal@protobuf@google@@@2@@?$btree_node@U?$map_params@UVariantKey@internal@protobuf@google@@PEAUNodeBase@234@U?$less@UVariantKey@internal@protobuf@google@@@std@@V?$MapAllocator@U?$pair@$$CBUVariantKey@internal@protobuf@google@@PEAUNodeBase@234@@std@@@234@$0BAA@$0A@@container_internal@lts_20250814@absl@@@container_internal@lts_20250814@absl@@QEAAXEPEAV?$MapAllocator@U?$pair@$$CBUVariantKey@internal@protobuf@google@@PEAUNodeBase@234@@std@@@internal@protobuf@google@@AEBUpiecewise_construct_t@std@@$$QEAV?$tuple@$$QEAUVariantKey@internal@protobuf@google@@@9@$$QEAV?$tuple@AEAPEAUNodeBase@internal@protobuf@google@@@9@@Z
	??$emplace_value@PEAT?$map_slot_type@HUExtension@ExtensionSet@internal@protobuf@google@@@container_internal@lts_20250814@absl@@@?$btree_node@U?$map_params@HUExtension@ExtensionSet@internal@protobuf@google@@U?$less@H@std@@V?$allocator@U?$pair@$$CBHUExtension@ExtensionSet@internal@protobuf@google@@@std@@@7@$0BAA@$0A@@container_internal@lts_20250814@absl@@@container_internal@lts_20250814@absl@@QEAAXEPEAV?$allocator@U?$pair@$$CBHUExtension@ExtensionSet@internal@protobuf@google@@@std@@@std@@$$QEAPEAT?$map_slot_type@HUExtension@ExtensionSet@internal@protobuf@google@@@123@@Z
	??$emplace_value@PEAT?$map_slot_type@UVariantKey@internal@protobuf@google@@PEAUNodeBase@234@@container_internal@lts_20250814@absl@@@?$btree_node@U?$map_params@UVariantKey@internal@protobuf@google@@PEAUNodeBase@234@U?$less@UVariantKey@internal@protobuf@google@@@std@@V?$MapAllocator@U?$pair@$$CBUVariantKey@internal@protobuf@google@@PEAUNodeBase@234@@std@@@234@$0BAA@$0A@@container_internal@lts_20250814@absl@@@container_internal@lts_20250814@absl@@QEAAXEPEAV?$MapAllocator@U?$pair@$$CBUVariantKey@internal@protobuf@google@@PEAUNodeBase@234@@std@@@internal@protobuf@google@@$$QEAPEAT?$map_slot_type@UVariantKey@internal@protobuf@google@@PEAUNodeBase@234@@123@@Z
	??$emplace_value@U?$pair@$$CBHUExtension@ExtensionSet@internal@protobuf@google@@@std@@@?$btree_node@U?$map_params@HUExtension@ExtensionSet@internal@protobuf@google@@U?$less@H@std@@V?$allocator@U?$pair@$$CBHUExtension@ExtensionSet@internal@protobuf@google@@@std@@@7@$0BAA@$0A@@container_internal@lts_20250814@absl@@@container_internal@lts_20250814@absl@@QEAAXEPEAV?$allocator@U?$pair@$$CBHUExtension@ExtensionSet@internal@protobuf@google@@@std@@@std@@$$QEAU?$pair@$$CBHUExtension@ExtensionSet@internal@protobuf@google@@@5@@Z
	??$equal_range@H@?$btree@U?$map_params@HUExtension@ExtensionSet@internal@protobuf@google@@U?$less@H@std@@V?$allocator@U?$pair@$$CBHUExtension@ExtensionSet@internal@protobuf@google@@@std@@@7@$0BAA@$0A@@container_internal@lts_20250814@absl@@@container_internal@lts_20250814@absl@@QEAA?AU?$pair@V?$btree_iterator@V?$btree_node@U?$map_params@HUExtension@ExtensionSet@internal@protobuf@google@@U?$less@H@std@@V?$allocator@U?$pair@$$CBHUExtension@ExtensionSet@internal@protobuf@google@@@std@@@7@$0BAA@$0A@@container_internal@lts_20250814@absl@@@container_internal@lts_20250814@absl@@AEAU?$pair@$$CBHUExtension@ExtensionSet@internal@protobuf@google@@@std@@PEAU56@@container_internal@lts_20250814@absl@@V1234@@std@@AEBH@Z
	??$equal_range@H@?$btree_container@V?$btree@U?$map_params@HUExtension@ExtensionSet@internal@protobuf@google@@U?$less@H@std@@V?$allocator@U?$pair@$$CBHUExtension@ExtensionSet@internal@protobuf@google@@@std@@@7@$0BAA@$0A@@container_internal@lts_20250814@absl@@@container_internal@lts_20250814@absl@@@container_internal@lts_20250814@absl@@QEAA?AU?$pair@V?$btree_iterator@V?$btree_node@U?$map_params@HUExtension@ExtensionSet@internal@protobuf@google@@U?$less@H@std@@V?$allocator@U?$pair@$$CBHUExtension@ExtensionSet@internal@protobuf@google@@@std@@@7@$0BAA@$0A@@container_internal@lts_20250814@absl@@@container_internal@lts_20250814@absl@@AEAU?$pair@$$CBHUExtension@ExtensionSet@internal@protobuf@google@@@std@@PEAU56@@container_internal@lts_20250814@absl@@V1234@@std@@AEBH@Z
	??$erase@H@?$btree_container@V?$btree@U?$map_params@HUExtension@ExtensionSet@internal@protobuf@google@@U?$less@H@std@@V?$allocator@U?$pair@$$CBHUExtension@ExtensionSet@internal@protobuf@google@@@std@@@7@$0BAA@$0A@@container_internal@lts_20250814@absl@@@container_internal@lts_20250814@absl@@@container_internal@lts_20250814@absl@@QEAA_KAEBH@Z
	??$exchange@HAEAH@std@@YAHAEAH0@Z
	??$exchange@PEAEAEAPEAE@std@@YAPEAEAEAPEAE0@Z
	??$exchange@PEAI$$T@std@@YAPEAIAEAPEAI$$QEA$$T@Z
	??$exchange@PEAPEAX$$T@std@@YAPEAPEAXAEAPEAPEAX$$QEA$$T@Z
	??$exchange@PEAU?$_Tree_node@U?$pair@$$CBV?$basic_string_view@DU?$char_traits@D@std@@@std@@PEBVRealDebugCounter@internal@protobuf@google@@@std@@PEAX@std@@$$T@std@@YAPEAU?$_Tree_node@U?$pair@$$CBV?$basic_string_view@DU?$char_traits@D@std@@@std@@PEBVRealDebugCounter@internal@protobuf@google@@@std@@PEAX@0@AEAPEAU10@$$QEA$$T@Z
	??$exchange@PEAU?$_Tree_node@U?$pair@$$CBV?$basic_string_view@DU?$char_traits@D@std@@@std@@PEBVRealDebugCounter@internal@protobuf@google@@@std@@PEAX@std@@AEAPEAU12@@std@@YAPEAU?$_Tree_node@U?$pair@$$CBV?$basic_string_view@DU?$char_traits@D@std@@@std@@PEBVRealDebugCounter@internal@protobuf@google@@@std@@PEAX@0@AEAPEAU10@0@Z
	??$exchange@PEAU?$_Tree_node@U?$pair@$$CBV?$basic_string_view@DU?$char_traits@D@std@@@std@@V?$map@V?$basic_string_view@DU?$char_traits@D@std@@@std@@PEBVRealDebugCounter@internal@protobuf@google@@U?$less@V?$basic_string_view@DU?$char_traits@D@std@@@std@@@2@V?$allocator@U?$pair@$$CBV?$basic_string_view@DU?$char_traits@D@std@@@std@@PEBVRealDebugCounter@internal@protobuf@google@@@std@@@2@@2@@std@@PEAX@std@@$$T@std@@YAPEAU?$_Tree_node@U?$pair@$$CBV?$basic_string_view@DU?$char_traits@D@std@@@std@@V?$map@V?$basic_string_view@DU?$char_traits@D@std@@@std@@PEBVRealDebugCounter@internal@protobuf@google@@U?$less@V?$basic_string_view@DU?$char_traits@D@std@@@std@@@2@V?$allocator@U?$pair@$$CBV?$basic_string_view@DU?$char_traits@D@std@@@std@@PEBVRealDebugCounter@internal@protobuf@google@@@std@@@2@@2@@std@@PEAX@0@AEAPEAU10@$$QEA$$T@Z
	??$exchange@PEAU?$_Tree_node@U?$pair@$$CBV?$basic_string_view@DU?$char_traits@D@std@@@std@@V?$map@V?$basic_string_view@DU?$char_traits@D@std@@@std@@PEBVRealDebugCounter@internal@protobuf@google@@U?$less@V?$basic_string_view@DU?$char_traits@D@std@@@std@@@2@V?$allocator@U?$pair@$$CBV?$basic_string_view@DU?$char_traits@D@std@@@std@@PEBVRealDebugCounter@internal@protobuf@google@@@std@@@2@@2@@std@@PEAX@std@@AEAPEAU12@@std@@YAPEAU?$_Tree_node@U?$pair@$$CBV?$basic_string_view@DU?$char_traits@D@std@@@std@@V?$map@V?$basic_string_view@DU?$char_traits@D@std@@@std@@PEBVRealDebugCounter@internal@protobuf@google@@U?$less@V?$basic_string_view@DU?$char_traits@D@std@@@std@@@2@V?$allocator@U?$pair@$$CBV?$basic_string_view@DU?$char_traits@D@std@@@std@@PEBVRealDebugCounter@internal@protobuf@google@@@std@@@2@@2@@std@@PEAX@0@AEAPEAU10@0@Z
	??$fill@PEAPEAUCachedBlock@SerialArena@internal@protobuf@google@@$$T@std@@YAXQEAPEAUCachedBlock@SerialArena@internal@protobuf@google@@0AEB$$T@Z
	??$fill@PEAW4TableEntryPtr@internal@protobuf@google@@W41234@@std@@YAXQEAW4TableEntryPtr@internal@protobuf@google@@0AEBW41234@@Z
	??$find@H@?$btree@U?$map_params@HUExtension@ExtensionSet@internal@protobuf@google@@U?$less@H@std@@V?$allocator@U?$pair@$$CBHUExtension@ExtensionSet@internal@protobuf@google@@@std@@@7@$0BAA@$0A@@container_internal@lts_20250814@absl@@@container_internal@lts_20250814@absl@@QEAA?AV?$btree_iterator@V?$btree_node@U?$map_params@HUExtension@ExtensionSet@internal@protobuf@google@@U?$less@H@std@@V?$allocator@U?$pair@$$CBHUExtension@ExtensionSet@internal@protobuf@google@@@std@@@7@$0BAA@$0A@@container_internal@lts_20250814@absl@@@container_internal@lts_20250814@absl@@AEAU?$pair@$$CBHUExtension@ExtensionSet@internal@protobuf@google@@@std@@PEAU56@@123@AEBH@Z
	??$find@H@?$btree_container@V?$btree@U?$map_params@HUExtension@ExtensionSet@internal@protobuf@google@@U?$less@H@std@@V?$allocator@U?$pair@$$CBHUExtension@ExtensionSet@internal@protobuf@google@@@std@@@7@$0BAA@$0A@@container_internal@lts_20250814@absl@@@container_internal@lts_20250814@absl@@@container_internal@lts_20250814@absl@@QEAA?AV?$btree_iterator@V?$btree_node@U?$map_params@HUExtension@ExtensionSet@internal@protobuf@google@@U?$less@H@std@@V?$allocator@U?$pair@$$CBHUExtension@ExtensionSet@internal@protobuf@google@@@std@@@7@$0BAA@$0A@@container_internal@lts_20250814@absl@@@container_internal@lts_20250814@absl@@AEAU?$pair@$$CBHUExtension@ExtensionSet@internal@protobuf@google@@@std@@PEAU56@@123@AEBH@Z
	??$find@UVariantKey@internal@protobuf@google@@@?$btree@U?$map_params@UVariantKey@internal@protobuf@google@@PEAUNodeBase@234@U?$less@UVariantKey@internal@protobuf@google@@@std@@V?$MapAllocator@U?$pair@$$CBUVariantKey@internal@protobuf@google@@PEAUNodeBase@234@@std@@@234@$0BAA@$0A@@container_internal@lts_20250814@absl@@@container_internal@lts_20250814@absl@@QEAA?AV?$btree_iterator@V?$btree_node@U?$map_params@UVariantKey@internal@protobuf@google@@PEAUNodeBase@234@U?$less@UVariantKey@internal@protobuf@google@@@std@@V?$MapAllocator@U?$pair@$$CBUVariantKey@internal@protobuf@google@@PEAUNodeBase@234@@std@@@234@$0BAA@$0A@@container_internal@lts_20250814@absl@@@container_internal@lts_20250814@absl@@AEAU?$pair@$$CBUVariantKey@internal@protobuf@google@@PEAUNodeBase@234@@std@@PEAU56@@123@AEBUVariantKey@internal@protobuf@google@@@Z
	??$find@UVariantKey@internal@protobuf@google@@@?$btree_container@V?$btree@U?$map_params@UVariantKey@internal@protobuf@google@@PEAUNodeBase@234@U?$less@UVariantKey@internal@protobuf@google@@@std@@V?$MapAllocator@U?$pair@$$CBUVariantKey@internal@protobuf@google@@PEAUNodeBase@234@@std@@@234@$0BAA@$0A@@container_internal@lts_20250814@absl@@@container_internal@lts_20250814@absl@@@container_internal@lts_20250814@absl@@QEAA?AV?$btree_iterator@V?$btree_node@U?$map_params@UVariantKey@internal@protobuf@google@@PEAUNodeBase@234@U?$less@UVariantKey@internal@protobuf@google@@@std@@V?$MapAllocator@U?$pair@$$CBUVariantKey@internal@protobuf@google@@PEAUNodeBase@234@@std@@@234@$0BAA@$0A@@container_internal@lts_20250814@absl@@@container_internal@lts_20250814@absl@@AEAU?$pair@$$CBUVariantKey@internal@protobuf@google@@PEAUNodeBase@234@@std@@PEAU56@@123@AEBUVariantKey@internal@protobuf@google@@@Z
	??$for_each@PEBHV<lambda_efdad01494070d84ae3887c6c4361af6>@@@std@@YA?AV<lambda_efdad01494070d84ae3887c6c4361af6>@@PEBH0V1@@Z
	??$for_each@PEBIV<lambda_4f9dead8390780cf9bc5782225fd2724>@@@std@@YA?AV<lambda_4f9dead8390780cf9bc5782225fd2724>@@PEBI0V1@@Z
	??$for_each@PEBMV<lambda_e762644b6bacbe0a2a7ed3ccbb0656c1>@@@std@@YA?AV<lambda_e762644b6bacbe0a2a7ed3ccbb0656c1>@@PEBM0V1@@Z
	??$for_each@PEBNV<lambda_b134a55c467c5ec66bdb5e69797ae799>@@@std@@YA?AV<lambda_b134a55c467c5ec66bdb5e69797ae799>@@PEBN0V1@@Z
	??$for_each@PEB_JV<lambda_14fb06a576a371f9dfb3029cab81576a>@@@std@@YA?AV<lambda_14fb06a576a371f9dfb3029cab81576a>@@PEB_J0V1@@Z
	??$for_each@PEB_KV<lambda_73c6123aa7e9bc0a22a1a5d1ebec43a2>@@@std@@YA?AV<lambda_73c6123aa7e9bc0a22a1a5d1ebec43a2>@@PEB_K0V1@@Z
	??$for_each@PEB_NV<lambda_9755557be41e25ac5884fbfa47a2decd>@@@std@@YA?AV<lambda_9755557be41e25ac5884fbfa47a2decd>@@PEB_N0V1@@Z
	??$forward@$$CBH@std@@YA$$QEBHAEBH@Z
	??$forward@$$QEAUVariantKey@internal@protobuf@google@@@std@@YA$$QEAUVariantKey@internal@protobuf@google@@AEAU1234@@Z
	??$forward@$$T@std@@YA$$QEA$$TAEA$$T@Z
	??$forward@AEAH@std@@YAAEAHAEAH@Z
	??$forward@AEAI@std@@YAAEAIAEAI@Z
	??$forward@AEAP6AXPEBX@Z@std@@YAAEAP6AXPEBX@ZAEAP6AX0@Z@Z
	??$forward@AEAPEAD@std@@YAAEAPEADAEAPEAD@Z
	??$forward@AEAPEAH@std@@YAAEAPEAHAEAPEAH@Z
	??$forward@AEAPEAI@std@@YAAEAPEAIAEAPEAI@Z
	??$forward@AEAPEAM@std@@YAAEAPEAMAEAPEAM@Z
	??$forward@AEAPEAN@std@@YAAEAPEANAEAPEAN@Z
	??$forward@AEAPEAU?$_Tree_node@U?$pair@$$CBV?$basic_string_view@DU?$char_traits@D@std@@@std@@PEBVRealDebugCounter@internal@protobuf@google@@@std@@PEAX@std@@@std@@YAAEAPEAU?$_Tree_node@U?$pair@$$CBV?$basic_string_view@DU?$char_traits@D@std@@@std@@PEBVRealDebugCounter@internal@protobuf@google@@@std@@PEAX@0@AEAPEAU10@@Z
	??$forward@AEAPEAU?$_Tree_node@U?$pair@$$CBV?$basic_string_view@DU?$char_traits@D@std@@@std@@V?$map@V?$basic_string_view@DU?$char_traits@D@std@@@std@@PEBVRealDebugCounter@internal@protobuf@google@@U?$less@V?$basic_string_view@DU?$char_traits@D@std@@@std@@@2@V?$allocator@U?$pair@$$CBV?$basic_string_view@DU?$char_traits@D@std@@@std@@PEBVRealDebugCounter@internal@protobuf@google@@@std@@@2@@2@@std@@PEAX@std@@@std@@YAAEAPEAU?$_Tree_node@U?$pair@$$CBV?$basic_string_view@DU?$char_traits@D@std@@@std@@V?$map@V?$basic_string_view@DU?$char_traits@D@std@@@std@@PEBVRealDebugCounter@internal@protobuf@google@@U?$less@V?$basic_string_view@DU?$char_traits@D@std@@@std@@@2@V?$allocator@U?$pair@$$CBV?$basic_string_view@DU?$char_traits@D@std@@@std@@PEBVRealDebugCounter@internal@protobuf@google@@@std@@@2@@2@@std@@PEAX@0@AEAPEAU10@@Z
	??$forward@AEAPEAUExtension@ExtensionSet@internal@protobuf@google@@@std@@YAAEAPEAUExtension@ExtensionSet@internal@protobuf@google@@AEAPEAU12345@@Z
	??$forward@AEAPEAUNodeBase@internal@protobuf@google@@@std@@YAAEAPEAUNodeBase@internal@protobuf@google@@AEAPEAU1234@@Z
	??$forward@AEAPEAVMessageLite@protobuf@google@@@std@@YAAEAPEAVMessageLite@protobuf@google@@AEAPEAV123@@Z
	??$forward@AEAPEAVZeroCopyInputStream@io@protobuf@google@@@std@@YAAEAPEAVZeroCopyInputStream@io@protobuf@google@@AEAPEAV1234@@Z
	??$forward@AEAPEA_J@std@@YAAEAPEA_JAEAPEA_J@Z
	??$forward@AEAPEA_K@std@@YAAEAPEA_KAEAPEA_K@Z
	??$forward@AEAPEA_N@std@@YAAEAPEA_NAEAPEA_N@Z
	??$forward@AEAPEA_W@std@@YAAEAPEA_WAEAPEA_W@Z
	??$forward@AEAPEBD@std@@YAAEAPEBDAEAPEBD@Z
	??$forward@AEAPEBE@std@@YAAEAPEBEAEAPEBE@Z
	??$forward@AEAPEBH@std@@YAAEAPEBHAEAPEBH@Z
	??$forward@AEAPEBUEnumEntry@internal@protobuf@google@@@std@@YAAEAPEBUEnumEntry@internal@protobuf@google@@AEAPEBU1234@@Z
	??$forward@AEAPEBX@std@@YAAEAPEBXAEAPEBX@Z
	??$forward@AEAUExtensionInfo@internal@protobuf@google@@@std@@YAAEAUExtensionInfo@internal@protobuf@google@@AEAU1234@@Z
	??$forward@AEAV?$basic_string@DU?$char_traits@D@std@@V?$allocator@D@2@@std@@@std@@YAAEAV?$basic_string@DU?$char_traits@D@std@@V?$allocator@D@2@@0@AEAV10@@Z
	??$forward@AEAV?$basic_string_view@DU?$char_traits@D@std@@@std@@@std@@YAAEAV?$basic_string_view@DU?$char_traits@D@std@@@0@AEAV10@@Z
	??$forward@AEAV?$btree_iterator@V?$btree_node@U?$map_params@HUExtension@ExtensionSet@internal@protobuf@google@@U?$less@H@std@@V?$allocator@U?$pair@$$CBHUExtension@ExtensionSet@internal@protobuf@google@@@std@@@7@$0BAA@$0A@@container_internal@lts_20250814@absl@@@container_internal@lts_20250814@absl@@AEAU?$pair@$$CBHUExtension@ExtensionSet@internal@protobuf@google@@@std@@PEAU56@@container_internal@lts_20250814@absl@@@std@@YAAEAV?$btree_iterator@V?$btree_node@U?$map_params@HUExtension@ExtensionSet@internal@protobuf@google@@U?$less@H@std@@V?$allocator@U?$pair@$$CBHUExtension@ExtensionSet@internal@protobuf@google@@@std@@@7@$0BAA@$0A@@container_internal@lts_20250814@absl@@@container_internal@lts_20250814@absl@@AEAU?$pair@$$CBHUExtension@ExtensionSet@internal@protobuf@google@@@std@@PEAU56@@container_internal@lts_20250814@absl@@AEAV1234@@Z
	??$forward@AEAV?$btree_iterator@V?$btree_node@U?$map_params@UVariantKey@internal@protobuf@google@@PEAUNodeBase@234@U?$less@UVariantKey@internal@protobuf@google@@@std@@V?$MapAllocator@U?$pair@$$CBUVariantKey@internal@protobuf@google@@PEAUNodeBase@234@@std@@@234@$0BAA@$0A@@container_internal@lts_20250814@absl@@@container_internal@lts_20250814@absl@@AEAU?$pair@$$CBUVariantKey@internal@protobuf@google@@PEAUNodeBase@234@@std@@PEAU56@@container_internal@lts_20250814@absl@@@std@@YAAEAV?$btree_iterator@V?$btree_node@U?$map_params@UVariantKey@internal@protobuf@google@@PEAUNodeBase@234@U?$less@UVariantKey@internal@protobuf@google@@@std@@V?$MapAllocator@U?$pair@$$CBUVariantKey@internal@protobuf@google@@PEAUNodeBase@234@@std@@@234@$0BAA@$0A@@container_internal@lts_20250814@absl@@@container_internal@lts_20250814@absl@@AEAU?$pair@$$CBUVariantKey@internal@protobuf@google@@PEAUNodeBase@234@@std@@PEAU56@@container_internal@lts_20250814@absl@@AEAV1234@@Z
	??$forward@AEA_K@std@@YAAEA_KAEA_K@Z
	??$forward@AEA_N@std@@YAAEA_NAEA_N@Z
	??$forward@AEBH@std@@YAAEBHAEBH@Z
	??$forward@AEBI@std@@YAAEBIAEBI@Z
	??$forward@AEBQEAD@std@@YAAEBQEADAEBQEAD@Z
	??$forward@AEBQEAU?$_Tree_node@U?$pair@$$CBV?$basic_string_view@DU?$char_traits@D@std@@@std@@PEBVRealDebugCounter@internal@protobuf@google@@@std@@PEAX@std@@@std@@YAAEBQEAU?$_Tree_node@U?$pair@$$CBV?$basic_string_view@DU?$char_traits@D@std@@@std@@PEBVRealDebugCounter@internal@protobuf@google@@@std@@PEAX@0@AEBQEAU10@@Z
	??$forward@AEBQEAU?$_Tree_node@U?$pair@$$CBV?$basic_string_view@DU?$char_traits@D@std@@@std@@V?$map@V?$basic_string_view@DU?$char_traits@D@std@@@std@@PEBVRealDebugCounter@internal@protobuf@google@@U?$less@V?$basic_string_view@DU?$char_traits@D@std@@@std@@@2@V?$allocator@U?$pair@$$CBV?$basic_string_view@DU?$char_traits@D@std@@@std@@PEBVRealDebugCounter@internal@protobuf@google@@@std@@@2@@2@@std@@PEAX@std@@@std@@YAAEBQEAU?$_Tree_node@U?$pair@$$CBV?$basic_string_view@DU?$char_traits@D@std@@@std@@V?$map@V?$basic_string_view@DU?$char_traits@D@std@@@std@@PEBVRealDebugCounter@internal@protobuf@google@@U?$less@V?$basic_string_view@DU?$char_traits@D@std@@@std@@@2@V?$allocator@U?$pair@$$CBV?$basic_string_view@DU?$char_traits@D@std@@@std@@PEBVRealDebugCounter@internal@protobuf@google@@@std@@@2@@2@@std@@PEAX@0@AEBQEAU10@@Z
	??$forward@AEBQEAW4TableEntryPtr@internal@protobuf@google@@@std@@YAAEBQEAW4TableEntryPtr@internal@protobuf@google@@AEBQEAW41234@@Z
	??$forward@AEBQEAX@std@@YAAEBQEAXAEBQEAX@Z
	??$forward@AEBQEA_W@std@@YAAEBQEA_WAEBQEA_W@Z
	??$forward@AEBQEBVMessageLite@protobuf@google@@@std@@YAAEBQEBVMessageLite@protobuf@google@@AEBQEBV123@@Z
	??$forward@AEBQEBX@std@@YAAEBQEBXAEBQEBX@Z
	??$forward@AEBU?$less@V?$basic_string_view@DU?$char_traits@D@std@@@std@@@std@@@std@@YAAEBU?$less@V?$basic_string_view@DU?$char_traits@D@std@@@std@@@0@AEBU10@@Z
	??$forward@AEBUExtensionInfo@internal@protobuf@google@@@std@@YAAEBUExtensionInfo@internal@protobuf@google@@AEBU1234@@Z
	??$forward@AEBUchecked_compare@?$key_compare_adapter@U?$less@H@std@@H@container_internal@lts_20250814@absl@@@std@@YAAEBUchecked_compare@?$key_compare_adapter@U?$less@H@std@@H@container_internal@lts_20250814@absl@@AEBU12345@@Z
	??$forward@AEBUchecked_compare@?$key_compare_adapter@U?$less@UVariantKey@internal@protobuf@google@@@std@@UVariantKey@internal@protobuf@google@@@container_internal@lts_20250814@absl@@@std@@YAAEBUchecked_compare@?$key_compare_adapter@U?$less@UVariantKey@internal@protobuf@google@@@std@@UVariantKey@internal@protobuf@google@@@container_internal@lts_20250814@absl@@AEBU12345@@Z
	??$forward@AEBUpiecewise_construct_t@std@@@std@@YAAEBUpiecewise_construct_t@0@AEBU10@@Z
	??$forward@AEBV?$MapAllocator@U?$pair@$$CBUVariantKey@internal@protobuf@google@@PEAUNodeBase@234@@std@@@internal@protobuf@google@@@std@@YAAEBV?$MapAllocator@U?$pair@$$CBUVariantKey@internal@protobuf@google@@PEAUNodeBase@234@@std@@@internal@protobuf@google@@AEBV1234@@Z
	??$forward@AEBV?$allocator@D@std@@@std@@YAAEBV?$allocator@D@0@AEBV10@@Z
	??$forward@AEBV?$allocator@I@std@@@std@@YAAEBV?$allocator@I@0@AEBV10@@Z
	??$forward@AEBV?$allocator@U?$pair@$$CBHUExtension@ExtensionSet@internal@protobuf@google@@@std@@@std@@@std@@YAAEBV?$allocator@U?$pair@$$CBHUExtension@ExtensionSet@internal@protobuf@google@@@std@@@0@AEBV10@@Z
	??$forward@AEBV?$allocator@_W@std@@@std@@YAAEBV?$allocator@_W@0@AEBV10@@Z
	??$forward@AEBV?$basic_string@DU?$char_traits@D@std@@V?$allocator@D@2@@std@@@std@@YAAEBV?$basic_string@DU?$char_traits@D@std@@V?$allocator@D@2@@0@AEBV10@@Z
	??$forward@AEBV?$basic_string@_WU?$char_traits@_W@std@@V?$allocator@_W@2@@std@@@std@@YAAEBV?$basic_string@_WU?$char_traits@_W@std@@V?$allocator@_W@2@@0@AEBV10@@Z
	??$forward@AEBV?$basic_string_view@DU?$char_traits@D@std@@@std@@@std@@YAAEBV?$basic_string_view@DU?$char_traits@D@std@@@0@AEBV10@@Z
	??$forward@AEBV?$btree_iterator@V?$btree_node@U?$map_params@HUExtension@ExtensionSet@internal@protobuf@google@@U?$less@H@std@@V?$allocator@U?$pair@$$CBHUExtension@ExtensionSet@internal@protobuf@google@@@std@@@7@$0BAA@$0A@@container_internal@lts_20250814@absl@@@container_internal@lts_20250814@absl@@AEAU?$pair@$$CBHUExtension@ExtensionSet@internal@protobuf@google@@@std@@PEAU56@@container_internal@lts_20250814@absl@@@std@@YAAEBV?$btree_iterator@V?$btree_node@U?$map_params@HUExtension@ExtensionSet@internal@protobuf@google@@U?$less@H@std@@V?$allocator@U?$pair@$$CBHUExtension@ExtensionSet@internal@protobuf@google@@@std@@@7@$0BAA@$0A@@container_internal@lts_20250814@absl@@@container_internal@lts_20250814@absl@@AEAU?$pair@$$CBHUExtension@ExtensionSet@internal@protobuf@google@@@std@@PEAU56@@container_internal@lts_20250814@absl@@AEBV1234@@Z
	??$forward@AEB_K@std@@YAAEB_KAEB_K@Z
	??$forward@H@std@@YA$$QEAHAEAH@Z
	??$forward@I@std@@YA$$QEAIAEAI@Z
	??$forward@PEAD@std@@YA$$QEAPEADAEAPEAD@Z
	??$forward@PEAH@std@@YA$$QEAPEAHAEAPEAH@Z
	??$forward@PEAI@std@@YA$$QEAPEAIAEAPEAI@Z
	??$forward@PEAPEAUCachedBlock@SerialArena@internal@protobuf@google@@@std@@YA$$QEAPEAPEAUCachedBlock@SerialArena@internal@protobuf@google@@AEAPEAPEAU12345@@Z
	??$forward@PEAPEAX@std@@YA$$QEAPEAPEAXAEAPEAPEAX@Z
	??$forward@PEAT?$map_slot_type@HUExtension@ExtensionSet@internal@protobuf@google@@@container_internal@lts_20250814@absl@@@std@@YA$$QEAPEAT?$map_slot_type@HUExtension@ExtensionSet@internal@protobuf@google@@@container_internal@lts_20250814@absl@@AEAPEAT1234@@Z
	??$forward@PEAT?$map_slot_type@UVariantKey@internal@protobuf@google@@PEAUNodeBase@234@@container_internal@lts_20250814@absl@@@std@@YA$$QEAPEAT?$map_slot_type@UVariantKey@internal@protobuf@google@@PEAUNodeBase@234@@container_internal@lts_20250814@absl@@AEAPEAT1234@@Z
	??$forward@PEAU?$_Tree_node@U?$pair@$$CBV?$basic_string_view@DU?$char_traits@D@std@@@std@@PEBVRealDebugCounter@internal@protobuf@google@@@std@@PEAX@std@@@std@@YA$$QEAPEAU?$_Tree_node@U?$pair@$$CBV?$basic_string_view@DU?$char_traits@D@std@@@std@@PEBVRealDebugCounter@internal@protobuf@google@@@std@@PEAX@0@AEAPEAU10@@Z
	??$forward@PEAU?$_Tree_node@U?$pair@$$CBV?$basic_string_view@DU?$char_traits@D@std@@@std@@V?$map@V?$basic_string_view@DU?$char_traits@D@std@@@std@@PEBVRealDebugCounter@internal@protobuf@google@@U?$less@V?$basic_string_view@DU?$char_traits@D@std@@@std@@@2@V?$allocator@U?$pair@$$CBV?$basic_string_view@DU?$char_traits@D@std@@@std@@PEBVRealDebugCounter@internal@protobuf@google@@@std@@@2@@2@@std@@PEAX@std@@@std@@YA$$QEAPEAU?$_Tree_node@U?$pair@$$CBV?$basic_string_view@DU?$char_traits@D@std@@@std@@V?$map@V?$basic_string_view@DU?$char_traits@D@std@@@std@@PEBVRealDebugCounter@internal@protobuf@google@@U?$less@V?$basic_string_view@DU?$char_traits@D@std@@@std@@@2@V?$allocator@U?$pair@$$CBV?$basic_string_view@DU?$char_traits@D@std@@@std@@PEBVRealDebugCounter@internal@protobuf@google@@@std@@@2@@2@@std@@PEAX@0@AEAPEAU10@@Z
	??$forward@PEAUExtension@ExtensionSet@internal@protobuf@google@@@std@@YA$$QEAPEAUExtension@ExtensionSet@internal@protobuf@google@@AEAPEAU12345@@Z
	??$forward@PEAUKeyValue@ExtensionSet@internal@protobuf@google@@@std@@YA$$QEAPEAUKeyValue@ExtensionSet@internal@protobuf@google@@AEAPEAU12345@@Z
	??$forward@PEAV?$btree_node@U?$map_params@HUExtension@ExtensionSet@internal@protobuf@google@@U?$less@H@std@@V?$allocator@U?$pair@$$CBHUExtension@ExtensionSet@internal@protobuf@google@@@std@@@7@$0BAA@$0A@@container_internal@lts_20250814@absl@@@container_internal@lts_20250814@absl@@@std@@YA$$QEAPEAV?$btree_node@U?$map_params@HUExtension@ExtensionSet@internal@protobuf@google@@U?$less@H@std@@V?$allocator@U?$pair@$$CBHUExtension@ExtensionSet@internal@protobuf@google@@@std@@@7@$0BAA@$0A@@container_internal@lts_20250814@absl@@@container_internal@lts_20250814@absl@@AEAPEAV1234@@Z
	??$forward@PEAV?$btree_node@U?$map_params@UVariantKey@internal@protobuf@google@@PEAUNodeBase@234@U?$less@UVariantKey@internal@protobuf@google@@@std@@V?$MapAllocator@U?$pair@$$CBUVariantKey@internal@protobuf@google@@PEAUNodeBase@234@@std@@@234@$0BAA@$0A@@container_internal@lts_20250814@absl@@@container_internal@lts_20250814@absl@@@std@@YA$$QEAPEAV?$btree_node@U?$map_params@UVariantKey@internal@protobuf@google@@PEAUNodeBase@234@U?$less@UVariantKey@internal@protobuf@google@@@std@@V?$MapAllocator@U?$pair@$$CBUVariantKey@internal@protobuf@google@@PEAUNodeBase@234@@std@@@234@$0BAA@$0A@@container_internal@lts_20250814@absl@@@container_internal@lts_20250814@absl@@AEAPEAV1234@@Z
	??$forward@PEAVZeroCopyCodedInputStream@protobuf@google@@@std@@YA$$QEAPEAVZeroCopyCodedInputStream@protobuf@google@@AEAPEAV123@@Z
	??$forward@PEAX@std@@YA$$QEAPEAXAEAPEAX@Z
	??$forward@PEBD@std@@YA$$QEAPEBDAEAPEBD@Z
	??$forward@PEBE@std@@YA$$QEAPEBEAEAPEBE@Z
	??$forward@PEBW4ctrl_t@container_internal@lts_20250814@absl@@@std@@YA$$QEAPEBW4ctrl_t@container_internal@lts_20250814@absl@@AEAPEBW41234@@Z
	??$forward@U?$less@UVariantKey@internal@protobuf@google@@@std@@@std@@YA$$QEAU?$less@UVariantKey@internal@protobuf@google@@@0@AEAU10@@Z
	??$forward@U?$pair@$$CBHUExtension@ExtensionSet@internal@protobuf@google@@@std@@@std@@YA$$QEAU?$pair@$$CBHUExtension@ExtensionSet@internal@protobuf@google@@@0@AEAU10@@Z
	??$forward@U?$pair@$$CBUVariantKey@internal@protobuf@google@@PEAUNodeBase@234@@std@@@std@@YA$$QEAU?$pair@$$CBUVariantKey@internal@protobuf@google@@PEAUNodeBase@234@@0@AEAU10@@Z
	??$forward@U?$pair@HUExtension@ExtensionSet@internal@protobuf@google@@@std@@@std@@YA$$QEAU?$pair@HUExtension@ExtensionSet@internal@protobuf@google@@@0@AEAU10@@Z
	??$forward@U?$pair@P6AXPEBX@ZPEBX@std@@@std@@YA$$QEAU?$pair@P6AXPEBX@ZPEBX@0@AEAU10@@Z
	??$forward@U?$pair@UVariantKey@internal@protobuf@google@@PEAUNodeBase@234@@std@@@std@@YA$$QEAU?$pair@UVariantKey@internal@protobuf@google@@PEAUNodeBase@234@@0@AEAU10@@Z
	??$forward@UExtension@ExtensionSet@internal@protobuf@google@@@std@@YA$$QEAUExtension@ExtensionSet@internal@protobuf@google@@AEAU12345@@Z
	??$forward@UVariantKey@internal@protobuf@google@@@std@@YA$$QEAUVariantKey@internal@protobuf@google@@AEAU1234@@Z
	??$forward@U_Zero_then_variadic_args_t@std@@@std@@YA$$QEAU_Zero_then_variadic_args_t@0@AEAU10@@Z
	??$forward@V?$MapAllocator@U?$pair@$$CBUVariantKey@internal@protobuf@google@@PEAUNodeBase@234@@std@@@internal@protobuf@google@@@std@@YA$$QEAV?$MapAllocator@U?$pair@$$CBUVariantKey@internal@protobuf@google@@PEAUNodeBase@234@@std@@@internal@protobuf@google@@AEAV1234@@Z
	??$forward@V?$allocator@D@std@@@std@@YA$$QEAV?$allocator@D@0@AEAV10@@Z
	??$forward@V?$allocator@I@std@@@std@@YA$$QEAV?$allocator@I@0@AEAV10@@Z
	??$forward@V?$allocator@PEAX@std@@@std@@YA$$QEAV?$allocator@PEAX@0@AEAV10@@Z
	??$forward@V?$allocator@_W@std@@@std@@YA$$QEAV?$allocator@_W@0@AEAV10@@Z
	??$forward@V?$basic_string@DU?$char_traits@D@std@@V?$allocator@D@2@@std@@@std@@YA$$QEAV?$basic_string@DU?$char_traits@D@std@@V?$allocator@D@2@@0@AEAV10@@Z
	??$forward@V?$basic_string@_WU?$char_traits@_W@std@@V?$allocator@_W@2@@std@@@std@@YA$$QEAV?$basic_string@_WU?$char_traits@_W@std@@V?$allocator@_W@2@@0@AEAV10@@Z
	??$forward@V?$basic_string_view@DU?$char_traits@D@std@@@std@@@std@@YA$$QEAV?$basic_string_view@DU?$char_traits@D@std@@@0@AEAV10@@Z
	??$forward@V?$btree_iterator@V?$btree_node@U?$map_params@HUExtension@ExtensionSet@internal@protobuf@google@@U?$less@H@std@@V?$allocator@U?$pair@$$CBHUExtension@ExtensionSet@internal@protobuf@google@@@std@@@7@$0BAA@$0A@@container_internal@lts_20250814@absl@@@container_internal@lts_20250814@absl@@AEAU?$pair@$$CBHUExtension@ExtensionSet@internal@protobuf@google@@@std@@PEAU56@@container_internal@lts_20250814@absl@@@std@@YA$$QEAV?$btree_iterator@V?$btree_node@U?$map_params@HUExtension@ExtensionSet@internal@protobuf@google@@U?$less@H@std@@V?$allocator@U?$pair@$$CBHUExtension@ExtensionSet@internal@protobuf@google@@@std@@@7@$0BAA@$0A@@container_internal@lts_20250814@absl@@@container_internal@lts_20250814@absl@@AEAU?$pair@$$CBHUExtension@ExtensionSet@internal@protobuf@google@@@std@@PEAU56@@container_internal@lts_20250814@absl@@AEAV1234@@Z
	??$forward@V?$btree_iterator@V?$btree_node@U?$map_params@UVariantKey@internal@protobuf@google@@PEAUNodeBase@234@U?$less@UVariantKey@internal@protobuf@google@@@std@@V?$MapAllocator@U?$pair@$$CBUVariantKey@internal@protobuf@google@@PEAUNodeBase@234@@std@@@234@$0BAA@$0A@@container_internal@lts_20250814@absl@@@container_internal@lts_20250814@absl@@AEAU?$pair@$$CBUVariantKey@internal@protobuf@google@@PEAUNodeBase@234@@std@@PEAU56@@container_internal@lts_20250814@absl@@@std@@YA$$QEAV?$btree_iterator@V?$btree_node@U?$map_params@UVariantKey@internal@protobuf@google@@PEAUNodeBase@234@U?$less@UVariantKey@internal@protobuf@google@@@std@@V?$MapAllocator@U?$pair@$$CBUVariantKey@internal@protobuf@google@@PEAUNodeBase@234@@std@@@234@$0BAA@$0A@@container_internal@lts_20250814@absl@@@container_internal@lts_20250814@absl@@AEAU?$pair@$$CBUVariantKey@internal@protobuf@google@@PEAUNodeBase@234@@std@@PEAU56@@container_internal@lts_20250814@absl@@AEAV1234@@Z
	??$forward@V?$tuple@$$QEAUVariantKey@internal@protobuf@google@@@std@@@std@@YA$$QEAV?$tuple@$$QEAUVariantKey@internal@protobuf@google@@@0@AEAV10@@Z
	??$forward@V?$tuple@$$V@std@@@std@@YA$$QEAV?$tuple@$$V@0@AEAV10@@Z
	??$forward@V?$tuple@AEAPEAUNodeBase@internal@protobuf@google@@@std@@@std@@YA$$QEAV?$tuple@AEAPEAUNodeBase@internal@protobuf@google@@@0@AEAV10@@Z
	??$forward@V?$tuple@AEBV?$basic_string_view@DU?$char_traits@D@std@@@std@@@std@@@std@@YA$$QEAV?$tuple@AEBV?$basic_string_view@DU?$char_traits@D@std@@@std@@@0@AEAV10@@Z
	??$forward@VCommonFields@container_internal@lts_20250814@absl@@@std@@YA$$QEAVCommonFields@container_internal@lts_20250814@absl@@AEAV1234@@Z
	??$forward@_K@std@@YA$$QEA_KAEA_K@Z
	??$forward@_N@std@@YA$$QEA_NAEA_N@Z
	??$forward_as_tuple@$$V@std@@YA?AV?$tuple@$$V@0@XZ
	??$forward_as_tuple@AEAPEAUNodeBase@internal@protobuf@google@@@std@@YA?AV?$tuple@AEAPEAUNodeBase@internal@protobuf@google@@@0@AEAPEAUNodeBase@internal@protobuf@google@@@Z
	??$forward_as_tuple@AEBV?$basic_string_view@DU?$char_traits@D@std@@@std@@@std@@YA?AV?$tuple@AEBV?$basic_string_view@DU?$char_traits@D@std@@@std@@@0@AEBV?$basic_string_view@DU?$char_traits@D@std@@@0@@Z
	??$forward_as_tuple@UVariantKey@internal@protobuf@google@@@std@@YA?AV?$tuple@$$QEAUVariantKey@internal@protobuf@google@@@0@$$QEAUVariantKey@internal@protobuf@google@@@Z
	??$get@$00@?$CompressedTuple@Uchecked_compare@?$key_compare_adapter@U?$less@H@std@@H@container_internal@lts_20250814@absl@@V?$allocator@U?$pair@$$CBHUExtension@ExtensionSet@internal@protobuf@google@@@std@@@std@@PEAV?$btree_node@U?$map_params@HUExtension@ExtensionSet@internal@protobuf@google@@U?$less@H@std@@V?$allocator@U?$pair@$$CBHUExtension@ExtensionSet@internal@protobuf@google@@@std@@@7@$0BAA@$0A@@container_internal@lts_20250814@absl@@@345@@container_internal@lts_20250814@absl@@QEGAAAEAV?$allocator@U?$pair@$$CBHUExtension@ExtensionSet@internal@protobuf@google@@@std@@@std@@XZ
	??$get@$00@?$CompressedTuple@Uchecked_compare@?$key_compare_adapter@U?$less@UVariantKey@internal@protobuf@google@@@std@@UVariantKey@internal@protobuf@google@@@container_internal@lts_20250814@absl@@V?$MapAllocator@U?$pair@$$CBUVariantKey@internal@protobuf@google@@PEAUNodeBase@234@@std@@@internal@protobuf@google@@PEAV?$btree_node@U?$map_params@UVariantKey@internal@protobuf@google@@PEAUNodeBase@234@U?$less@UVariantKey@internal@protobuf@google@@@std@@V?$MapAllocator@U?$pair@$$CBUVariantKey@internal@protobuf@google@@PEAUNodeBase@234@@std@@@234@$0BAA@$0A@@container_internal@lts_20250814@absl@@@345@@container_internal@lts_20250814@absl@@QEGAAAEAV?$MapAllocator@U?$pair@$$CBUVariantKey@internal@protobuf@google@@PEAUNodeBase@234@@std@@@internal@protobuf@google@@XZ
	??$get@$00AEBIAEBV?$basic_string_view@DU?$char_traits@D@std@@@std@@@std@@YAAEBV?$basic_string_view@DU?$char_traits@D@std@@@0@AEBV?$tuple@AEBIAEBV?$basic_string_view@DU?$char_traits@D@std@@@std@@@0@@Z
	??$get@$00AEBQEBVMessageLite@protobuf@google@@AEBH@std@@YAAEBHAEBV?$tuple@AEBQEBVMessageLite@protobuf@google@@AEBH@0@@Z
	??$get@$00AEB_KAEBQEAW4TableEntryPtr@internal@protobuf@google@@AEBQEBX@std@@YAAEBQEAW4TableEntryPtr@internal@protobuf@google@@AEBV?$tuple@AEB_KAEBQEAW4TableEntryPtr@internal@protobuf@google@@AEBQEBX@0@@Z
	??$get@$01@?$CompressedTuple@Uchecked_compare@?$key_compare_adapter@U?$less@H@std@@H@container_internal@lts_20250814@absl@@V?$allocator@U?$pair@$$CBHUExtension@ExtensionSet@internal@protobuf@google@@@std@@@std@@PEAV?$btree_node@U?$map_params@HUExtension@ExtensionSet@internal@protobuf@google@@U?$less@H@std@@V?$allocator@U?$pair@$$CBHUExtension@ExtensionSet@internal@protobuf@google@@@std@@@7@$0BAA@$0A@@container_internal@lts_20250814@absl@@@345@@container_internal@lts_20250814@absl@@QEGAAAEAPEAV?$btree_node@U?$map_params@HUExtension@ExtensionSet@internal@protobuf@google@@U?$less@H@std@@V?$allocator@U?$pair@$$CBHUExtension@ExtensionSet@internal@protobuf@google@@@std@@@7@$0BAA@$0A@@container_internal@lts_20250814@absl@@@123@XZ
	??$get@$01@?$CompressedTuple@Uchecked_compare@?$key_compare_adapter@U?$less@H@std@@H@container_internal@lts_20250814@absl@@V?$allocator@U?$pair@$$CBHUExtension@ExtensionSet@internal@protobuf@google@@@std@@@std@@PEAV?$btree_node@U?$map_params@HUExtension@ExtensionSet@internal@protobuf@google@@U?$less@H@std@@V?$allocator@U?$pair@$$CBHUExtension@ExtensionSet@internal@protobuf@google@@@std@@@7@$0BAA@$0A@@container_internal@lts_20250814@absl@@@345@@container_internal@lts_20250814@absl@@QEGBAAEBQEAV?$btree_node@U?$map_params@HUExtension@ExtensionSet@internal@protobuf@google@@U?$less@H@std@@V?$allocator@U?$pair@$$CBHUExtension@ExtensionSet@internal@protobuf@google@@@std@@@7@$0BAA@$0A@@container_internal@lts_20250814@absl@@@123@XZ
	??$get@$01@?$CompressedTuple@Uchecked_compare@?$key_compare_adapter@U?$less@UVariantKey@internal@protobuf@google@@@std@@UVariantKey@internal@protobuf@google@@@container_internal@lts_20250814@absl@@V?$MapAllocator@U?$pair@$$CBUVariantKey@internal@protobuf@google@@PEAUNodeBase@234@@std@@@internal@protobuf@google@@PEAV?$btree_node@U?$map_params@UVariantKey@internal@protobuf@google@@PEAUNodeBase@234@U?$less@UVariantKey@internal@protobuf@google@@@std@@V?$MapAllocator@U?$pair@$$CBUVariantKey@internal@protobuf@google@@PEAUNodeBase@234@@std@@@234@$0BAA@$0A@@container_internal@lts_20250814@absl@@@345@@container_internal@lts_20250814@absl@@QEGAAAEAPEAV?$btree_node@U?$map_params@UVariantKey@internal@protobuf@google@@PEAUNodeBase@234@U?$less@UVariantKey@internal@protobuf@google@@@std@@V?$MapAllocator@U?$pair@$$CBUVariantKey@internal@protobuf@google@@PEAUNodeBase@234@@std@@@234@$0BAA@$0A@@container_internal@lts_20250814@absl@@@123@XZ
	??$get@$01AEB_KAEBQEAW4TableEntryPtr@internal@protobuf@google@@AEBQEBX@std@@YAAEBQEBXAEBV?$tuple@AEB_KAEBQEAW4TableEntryPtr@internal@protobuf@google@@AEBQEBX@0@@Z
	??$get@$0A@@?$CompressedTuple@Uchecked_compare@?$key_compare_adapter@U?$less@H@std@@H@container_internal@lts_20250814@absl@@V?$allocator@U?$pair@$$CBHUExtension@ExtensionSet@internal@protobuf@google@@@std@@@std@@PEAV?$btree_node@U?$map_params@HUExtension@ExtensionSet@internal@protobuf@google@@U?$less@H@std@@V?$allocator@U?$pair@$$CBHUExtension@ExtensionSet@internal@protobuf@google@@@std@@@7@$0BAA@$0A@@container_internal@lts_20250814@absl@@@345@@container_internal@lts_20250814@absl@@QEGBAAEBUchecked_compare@?$key_compare_adapter@U?$less@H@std@@H@123@XZ
	??$get@$0A@@?$CompressedTuple@Uchecked_compare@?$key_compare_adapter@U?$less@UVariantKey@internal@protobuf@google@@@std@@UVariantKey@internal@protobuf@google@@@container_internal@lts_20250814@absl@@V?$MapAllocator@U?$pair@$$CBUVariantKey@internal@protobuf@google@@PEAUNodeBase@234@@std@@@internal@protobuf@google@@PEAV?$btree_node@U?$map_params@UVariantKey@internal@protobuf@google@@PEAUNodeBase@234@U?$less@UVariantKey@internal@protobuf@google@@@std@@V?$MapAllocator@U?$pair@$$CBUVariantKey@internal@protobuf@google@@PEAUNodeBase@234@@std@@@234@$0BAA@$0A@@container_internal@lts_20250814@absl@@@345@@container_internal@lts_20250814@absl@@QEGBAAEBUchecked_compare@?$key_compare_adapter@U?$less@UVariantKey@internal@protobuf@google@@@std@@UVariantKey@internal@protobuf@google@@@123@XZ
	??$get@$0A@AEBIAEBV?$basic_string_view@DU?$char_traits@D@std@@@std@@@std@@YAAEBIAEBV?$tuple@AEBIAEBV?$basic_string_view@DU?$char_traits@D@std@@@std@@@0@@Z
	??$get@$0A@AEBQEBVMessageLite@protobuf@google@@AEBH@std@@YAAEBQEBVMessageLite@protobuf@google@@AEBV?$tuple@AEBQEBVMessageLite@protobuf@google@@AEBH@0@@Z
	??$get@$0A@AEB_K@std@@YAAEB_KAEBV?$tuple@AEB_K@0@@Z
	??$get@$0A@AEB_KAEBQEAW4TableEntryPtr@internal@protobuf@google@@AEBQEBX@std@@YAAEB_KAEBV?$tuple@AEB_KAEBQEAW4TableEntryPtr@internal@protobuf@google@@AEBQEBX@0@@Z
	??$get_mask@$00@TaggedAllocationPolicyPtr@internal@protobuf@google@@AEBA_KXZ
	??$hash@V?$tuple@AEBIAEBV?$basic_string_view@DU?$char_traits@D@std@@@std@@@std@@@MixingHashState@hash_internal@lts_20250814@absl@@SA_KAEBV?$tuple@AEBIAEBV?$basic_string_view@DU?$char_traits@D@std@@@std@@@std@@@Z
	??$hash@V?$tuple@AEBQEBVMessageLite@protobuf@google@@AEBH@std@@@MixingHashState@hash_internal@lts_20250814@absl@@SA_KAEBV?$tuple@AEBQEBVMessageLite@protobuf@google@@AEBH@std@@@Z
	??$hash@V?$tuple@AEB_K@std@@@MixingHashState@hash_internal@lts_20250814@absl@@SA_KAEBV?$tuple@AEB_K@std@@@Z
	??$hash@V?$tuple@AEB_KAEBQEAW4TableEntryPtr@internal@protobuf@google@@AEBQEBX@std@@@MixingHashState@hash_internal@lts_20250814@absl@@SA_KAEBV?$tuple@AEB_KAEBQEAW4TableEntryPtr@internal@protobuf@google@@AEBQEBX@std@@@Z
	??$hash_bytes@VMixingHashState@hash_internal@lts_20250814@absl@@H$0A@@hash_internal@lts_20250814@absl@@YA?AVMixingHashState@012@V3012@AEBH@Z
	??$hash_bytes@VMixingHashState@hash_internal@lts_20250814@absl@@I$0A@@hash_internal@lts_20250814@absl@@YA?AVMixingHashState@012@V3012@AEBI@Z
	??$hash_bytes@VMixingHashState@hash_internal@lts_20250814@absl@@_K$0A@@hash_internal@lts_20250814@absl@@YA?AVMixingHashState@012@V3012@AEB_K@Z
	??$hash_range_or_bytes@VMixingHashState@hash_internal@lts_20250814@absl@@D@hash_internal@lts_20250814@absl@@YA?AVMixingHashState@012@V3012@PEBD_K@Z
	??$hash_tuple@VMixingHashState@hash_internal@lts_20250814@absl@@V?$tuple@AEBIAEBV?$basic_string_view@DU?$char_traits@D@std@@@std@@@std@@$0A@$00@hash_internal@lts_20250814@absl@@YA?AVMixingHashState@012@V3012@AEBV?$tuple@AEBIAEBV?$basic_string_view@DU?$char_traits@D@std@@@std@@@std@@U?$integer_sequence@_K$0A@$00@5@@Z
	??$hash_tuple@VMixingHashState@hash_internal@lts_20250814@absl@@V?$tuple@AEBQEBVMessageLite@protobuf@google@@AEBH@std@@$0A@$00@hash_internal@lts_20250814@absl@@YA?AVMixingHashState@012@V3012@AEBV?$tuple@AEBQEBVMessageLite@protobuf@google@@AEBH@std@@U?$integer_sequence@_K$0A@$00@5@@Z
	??$hash_tuple@VMixingHashState@hash_internal@lts_20250814@absl@@V?$tuple@AEB_K@std@@$0A@@hash_internal@lts_20250814@absl@@YA?AVMixingHashState@012@V3012@AEBV?$tuple@AEB_K@std@@U?$integer_sequence@_K$0A@@5@@Z
	??$hash_tuple@VMixingHashState@hash_internal@lts_20250814@absl@@V?$tuple@AEB_KAEBQEAW4TableEntryPtr@internal@protobuf@google@@AEBQEBX@std@@$0A@$00$01@hash_internal@lts_20250814@absl@@YA?AVMixingHashState@012@V3012@AEBV?$tuple@AEB_KAEBQEAW4TableEntryPtr@internal@protobuf@google@@AEBQEBX@std@@U?$integer_sequence@_K$0A@$00$01@5@@Z
	??$hash_with_seed@V?$tuple@AEBIAEBV?$basic_string_view@DU?$char_traits@D@std@@@std@@@std@@$0A@@MixingHashState@hash_internal@lts_20250814@absl@@SA_KAEBV?$tuple@AEBIAEBV?$basic_string_view@DU?$char_traits@D@std@@@std@@@std@@_K@Z
	??$hash_with_seed@V?$tuple@AEBQEBVMessageLite@protobuf@google@@AEBH@std@@$0A@@MixingHashState@hash_internal@lts_20250814@absl@@SA_KAEBV?$tuple@AEBQEBVMessageLite@protobuf@google@@AEBH@std@@_K@Z
	??$hash_with_seed@V?$tuple@AEB_K@std@@$0A@@MixingHashState@hash_internal@lts_20250814@absl@@SA_KAEBV?$tuple@AEB_K@std@@_K@Z
	??$hash_with_seed@V?$tuple@AEB_KAEBQEAW4TableEntryPtr@internal@protobuf@google@@AEBQEBX@std@@$0A@@MixingHashState@hash_internal@lts_20250814@absl@@SA_KAEBV?$tuple@AEB_KAEBQEAW4TableEntryPtr@internal@protobuf@google@@AEBQEBX@std@@_K@Z
	??$implicit_cast@H@lts_20250814@absl@@YAHH@Z
	??$implicit_cast@PEBD@lts_20250814@absl@@YAPEBDPEBD@Z
	??$insert_hint_unique@HU?$pair@$$CBHUExtension@ExtensionSet@internal@protobuf@google@@@std@@@?$btree@U?$map_params@HUExtension@ExtensionSet@internal@protobuf@google@@U?$less@H@std@@V?$allocator@U?$pair@$$CBHUExtension@ExtensionSet@internal@protobuf@google@@@std@@@7@$0BAA@$0A@@container_internal@lts_20250814@absl@@@container_internal@lts_20250814@absl@@QEAA?AU?$pair@V?$btree_iterator@V?$btree_node@U?$map_params@HUExtension@ExtensionSet@internal@protobuf@google@@U?$less@H@std@@V?$allocator@U?$pair@$$CBHUExtension@ExtensionSet@internal@protobuf@google@@@std@@@7@$0BAA@$0A@@container_internal@lts_20250814@absl@@@container_internal@lts_20250814@absl@@AEAU?$pair@$$CBHUExtension@ExtensionSet@internal@protobuf@google@@@std@@PEAU56@@container_internal@lts_20250814@absl@@_N@std@@V?$btree_iterator@V?$btree_node@U?$map_params@HUExtension@ExtensionSet@internal@protobuf@google@@U?$less@H@std@@V?$allocator@U?$pair@$$CBHUExtension@ExtensionSet@internal@protobuf@google@@@std@@@7@$0BAA@$0A@@container_internal@lts_20250814@absl@@@container_internal@lts_20250814@absl@@AEAU?$pair@$$CBHUExtension@ExtensionSet@internal@protobuf@google@@@std@@PEAU56@@123@AEBH$$QEAU?$pair@$$CBHUExtension@ExtensionSet@internal@protobuf@google@@@5@@Z
	??$insert_unique@HU?$pair@$$CBHUExtension@ExtensionSet@internal@protobuf@google@@@std@@@?$btree@U?$map_params@HUExtension@ExtensionSet@internal@protobuf@google@@U?$less@H@std@@V?$allocator@U?$pair@$$CBHUExtension@ExtensionSet@internal@protobuf@google@@@std@@@7@$0BAA@$0A@@container_internal@lts_20250814@absl@@@container_internal@lts_20250814@absl@@QEAA?AU?$pair@V?$btree_iterator@V?$btree_node@U?$map_params@HUExtension@ExtensionSet@internal@protobuf@google@@U?$less@H@std@@V?$allocator@U?$pair@$$CBHUExtension@ExtensionSet@internal@protobuf@google@@@std@@@7@$0BAA@$0A@@container_internal@lts_20250814@absl@@@container_internal@lts_20250814@absl@@AEAU?$pair@$$CBHUExtension@ExtensionSet@internal@protobuf@google@@@std@@PEAU56@@container_internal@lts_20250814@absl@@_N@std@@AEBH$$QEAU?$pair@$$CBHUExtension@ExtensionSet@internal@protobuf@google@@@5@@Z
	??$insert_unique@UVariantKey@internal@protobuf@google@@AEBUpiecewise_construct_t@std@@V?$tuple@$$QEAUVariantKey@internal@protobuf@google@@@6@V?$tuple@AEAPEAUNodeBase@internal@protobuf@google@@@6@@?$btree@U?$map_params@UVariantKey@internal@protobuf@google@@PEAUNodeBase@234@U?$less@UVariantKey@internal@protobuf@google@@@std@@V?$MapAllocator@U?$pair@$$CBUVariantKey@internal@protobuf@google@@PEAUNodeBase@234@@std@@@234@$0BAA@$0A@@container_internal@lts_20250814@absl@@@container_internal@lts_20250814@absl@@QEAA?AU?$pair@V?$btree_iterator@V?$btree_node@U?$map_params@UVariantKey@internal@protobuf@google@@PEAUNodeBase@234@U?$less@UVariantKey@internal@protobuf@google@@@std@@V?$MapAllocator@U?$pair@$$CBUVariantKey@internal@protobuf@google@@PEAUNodeBase@234@@std@@@234@$0BAA@$0A@@container_internal@lts_20250814@absl@@@container_internal@lts_20250814@absl@@AEAU?$pair@$$CBUVariantKey@internal@protobuf@google@@PEAUNodeBase@234@@std@@PEAU56@@container_internal@lts_20250814@absl@@_N@std@@AEBUVariantKey@internal@protobuf@google@@AEBUpiecewise_construct_t@5@$$QEAV?$tuple@$$QEAUVariantKey@internal@protobuf@google@@@5@$$QEAV?$tuple@AEAPEAUNodeBase@internal@protobuf@google@@@5@@Z
	??$internal_emplace@AEBUpiecewise_construct_t@std@@V?$tuple@$$QEAUVariantKey@internal@protobuf@google@@@2@V?$tuple@AEAPEAUNodeBase@internal@protobuf@google@@@2@@?$btree@U?$map_params@UVariantKey@internal@protobuf@google@@PEAUNodeBase@234@U?$less@UVariantKey@internal@protobuf@google@@@std@@V?$MapAllocator@U?$pair@$$CBUVariantKey@internal@protobuf@google@@PEAUNodeBase@234@@std@@@234@$0BAA@$0A@@container_internal@lts_20250814@absl@@@container_internal@lts_20250814@absl@@AEAA?AV?$btree_iterator@V?$btree_node@U?$map_params@UVariantKey@internal@protobuf@google@@PEAUNodeBase@234@U?$less@UVariantKey@internal@protobuf@google@@@std@@V?$MapAllocator@U?$pair@$$CBUVariantKey@internal@protobuf@google@@PEAUNodeBase@234@@std@@@234@$0BAA@$0A@@container_internal@lts_20250814@absl@@@container_internal@lts_20250814@absl@@AEAU?$pair@$$CBUVariantKey@internal@protobuf@google@@PEAUNodeBase@234@@std@@PEAU56@@123@V4123@AEBUpiecewise_construct_t@std@@$$QEAV?$tuple@$$QEAUVariantKey@internal@protobuf@google@@@6@$$QEAV?$tuple@AEAPEAUNodeBase@internal@protobuf@google@@@6@@Z
	??$internal_emplace@U?$pair@$$CBHUExtension@ExtensionSet@internal@protobuf@google@@@std@@@?$btree@U?$map_params@HUExtension@ExtensionSet@internal@protobuf@google@@U?$less@H@std@@V?$allocator@U?$pair@$$CBHUExtension@ExtensionSet@internal@protobuf@google@@@std@@@7@$0BAA@$0A@@container_internal@lts_20250814@absl@@@container_internal@lts_20250814@absl@@AEAA?AV?$btree_iterator@V?$btree_node@U?$map_params@HUExtension@ExtensionSet@internal@protobuf@google@@U?$less@H@std@@V?$allocator@U?$pair@$$CBHUExtension@ExtensionSet@internal@protobuf@google@@@std@@@7@$0BAA@$0A@@container_internal@lts_20250814@absl@@@container_internal@lts_20250814@absl@@AEAU?$pair@$$CBHUExtension@ExtensionSet@internal@protobuf@google@@@std@@PEAU56@@123@V4123@$$QEAU?$pair@$$CBHUExtension@ExtensionSet@internal@protobuf@google@@@std@@@Z
	??$internal_find@H@?$btree@U?$map_params@HUExtension@ExtensionSet@internal@protobuf@google@@U?$less@H@std@@V?$allocator@U?$pair@$$CBHUExtension@ExtensionSet@internal@protobuf@google@@@std@@@7@$0BAA@$0A@@container_internal@lts_20250814@absl@@@container_internal@lts_20250814@absl@@AEBA?AV?$btree_iterator@V?$btree_node@U?$map_params@HUExtension@ExtensionSet@internal@protobuf@google@@U?$less@H@std@@V?$allocator@U?$pair@$$CBHUExtension@ExtensionSet@internal@protobuf@google@@@std@@@7@$0BAA@$0A@@container_internal@lts_20250814@absl@@@container_internal@lts_20250814@absl@@AEAU?$pair@$$CBHUExtension@ExtensionSet@internal@protobuf@google@@@std@@PEAU56@@123@AEBH@Z
	??$internal_find@UVariantKey@internal@protobuf@google@@@?$btree@U?$map_params@UVariantKey@internal@protobuf@google@@PEAUNodeBase@234@U?$less@UVariantKey@internal@protobuf@google@@@std@@V?$MapAllocator@U?$pair@$$CBUVariantKey@internal@protobuf@google@@PEAUNodeBase@234@@std@@@234@$0BAA@$0A@@container_internal@lts_20250814@absl@@@container_internal@lts_20250814@absl@@AEBA?AV?$btree_iterator@V?$btree_node@U?$map_params@UVariantKey@internal@protobuf@google@@PEAUNodeBase@234@U?$less@UVariantKey@internal@protobuf@google@@@std@@V?$MapAllocator@U?$pair@$$CBUVariantKey@internal@protobuf@google@@PEAUNodeBase@234@@std@@@234@$0BAA@$0A@@container_internal@lts_20250814@absl@@@container_internal@lts_20250814@absl@@AEAU?$pair@$$CBUVariantKey@internal@protobuf@google@@PEAUNodeBase@234@@std@@PEAU56@@123@AEBUVariantKey@internal@protobuf@google@@@Z
	??$internal_last@V?$btree_iterator@V?$btree_node@U?$map_params@HUExtension@ExtensionSet@internal@protobuf@google@@U?$less@H@std@@V?$allocator@U?$pair@$$CBHUExtension@ExtensionSet@internal@protobuf@google@@@std@@@7@$0BAA@$0A@@container_internal@lts_20250814@absl@@@container_internal@lts_20250814@absl@@AEAU?$pair@$$CBHUExtension@ExtensionSet@internal@protobuf@google@@@std@@PEAU56@@container_internal@lts_20250814@absl@@@?$btree@U?$map_params@HUExtension@ExtensionSet@internal@protobuf@google@@U?$less@H@std@@V?$allocator@U?$pair@$$CBHUExtension@ExtensionSet@internal@protobuf@google@@@std@@@7@$0BAA@$0A@@container_internal@lts_20250814@absl@@@container_internal@lts_20250814@absl@@CA?AV?$btree_iterator@V?$btree_node@U?$map_params@HUExtension@ExtensionSet@internal@protobuf@google@@U?$less@H@std@@V?$allocator@U?$pair@$$CBHUExtension@ExtensionSet@internal@protobuf@google@@@std@@@7@$0BAA@$0A@@container_internal@lts_20250814@absl@@@container_internal@lts_20250814@absl@@AEAU?$pair@$$CBHUExtension@ExtensionSet@internal@protobuf@google@@@std@@PEAU56@@123@V4123@@Z
	??$internal_last@V?$btree_iterator@V?$btree_node@U?$map_params@UVariantKey@internal@protobuf@google@@PEAUNodeBase@234@U?$less@UVariantKey@internal@protobuf@google@@@std@@V?$MapAllocator@U?$pair@$$CBUVariantKey@internal@protobuf@google@@PEAUNodeBase@234@@std@@@234@$0BAA@$0A@@container_internal@lts_20250814@absl@@@container_internal@lts_20250814@absl@@AEAU?$pair@$$CBUVariantKey@internal@protobuf@google@@PEAUNodeBase@234@@std@@PEAU56@@container_internal@lts_20250814@absl@@@?$btree@U?$map_params@UVariantKey@internal@protobuf@google@@PEAUNodeBase@234@U?$less@UVariantKey@internal@protobuf@google@@@std@@V?$MapAllocator@U?$pair@$$CBUVariantKey@internal@protobuf@google@@PEAUNodeBase@234@@std@@@234@$0BAA@$0A@@container_internal@lts_20250814@absl@@@container_internal@lts_20250814@absl@@CA?AV?$btree_iterator@V?$btree_node@U?$map_params@UVariantKey@internal@protobuf@google@@PEAUNodeBase@234@U?$less@UVariantKey@internal@protobuf@google@@@std@@V?$MapAllocator@U?$pair@$$CBUVariantKey@internal@protobuf@google@@PEAUNodeBase@234@@std@@@234@$0BAA@$0A@@container_internal@lts_20250814@absl@@@container_internal@lts_20250814@absl@@AEAU?$pair@$$CBUVariantKey@internal@protobuf@google@@PEAUNodeBase@234@@std@@PEAU56@@123@V4123@@Z
	??$internal_locate@H@?$btree@U?$map_params@HUExtension@ExtensionSet@internal@protobuf@google@@U?$less@H@std@@V?$allocator@U?$pair@$$CBHUExtension@ExtensionSet@internal@protobuf@google@@@std@@@7@$0BAA@$0A@@container_internal@lts_20250814@absl@@@container_internal@lts_20250814@absl@@AEBA?AU?$SearchResult@V?$btree_iterator@V?$btree_node@U?$map_params@HUExtension@ExtensionSet@internal@protobuf@google@@U?$less@H@std@@V?$allocator@U?$pair@$$CBHUExtension@ExtensionSet@internal@protobuf@google@@@std@@@7@$0BAA@$0A@@container_internal@lts_20250814@absl@@@container_internal@lts_20250814@absl@@AEAU?$pair@$$CBHUExtension@ExtensionSet@internal@protobuf@google@@@std@@PEAU56@@container_internal@lts_20250814@absl@@$0A@@123@AEBH@Z
	??$internal_locate@UVariantKey@internal@protobuf@google@@@?$btree@U?$map_params@UVariantKey@internal@protobuf@google@@PEAUNodeBase@234@U?$less@UVariantKey@internal@protobuf@google@@@std@@V?$MapAllocator@U?$pair@$$CBUVariantKey@internal@protobuf@google@@PEAUNodeBase@234@@std@@@234@$0BAA@$0A@@container_internal@lts_20250814@absl@@@container_internal@lts_20250814@absl@@AEBA?AU?$SearchResult@V?$btree_iterator@V?$btree_node@U?$map_params@UVariantKey@internal@protobuf@google@@PEAUNodeBase@234@U?$less@UVariantKey@internal@protobuf@google@@@std@@V?$MapAllocator@U?$pair@$$CBUVariantKey@internal@protobuf@google@@PEAUNodeBase@234@@std@@@234@$0BAA@$0A@@container_internal@lts_20250814@absl@@@container_internal@lts_20250814@absl@@AEAU?$pair@$$CBUVariantKey@internal@protobuf@google@@PEAUNodeBase@234@@std@@PEAU56@@container_internal@lts_20250814@absl@@$0A@@123@AEBUVariantKey@internal@protobuf@google@@@Z
	??$internal_lower_bound@H@?$btree@U?$map_params@HUExtension@ExtensionSet@internal@protobuf@google@@U?$less@H@std@@V?$allocator@U?$pair@$$CBHUExtension@ExtensionSet@internal@protobuf@google@@@std@@@7@$0BAA@$0A@@container_internal@lts_20250814@absl@@@container_internal@lts_20250814@absl@@AEBA?AU?$SearchResult@V?$btree_iterator@V?$btree_node@U?$map_params@HUExtension@ExtensionSet@internal@protobuf@google@@U?$less@H@std@@V?$allocator@U?$pair@$$CBHUExtension@ExtensionSet@internal@protobuf@google@@@std@@@7@$0BAA@$0A@@container_internal@lts_20250814@absl@@@container_internal@lts_20250814@absl@@AEAU?$pair@$$CBHUExtension@ExtensionSet@internal@protobuf@google@@@std@@PEAU56@@container_internal@lts_20250814@absl@@$0A@@123@AEBH@Z
	??$internal_upper_bound@H@?$btree@U?$map_params@HUExtension@ExtensionSet@internal@protobuf@google@@U?$less@H@std@@V?$allocator@U?$pair@$$CBHUExtension@ExtensionSet@internal@protobuf@google@@@std@@@7@$0BAA@$0A@@container_internal@lts_20250814@absl@@@container_internal@lts_20250814@absl@@AEBA?AV?$btree_iterator@V?$btree_node@U?$map_params@HUExtension@ExtensionSet@internal@protobuf@google@@U?$less@H@std@@V?$allocator@U?$pair@$$CBHUExtension@ExtensionSet@internal@protobuf@google@@@std@@@7@$0BAA@$0A@@container_internal@lts_20250814@absl@@@container_internal@lts_20250814@absl@@AEAU?$pair@$$CBHUExtension@ExtensionSet@internal@protobuf@google@@@std@@PEAU56@@123@AEBH@Z
	??$key@U?$pair@$$CBHUExtension@ExtensionSet@internal@protobuf@google@@@std@@@?$map_params@HUExtension@ExtensionSet@internal@protobuf@google@@U?$less@H@std@@V?$allocator@U?$pair@$$CBHUExtension@ExtensionSet@internal@protobuf@google@@@std@@@7@$0BAA@$0A@@container_internal@lts_20250814@absl@@SAAEBHAEBU?$pair@$$CBHUExtension@ExtensionSet@internal@protobuf@google@@@std@@@Z
	??$launder@U?$pair@$$CBHUExtension@ExtensionSet@internal@protobuf@google@@@std@@@std@@YAPEAU?$pair@$$CBHUExtension@ExtensionSet@internal@protobuf@google@@@0@PEAU10@@Z
	??$launder@U?$pair@$$CBUVariantKey@internal@protobuf@google@@PEAUNodeBase@234@@std@@@std@@YAPEAU?$pair@$$CBUVariantKey@internal@protobuf@google@@PEAUNodeBase@234@@0@PEAU10@@Z
	??$launder@UExtensionInfo@internal@protobuf@google@@@std@@YAPEAUExtensionInfo@internal@protobuf@google@@PEAU1234@@Z
	??$launder@VMessageLite@protobuf@google@@@std@@YAPEAVMessageLite@protobuf@google@@PEAV123@@Z
	??$linear_search@HU?$upper_bound_adapter@Uchecked_compare@?$key_compare_adapter@U?$less@H@std@@H@container_internal@lts_20250814@absl@@@container_internal@lts_20250814@absl@@@?$btree_node@U?$map_params@HUExtension@ExtensionSet@internal@protobuf@google@@U?$less@H@std@@V?$allocator@U?$pair@$$CBHUExtension@ExtensionSet@internal@protobuf@google@@@std@@@7@$0BAA@$0A@@container_internal@lts_20250814@absl@@@container_internal@lts_20250814@absl@@QEBA?AU?$SearchResult@_K$0A@@123@AEBHAEBU?$upper_bound_adapter@Uchecked_compare@?$key_compare_adapter@U?$less@H@std@@H@container_internal@lts_20250814@absl@@@123@@Z
	??$linear_search@HUchecked_compare@?$key_compare_adapter@U?$less@H@std@@H@container_internal@lts_20250814@absl@@@?$btree_node@U?$map_params@HUExtension@ExtensionSet@internal@protobuf@google@@U?$less@H@std@@V?$allocator@U?$pair@$$CBHUExtension@ExtensionSet@internal@protobuf@google@@@std@@@7@$0BAA@$0A@@container_internal@lts_20250814@absl@@@container_internal@lts_20250814@absl@@QEBA?AU?$SearchResult@_K$0A@@123@AEBHAEBUchecked_compare@?$key_compare_adapter@U?$less@H@std@@H@123@@Z
	??$linear_search@UVariantKey@internal@protobuf@google@@Uchecked_compare@?$key_compare_adapter@U?$less@UVariantKey@internal@protobuf@google@@@std@@UVariantKey@internal@protobuf@google@@@container_internal@lts_20250814@absl@@@?$btree_node@U?$map_params@UVariantKey@internal@protobuf@google@@PEAUNodeBase@234@U?$less@UVariantKey@internal@protobuf@google@@@std@@V?$MapAllocator@U?$pair@$$CBUVariantKey@internal@protobuf@google@@PEAUNodeBase@234@@std@@@234@$0BAA@$0A@@container_internal@lts_20250814@absl@@@container_internal@lts_20250814@absl@@QEBA?AU?$SearchResult@_K$0A@@123@AEBUVariantKey@internal@protobuf@google@@AEBUchecked_compare@?$key_compare_adapter@U?$less@UVariantKey@internal@protobuf@google@@@std@@UVariantKey@internal@protobuf@google@@@123@@Z
	??$linear_search_impl@HU?$upper_bound_adapter@Uchecked_compare@?$key_compare_adapter@U?$less@H@std@@H@container_internal@lts_20250814@absl@@@container_internal@lts_20250814@absl@@@?$btree_node@U?$map_params@HUExtension@ExtensionSet@internal@protobuf@google@@U?$less@H@std@@V?$allocator@U?$pair@$$CBHUExtension@ExtensionSet@internal@protobuf@google@@@std@@@7@$0BAA@$0A@@container_internal@lts_20250814@absl@@@container_internal@lts_20250814@absl@@QEBA?AU?$SearchResult@_K$0A@@123@AEBH_K_KAEBU?$upper_bound_adapter@Uchecked_compare@?$key_compare_adapter@U?$less@H@std@@H@container_internal@lts_20250814@absl@@@123@U?$integral_constant@_N$0A@@std@@@Z
	??$linear_search_impl@HUchecked_compare@?$key_compare_adapter@U?$less@H@std@@H@container_internal@lts_20250814@absl@@@?$btree_node@U?$map_params@HUExtension@ExtensionSet@internal@protobuf@google@@U?$less@H@std@@V?$allocator@U?$pair@$$CBHUExtension@ExtensionSet@internal@protobuf@google@@@std@@@7@$0BAA@$0A@@container_internal@lts_20250814@absl@@@container_internal@lts_20250814@absl@@QEBA?AU?$SearchResult@_K$0A@@123@AEBH_K_KAEBUchecked_compare@?$key_compare_adapter@U?$less@H@std@@H@123@U?$integral_constant@_N$0A@@std@@@Z
	??$linear_search_impl@UVariantKey@internal@protobuf@google@@Uchecked_compare@?$key_compare_adapter@U?$less@UVariantKey@internal@protobuf@google@@@std@@UVariantKey@internal@protobuf@google@@@container_internal@lts_20250814@absl@@@?$btree_node@U?$map_params@UVariantKey@internal@protobuf@google@@PEAUNodeBase@234@U?$less@UVariantKey@internal@protobuf@google@@@std@@V?$MapAllocator@U?$pair@$$CBUVariantKey@internal@protobuf@google@@PEAUNodeBase@234@@std@@@234@$0BAA@$0A@@container_internal@lts_20250814@absl@@@container_internal@lts_20250814@absl@@QEBA?AU?$SearchResult@_K$0A@@123@AEBUVariantKey@internal@protobuf@google@@_K_KAEBUchecked_compare@?$key_compare_adapter@U?$less@UVariantKey@internal@protobuf@google@@@std@@UVariantKey@internal@protobuf@google@@@123@U?$integral_constant@_N$0A@@std@@@Z
	??$lower_bound@H@?$btree@U?$map_params@HUExtension@ExtensionSet@internal@protobuf@google@@U?$less@H@std@@V?$allocator@U?$pair@$$CBHUExtension@ExtensionSet@internal@protobuf@google@@@std@@@7@$0BAA@$0A@@container_internal@lts_20250814@absl@@@container_internal@lts_20250814@absl@@QEAA?AV?$btree_iterator@V?$btree_node@U?$map_params@HUExtension@ExtensionSet@internal@protobuf@google@@U?$less@H@std@@V?$allocator@U?$pair@$$CBHUExtension@ExtensionSet@internal@protobuf@google@@@std@@@7@$0BAA@$0A@@container_internal@lts_20250814@absl@@@container_internal@lts_20250814@absl@@AEAU?$pair@$$CBHUExtension@ExtensionSet@internal@protobuf@google@@@std@@PEAU56@@123@AEBH@Z
	??$lower_bound@H@?$btree_container@V?$btree@U?$map_params@HUExtension@ExtensionSet@internal@protobuf@google@@U?$less@H@std@@V?$allocator@U?$pair@$$CBHUExtension@ExtensionSet@internal@protobuf@google@@@std@@@7@$0BAA@$0A@@container_internal@lts_20250814@absl@@@container_internal@lts_20250814@absl@@@container_internal@lts_20250814@absl@@QEAA?AV?$btree_iterator@V?$btree_node@U?$map_params@HUExtension@ExtensionSet@internal@protobuf@google@@U?$less@H@std@@V?$allocator@U?$pair@$$CBHUExtension@ExtensionSet@internal@protobuf@google@@@std@@@7@$0BAA@$0A@@container_internal@lts_20250814@absl@@@container_internal@lts_20250814@absl@@AEAU?$pair@$$CBHUExtension@ExtensionSet@internal@protobuf@google@@@std@@PEAU56@@123@AEBH@Z
	??$lower_bound@H@?$btree_node@U?$map_params@HUExtension@ExtensionSet@internal@protobuf@google@@U?$less@H@std@@V?$allocator@U?$pair@$$CBHUExtension@ExtensionSet@internal@protobuf@google@@@std@@@7@$0BAA@$0A@@container_internal@lts_20250814@absl@@@container_internal@lts_20250814@absl@@QEBA?AU?$SearchResult@_K$0A@@123@AEBHAEBUchecked_compare@?$key_compare_adapter@U?$less@H@std@@H@123@@Z
	??$lower_bound@PEBUEnumEntry@internal@protobuf@google@@U1234@P6A_NAEBU1234@0@Z@std@@YAPEBUEnumEntry@internal@protobuf@google@@PEBU1234@QEBU1234@AEBU1234@P6A_N22@Z@Z
	??$lower_bound@UVariantKey@internal@protobuf@google@@@?$btree_node@U?$map_params@UVariantKey@internal@protobuf@google@@PEAUNodeBase@234@U?$less@UVariantKey@internal@protobuf@google@@@std@@V?$MapAllocator@U?$pair@$$CBUVariantKey@internal@protobuf@google@@PEAUNodeBase@234@@std@@@234@$0BAA@$0A@@container_internal@lts_20250814@absl@@@container_internal@lts_20250814@absl@@QEBA?AU?$SearchResult@_K$0A@@123@AEBUVariantKey@internal@protobuf@google@@AEBUchecked_compare@?$key_compare_adapter@U?$less@UVariantKey@internal@protobuf@google@@@std@@UVariantKey@internal@protobuf@google@@@123@@Z
	??$lower_bound_equal@H@?$btree@U?$map_params@HUExtension@ExtensionSet@internal@protobuf@google@@U?$less@H@std@@V?$allocator@U?$pair@$$CBHUExtension@ExtensionSet@internal@protobuf@google@@@std@@@7@$0BAA@$0A@@container_internal@lts_20250814@absl@@@container_internal@lts_20250814@absl@@QEBA?AU?$pair@V?$btree_iterator@V?$btree_node@U?$map_params@HUExtension@ExtensionSet@internal@protobuf@google@@U?$less@H@std@@V?$allocator@U?$pair@$$CBHUExtension@ExtensionSet@internal@protobuf@google@@@std@@@7@$0BAA@$0A@@container_internal@lts_20250814@absl@@@container_internal@lts_20250814@absl@@AEAU?$pair@$$CBHUExtension@ExtensionSet@internal@protobuf@google@@@std@@PEAU56@@container_internal@lts_20250814@absl@@_N@std@@AEBH@Z
	??$make_pair@AEAIAEA_N@std@@YA?AU?$pair@I_N@0@AEAIAEA_N@Z
	??$make_pair@AEAI_N@std@@YA?AU?$pair@I_N@0@AEAI$$QEA_N@Z
	??$make_pair@AEAP6AXPEBX@ZAEAPEBX@std@@YA?AU?$pair@P6AXPEBX@ZPEBX@0@AEAP6AXPEBX@ZAEAPEBX@Z
	??$make_pair@AEAPEAD_N@std@@YA?AU?$pair@PEAD_N@0@AEAPEAD$$QEA_N@Z
	??$make_pair@AEA_KAEA_N@std@@YA?AU?$pair@_K_N@0@AEA_KAEA_N@Z
	??$make_pair@AEA_K_N@std@@YA?AU?$pair@_K_N@0@AEA_K$$QEA_N@Z
	??$make_pair@AEBI_N@std@@YA?AU?$pair@I_N@0@AEBI$$QEA_N@Z
	??$make_pair@HAEAH@std@@YA?AU?$pair@HH@0@$$QEAHAEAH@Z
	??$make_pair@H_N@std@@YA?AU?$pair@H_N@0@$$QEAH$$QEA_N@Z
	??$make_pair@_NAEAPEBE@std@@YA?AU?$pair@_NPEBE@0@$$QEA_NAEAPEBE@Z
	??$make_pair@_NPEBE@std@@YA?AU?$pair@_NPEBE@0@$$QEA_N$$QEAPEBE@Z
	??$max@E@std@@YAAEBEAEBE0@Z
	??$max@H@std@@YAAEBHAEBH0@Z
	??$max@PEAD@std@@YAAEBQEADAEBQEAD0@Z
	??$max@PEA_W@std@@YAAEBQEA_WAEBQEA_W0@Z
	??$max@PEBD@std@@YAAEBQEBDAEBQEBD0@Z
	??$max@_K@std@@YAAEB_KAEB_K0@Z
	??$memswap@$0BA@@internal@protobuf@google@@YAXPEAD0@Z
	??$merge@V?$_Vector_iterator@V?$_Vector_val@U?$_Simple_types@H@std@@@std@@@std@@V12@PEAH@std@@YAPEAHV?$_Vector_iterator@V?$_Vector_val@U?$_Simple_types@H@std@@@std@@@0@000PEAH@Z
	??$merge@V?$_Vector_iterator@V?$_Vector_val@U?$_Simple_types@H@std@@@std@@@std@@V12@PEAHU?$less@X@2@@std@@YAPEAHV?$_Vector_iterator@V?$_Vector_val@U?$_Simple_types@H@std@@@std@@@0@000PEAHU?$less@X@0@@Z
	??$min@E@std@@YAAEBEAEBE0@Z
	??$min@G@std@@YAAEBGAEBG0@Z
	??$min@H@std@@YAAEBHAEBH0@Z
	??$min@I@std@@YAAEBIAEBI0@Z
	??$min@PEBD@std@@YAAEBQEBDAEBQEBD0@Z
	??$min@_J@std@@YAAEB_JAEB_J0@Z
	??$min@_K@std@@YAAEB_KAEB_K0@Z
	??$move@AEAD@std@@YA$$QEADAEAD@Z
	??$move@AEAG@std@@YA$$QEAGAEAG@Z
	??$move@AEAH@std@@YA$$QEAHAEAH@Z
	??$move@AEAI@std@@YA$$QEAIAEAI@Z
	??$move@AEAM@std@@YA$$QEAMAEAM@Z
	??$move@AEAN@std@@YA$$QEANAEAN@Z
	??$move@AEAP6AXPEBX@Z@std@@YA$$QEAP6AXPEBX@ZAEAP6AX0@Z@Z
	??$move@AEAPEAD@std@@YA$$QEAPEADAEAPEAD@Z
	??$move@AEAPEAH@std@@YA$$QEAPEAHAEAPEAH@Z
	??$move@AEAPEAI@std@@YA$$QEAPEAIAEAPEAI@Z
	??$move@AEAPEAM@std@@YA$$QEAPEAMAEAPEAM@Z
	??$move@AEAPEAN@std@@YA$$QEAPEANAEAPEAN@Z
	??$move@AEAPEAPEAUCachedBlock@SerialArena@internal@protobuf@google@@@std@@YA$$QEAPEAPEAUCachedBlock@SerialArena@internal@protobuf@google@@AEAPEAPEAU12345@@Z
	??$move@AEAPEAPEAX@std@@YA$$QEAPEAPEAXAEAPEAPEAX@Z
	??$move@AEAPEAU?$atomic@PEAVSerialArena@internal@protobuf@google@@@std@@@std@@YA$$QEAPEAU?$atomic@PEAVSerialArena@internal@protobuf@google@@@0@AEAPEAU10@@Z
	??$move@AEAPEAU?$pair@P6AXPEBX@ZPEBX@std@@@std@@YA$$QEAPEAU?$pair@P6AXPEBX@ZPEBX@0@AEAPEAU10@@Z
	??$move@AEAPEAUKeyValue@ExtensionSet@internal@protobuf@google@@@std@@YA$$QEAPEAUKeyValue@ExtensionSet@internal@protobuf@google@@AEAPEAU12345@@Z
	??$move@AEAPEAVArena@protobuf@google@@@std@@YA$$QEAPEAVArena@protobuf@google@@AEAPEAV123@@Z
	??$move@AEAPEAW4TableEntryPtr@internal@protobuf@google@@@std@@YA$$QEAPEAW4TableEntryPtr@internal@protobuf@google@@AEAPEAW41234@@Z
	??$move@AEAPEAX@std@@YA$$QEAPEAXAEAPEAX@Z
	??$move@AEAPEA_J@std@@YA$$QEAPEA_JAEAPEA_J@Z
	??$move@AEAPEA_K@std@@YA$$QEAPEA_KAEAPEA_K@Z
	??$move@AEAPEA_N@std@@YA$$QEAPEA_NAEAPEA_N@Z
	??$move@AEAPEBW4ctrl_t@container_internal@lts_20250814@absl@@@std@@YA$$QEAPEBW4ctrl_t@container_internal@lts_20250814@absl@@AEAPEBW41234@@Z
	??$move@AEAPEBX@std@@YA$$QEAPEBXAEAPEBX@Z
	??$move@AEATAllocatedData@ExtensionSet@internal@protobuf@google@@@std@@YA$$QEATAllocatedData@ExtensionSet@internal@protobuf@google@@AEAT12345@@Z
	??$move@AEAU?$less@H@std@@@std@@YA$$QEAU?$less@H@0@AEAU10@@Z
	??$move@AEAU?$less@UVariantKey@internal@protobuf@google@@@std@@@std@@YA$$QEAU?$less@UVariantKey@internal@protobuf@google@@@0@AEAU10@@Z
	??$move@AEAU?$pair@$$CBHUExtension@ExtensionSet@internal@protobuf@google@@@std@@@std@@YA$$QEAU?$pair@$$CBHUExtension@ExtensionSet@internal@protobuf@google@@@0@AEAU10@@Z
	??$move@AEAU?$pair@$$CBUVariantKey@internal@protobuf@google@@PEAUNodeBase@234@@std@@@std@@YA$$QEAU?$pair@$$CBUVariantKey@internal@protobuf@google@@PEAUNodeBase@234@@0@AEAU10@@Z
	??$move@AEAU?$pair@HUExtension@ExtensionSet@internal@protobuf@google@@@std@@@std@@YA$$QEAU?$pair@HUExtension@ExtensionSet@internal@protobuf@google@@@0@AEAU10@@Z
	??$move@AEAU?$pair@P6AXPEBX@ZPEBX@std@@@std@@YA$$QEAU?$pair@P6AXPEBX@ZPEBX@0@AEAU10@@Z
	??$move@AEAU?$pair@UVariantKey@internal@protobuf@google@@PEAUNodeBase@234@@std@@@std@@YA$$QEAU?$pair@UVariantKey@internal@protobuf@google@@PEAUNodeBase@234@@0@AEAU10@@Z
	??$move@AEAUAllowEmpty@lts_20250814@absl@@@std@@YA$$QEAUAllowEmpty@lts_20250814@absl@@AEAU123@@Z
	??$move@AEAUExtension@ExtensionSet@internal@protobuf@google@@@std@@YA$$QEAUExtension@ExtensionSet@internal@protobuf@google@@AEAU12345@@Z
	??$move@AEAUPrefetch@ExtensionSet@internal@protobuf@google@@@std@@YA$$QEAUPrefetch@ExtensionSet@internal@protobuf@google@@AEAU12345@@Z
	??$move@AEAUPrefetchNta@ExtensionSet@internal@protobuf@google@@@std@@YA$$QEAUPrefetchNta@ExtensionSet@internal@protobuf@google@@AEAU12345@@Z
	??$move@AEAV?$MapAllocator@PEAX@internal@protobuf@google@@@std@@YA$$QEAV?$MapAllocator@PEAX@internal@protobuf@google@@AEAV1234@@Z
	??$move@AEAV?$RepeatedField@H@protobuf@google@@@std@@YA$$QEAV?$RepeatedField@H@protobuf@google@@AEAV123@@Z
	??$move@AEAV?$RepeatedField@I@protobuf@google@@@std@@YA$$QEAV?$RepeatedField@I@protobuf@google@@AEAV123@@Z
	??$move@AEAV?$RepeatedField@M@protobuf@google@@@std@@YA$$QEAV?$RepeatedField@M@protobuf@google@@AEAV123@@Z
	??$move@AEAV?$RepeatedField@N@protobuf@google@@@std@@YA$$QEAV?$RepeatedField@N@protobuf@google@@AEAV123@@Z
	??$move@AEAV?$RepeatedField@_J@protobuf@google@@@std@@YA$$QEAV?$RepeatedField@_J@protobuf@google@@AEAV123@@Z
	??$move@AEAV?$RepeatedField@_K@protobuf@google@@@std@@YA$$QEAV?$RepeatedField@_K@protobuf@google@@AEAV123@@Z
	??$move@AEAV?$RepeatedField@_N@protobuf@google@@@std@@YA$$QEAV?$RepeatedField@_N@protobuf@google@@AEAV123@@Z
	??$move@AEAV?$allocator@D@std@@@std@@YA$$QEAV?$allocator@D@0@AEAV10@@Z
	??$move@AEAV?$allocator@H@std@@@std@@YA$$QEAV?$allocator@H@0@AEAV10@@Z
	??$move@AEAV?$allocator@I@std@@@std@@YA$$QEAV?$allocator@I@0@AEAV10@@Z
	??$move@AEAV?$allocator@PEAX@std@@@std@@YA$$QEAV?$allocator@PEAX@0@AEAV10@@Z
	??$move@AEAV?$allocator@_W@std@@@std@@YA$$QEAV?$allocator@_W@0@AEAV10@@Z
	??$move@AEAV?$basic_string@DU?$char_traits@D@std@@V?$allocator@D@2@@std@@@std@@YA$$QEAV?$basic_string@DU?$char_traits@D@std@@V?$allocator@D@2@@0@AEAV10@@Z
	??$move@AEAV?$basic_string@_WU?$char_traits@_W@std@@V?$allocator@_W@2@@std@@@std@@YA$$QEAV?$basic_string@_WU?$char_traits@_W@std@@V?$allocator@_W@2@@0@AEAV10@@Z
	??$move@AEAV?$basic_string_view@DU?$char_traits@D@std@@@std@@@std@@YA$$QEAV?$basic_string_view@DU?$char_traits@D@std@@@0@AEAV10@@Z
	??$move@AEAV?$btree_iterator@V?$btree_node@U?$map_params@HUExtension@ExtensionSet@internal@protobuf@google@@U?$less@H@std@@V?$allocator@U?$pair@$$CBHUExtension@ExtensionSet@internal@protobuf@google@@@std@@@7@$0BAA@$0A@@container_internal@lts_20250814@absl@@@container_internal@lts_20250814@absl@@AEAU?$pair@$$CBHUExtension@ExtensionSet@internal@protobuf@google@@@std@@PEAU56@@container_internal@lts_20250814@absl@@@std@@YA$$QEAV?$btree_iterator@V?$btree_node@U?$map_params@HUExtension@ExtensionSet@internal@protobuf@google@@U?$less@H@std@@V?$allocator@U?$pair@$$CBHUExtension@ExtensionSet@internal@protobuf@google@@@std@@@7@$0BAA@$0A@@container_internal@lts_20250814@absl@@@container_internal@lts_20250814@absl@@AEAU?$pair@$$CBHUExtension@ExtensionSet@internal@protobuf@google@@@std@@PEAU56@@container_internal@lts_20250814@absl@@AEAV1234@@Z
	??$move@AEAV?$btree_iterator@V?$btree_node@U?$map_params@UVariantKey@internal@protobuf@google@@PEAUNodeBase@234@U?$less@UVariantKey@internal@protobuf@google@@@std@@V?$MapAllocator@U?$pair@$$CBUVariantKey@internal@protobuf@google@@PEAUNodeBase@234@@std@@@234@$0BAA@$0A@@container_internal@lts_20250814@absl@@@container_internal@lts_20250814@absl@@AEAU?$pair@$$CBUVariantKey@internal@protobuf@google@@PEAUNodeBase@234@@std@@PEAU56@@container_internal@lts_20250814@absl@@@std@@YA$$QEAV?$btree_iterator@V?$btree_node@U?$map_params@UVariantKey@internal@protobuf@google@@PEAUNodeBase@234@U?$less@UVariantKey@internal@protobuf@google@@@std@@V?$MapAllocator@U?$pair@$$CBUVariantKey@internal@protobuf@google@@PEAUNodeBase@234@@std@@@234@$0BAA@$0A@@container_internal@lts_20250814@absl@@@container_internal@lts_20250814@absl@@AEAU?$pair@$$CBUVariantKey@internal@protobuf@google@@PEAUNodeBase@234@@std@@PEAU56@@container_internal@lts_20250814@absl@@AEAV1234@@Z
	??$move@AEAV?$tuple@$$QEAUVariantKey@internal@protobuf@google@@@std@@@std@@YA$$QEAV?$tuple@$$QEAUVariantKey@internal@protobuf@google@@@0@AEAV10@@Z
	??$move@AEAV?$tuple@AEAPEAUNodeBase@internal@protobuf@google@@@std@@@std@@YA$$QEAV?$tuple@AEAPEAUNodeBase@internal@protobuf@google@@@0@AEAV10@@Z
	??$move@AEAV?$tuple@AEBV?$basic_string_view@DU?$char_traits@D@std@@@std@@@std@@@std@@YA$$QEAV?$tuple@AEBV?$basic_string_view@DU?$char_traits@D@std@@@std@@@0@AEAV10@@Z
	??$move@AEAV?$vector@HV?$allocator@H@std@@@std@@@std@@YA$$QEAV?$vector@HV?$allocator@H@std@@@0@AEAV10@@Z
	??$move@AEAVByChar@lts_20250814@absl@@@std@@YA$$QEAVByChar@lts_20250814@absl@@AEAV123@@Z
	??$move@AEAVCord@lts_20250814@absl@@@std@@YA$$QEAVCord@lts_20250814@absl@@AEAV123@@Z
	??$move@AEAVCordBuffer@lts_20250814@absl@@@std@@YA$$QEAVCordBuffer@lts_20250814@absl@@AEAV123@@Z
	??$move@AEAVInlineRep@Cord@lts_20250814@absl@@@std@@YA$$QEAVInlineRep@Cord@lts_20250814@absl@@AEAV1234@@Z
	??$move@AEAVLimitToken@EpsCopyInputStream@internal@protobuf@google@@@std@@YA$$QEAVLimitToken@EpsCopyInputStream@internal@protobuf@google@@AEAV12345@@Z
	??$move@AEAVMixingHashState@hash_internal@lts_20250814@absl@@@std@@YA$$QEAVMixingHashState@hash_internal@lts_20250814@absl@@AEAV1234@@Z
	??$move@AEAVTaggedStringPtr@internal@protobuf@google@@@std@@YA$$QEAVTaggedStringPtr@internal@protobuf@google@@AEAV1234@@Z
	??$move@AEA_J@std@@YA$$QEA_JAEA_J@Z
	??$move@AEA_K@std@@YA$$QEA_KAEA_K@Z
	??$move@AEA_N@std@@YA$$QEA_NAEA_N@Z
	??$mutable_unknown_fields@V?$basic_string@DU?$char_traits@D@std@@V?$allocator@D@2@@std@@@InternalMetadata@internal@protobuf@google@@QEAAPEAV?$basic_string@DU?$char_traits@D@std@@V?$allocator@D@2@@std@@XZ
	??$mutable_unknown_fields_slow@V?$basic_string@DU?$char_traits@D@std@@V?$allocator@D@2@@std@@@InternalMetadata@internal@protobuf@google@@AEAAPEAV?$basic_string@DU?$char_traits@D@std@@V?$allocator@D@2@@std@@XZ
	??$next@PEBH@std@@YAPEBHPEBH_J@Z
	??$next@PEBUEnumEntry@internal@protobuf@google@@@std@@YAPEBUEnumEntry@internal@protobuf@google@@PEBU1234@_J@Z
	??$next@V?$btree_iterator@V?$btree_node@U?$map_params@HUExtension@ExtensionSet@internal@protobuf@google@@U?$less@H@std@@V?$allocator@U?$pair@$$CBHUExtension@ExtensionSet@internal@protobuf@google@@@std@@@7@$0BAA@$0A@@container_internal@lts_20250814@absl@@@container_internal@lts_20250814@absl@@AEAU?$pair@$$CBHUExtension@ExtensionSet@internal@protobuf@google@@@std@@PEAU56@@container_internal@lts_20250814@absl@@@std@@YA?AV?$btree_iterator@V?$btree_node@U?$map_params@HUExtension@ExtensionSet@internal@protobuf@google@@U?$less@H@std@@V?$allocator@U?$pair@$$CBHUExtension@ExtensionSet@internal@protobuf@google@@@std@@@7@$0BAA@$0A@@container_internal@lts_20250814@absl@@@container_internal@lts_20250814@absl@@AEAU?$pair@$$CBHUExtension@ExtensionSet@internal@protobuf@google@@@std@@PEAU56@@container_internal@lts_20250814@absl@@V1234@_J@Z
	??$next@V?$btree_iterator@V?$btree_node@U?$map_params@UVariantKey@internal@protobuf@google@@PEAUNodeBase@234@U?$less@UVariantKey@internal@protobuf@google@@@std@@V?$MapAllocator@U?$pair@$$CBUVariantKey@internal@protobuf@google@@PEAUNodeBase@234@@std@@@234@$0BAA@$0A@@container_internal@lts_20250814@absl@@@container_internal@lts_20250814@absl@@AEAU?$pair@$$CBUVariantKey@internal@protobuf@google@@PEAUNodeBase@234@@std@@PEAU56@@container_internal@lts_20250814@absl@@@std@@YA?AV?$btree_iterator@V?$btree_node@U?$map_params@UVariantKey@internal@protobuf@google@@PEAUNodeBase@234@U?$less@UVariantKey@internal@protobuf@google@@@std@@V?$MapAllocator@U?$pair@$$CBUVariantKey@internal@protobuf@google@@PEAUNodeBase@234@@std@@@234@$0BAA@$0A@@container_internal@lts_20250814@absl@@@container_internal@lts_20250814@absl@@AEAU?$pair@$$CBUVariantKey@internal@protobuf@google@@PEAUNodeBase@234@@std@@PEAU56@@container_internal@lts_20250814@absl@@V1234@_J@Z
	??$popcount@I@lts_20250814@absl@@YAHI@Z
	??$prev@V?$btree_iterator@V?$btree_node@U?$map_params@HUExtension@ExtensionSet@internal@protobuf@google@@U?$less@H@std@@V?$allocator@U?$pair@$$CBHUExtension@ExtensionSet@internal@protobuf@google@@@std@@@7@$0BAA@$0A@@container_internal@lts_20250814@absl@@@container_internal@lts_20250814@absl@@AEAU?$pair@$$CBHUExtension@ExtensionSet@internal@protobuf@google@@@std@@PEAU56@@container_internal@lts_20250814@absl@@@std@@YA?AV?$btree_iterator@V?$btree_node@U?$map_params@HUExtension@ExtensionSet@internal@protobuf@google@@U?$less@H@std@@V?$allocator@U?$pair@$$CBHUExtension@ExtensionSet@internal@protobuf@google@@@std@@@7@$0BAA@$0A@@container_internal@lts_20250814@absl@@@container_internal@lts_20250814@absl@@AEAU?$pair@$$CBHUExtension@ExtensionSet@internal@protobuf@google@@@std@@PEAU56@@container_internal@lts_20250814@absl@@V1234@_J@Z
	??$prev@V?$btree_iterator@V?$btree_node@U?$map_params@UVariantKey@internal@protobuf@google@@PEAUNodeBase@234@U?$less@UVariantKey@internal@protobuf@google@@@std@@V?$MapAllocator@U?$pair@$$CBUVariantKey@internal@protobuf@google@@PEAUNodeBase@234@@std@@@234@$0BAA@$0A@@container_internal@lts_20250814@absl@@@container_internal@lts_20250814@absl@@AEAU?$pair@$$CBUVariantKey@internal@protobuf@google@@PEAUNodeBase@234@@std@@PEAU56@@container_internal@lts_20250814@absl@@@std@@YA?AV?$btree_iterator@V?$btree_node@U?$map_params@UVariantKey@internal@protobuf@google@@PEAUNodeBase@234@U?$less@UVariantKey@internal@protobuf@google@@@std@@V?$MapAllocator@U?$pair@$$CBUVariantKey@internal@protobuf@google@@PEAUNodeBase@234@@std@@@234@$0BAA@$0A@@container_internal@lts_20250814@absl@@@container_internal@lts_20250814@absl@@AEAU?$pair@$$CBUVariantKey@internal@protobuf@google@@PEAUNodeBase@234@@std@@PEAU56@@container_internal@lts_20250814@absl@@V1234@_J@Z
	??$reset@PEAE$0A@@?$unique_ptr@$$BY0A@EU?$default_delete@$$BY0A@E@std@@@std@@QEAAXPEAE@Z
	??$reverse@V?$_Vector_iterator@V?$_Vector_val@U?$_Simple_types@U?$pair@P6AXPEBX@ZPEBX@std@@@std@@@std@@@std@@@std@@YAXV?$_Vector_iterator@V?$_Vector_val@U?$_Simple_types@U?$pair@P6AXPEBX@ZPEBX@std@@@std@@@std@@@0@0@Z
	??$set_mask@$00@TaggedAllocationPolicyPtr@internal@protobuf@google@@AEAAX_N@Z
	??$swap@D$0A@@std@@YAXAEAD0@Z
	??$swap@G$0A@@std@@YAXAEAG0@Z
	??$swap@H$0A@@std@@YAXAEAH0@Z
	??$swap@I$0A@@std@@YAXAEAI0@Z
	??$swap@M$0A@@std@@YAXAEAM0@Z
	??$swap@N$0A@@std@@YAXAEAN0@Z
	??$swap@P6AXPEBX@Z$0A@@std@@YAXAEAP6AXPEBX@Z1@Z
	??$swap@P6AXPEBX@ZPEBX$0A@@std@@YAXAEAU?$pair@P6AXPEBX@ZPEBX@0@0@Z
	??$swap@PEAD$0A@@std@@YAXAEAPEAD0@Z
	??$swap@PEAVArena@protobuf@google@@$0A@@std@@YAXAEAPEAVArena@protobuf@google@@0@Z
	??$swap@PEAW4TableEntryPtr@internal@protobuf@google@@$0A@@std@@YAXAEAPEAW4TableEntryPtr@internal@protobuf@google@@0@Z
	??$swap@PEAX$0A@@std@@YAXAEAPEAX0@Z
	??$swap@PEBW4ctrl_t@container_internal@lts_20250814@absl@@$0A@@std@@YAXAEAPEBW4ctrl_t@container_internal@lts_20250814@absl@@0@Z
	??$swap@PEBX$0A@@std@@YAXAEAPEBX0@Z
	??$swap@TAllocatedData@ExtensionSet@internal@protobuf@google@@$0A@@std@@YAXAEATAllocatedData@ExtensionSet@internal@protobuf@google@@0@Z
	??$swap@UExtension@ExtensionSet@internal@protobuf@google@@$0A@@std@@YAXAEAUExtension@ExtensionSet@internal@protobuf@google@@0@Z
	??$swap@V?$MapAllocator@PEAX@internal@protobuf@google@@$0A@@std@@YAXAEAV?$MapAllocator@PEAX@internal@protobuf@google@@0@Z
	??$swap@VTaggedStringPtr@internal@protobuf@google@@$0A@@std@@YAXAEAVTaggedStringPtr@internal@protobuf@google@@0@Z
	??$swap@_J$0A@@std@@YAXAEA_J0@Z
	??$swap@_K$0A@@std@@YAXAEA_K0@Z
	??$swap@_N$0A@@std@@YAXAEA_N0@Z
	??$swap_ranges@PEADPEAD@std@@YAPEADQEAD0PEAD@Z
	??$tie@$$CBI$$CBV?$basic_string_view@DU?$char_traits@D@std@@@std@@@std@@YA?AV?$tuple@AEBIAEBV?$basic_string_view@DU?$char_traits@D@std@@@std@@@0@AEBIAEBV?$basic_string_view@DU?$char_traits@D@std@@@0@@Z
	??$tie@$$CB_K@std@@YA?AV?$tuple@AEB_K@0@AEB_K@Z
	??$tie@$$CB_KQEAW4TableEntryPtr@internal@protobuf@google@@QEBX@std@@YA?AV?$tuple@AEB_KAEBQEAW4TableEntryPtr@internal@protobuf@google@@AEBQEBX@0@AEB_KAEBQEAW4TableEntryPtr@internal@protobuf@google@@AEBQEBX@Z
	??$tie@PEAUExtension@ExtensionSet@internal@protobuf@google@@_N@std@@YA?AV?$tuple@AEAPEAUExtension@ExtensionSet@internal@protobuf@google@@AEA_N@0@AEAPEAUExtension@ExtensionSet@internal@protobuf@google@@AEA_N@Z
	??$tie@QEBVMessageLite@protobuf@google@@$$CBH@std@@YA?AV?$tuple@AEBQEBVMessageLite@protobuf@google@@AEBH@0@AEBQEBVMessageLite@protobuf@google@@AEBH@Z
	??$transfer@V?$MapAllocator@U?$pair@$$CBUVariantKey@internal@protobuf@google@@PEAUNodeBase@234@@std@@@internal@protobuf@google@@@?$common_policy_traits@U?$map_slot_policy@UVariantKey@internal@protobuf@google@@PEAUNodeBase@234@@container_internal@lts_20250814@absl@@X@container_internal@lts_20250814@absl@@SAXPEAV?$MapAllocator@U?$pair@$$CBUVariantKey@internal@protobuf@google@@PEAUNodeBase@234@@std@@@internal@protobuf@google@@PEAT?$map_slot_type@UVariantKey@internal@protobuf@google@@PEAUNodeBase@234@@123@1@Z
	??$transfer@V?$MapAllocator@U?$pair@$$CBUVariantKey@internal@protobuf@google@@PEAUNodeBase@234@@std@@@internal@protobuf@google@@@?$map_slot_policy@UVariantKey@internal@protobuf@google@@PEAUNodeBase@234@@container_internal@lts_20250814@absl@@SA?A_PPEAV?$MapAllocator@U?$pair@$$CBUVariantKey@internal@protobuf@google@@PEAUNodeBase@234@@std@@@internal@protobuf@google@@PEAT?$map_slot_type@UVariantKey@internal@protobuf@google@@PEAUNodeBase@234@@123@1@Z
	??$transfer@V?$allocator@U?$pair@$$CBHUExtension@ExtensionSet@internal@protobuf@google@@@std@@@std@@@?$common_policy_traits@U?$map_slot_policy@HUExtension@ExtensionSet@internal@protobuf@google@@@container_internal@lts_20250814@absl@@X@container_internal@lts_20250814@absl@@SAXPEAV?$allocator@U?$pair@$$CBHUExtension@ExtensionSet@internal@protobuf@google@@@std@@@std@@PEAT?$map_slot_type@HUExtension@ExtensionSet@internal@protobuf@google@@@123@1@Z
	??$transfer@V?$allocator@U?$pair@$$CBHUExtension@ExtensionSet@internal@protobuf@google@@@std@@@std@@@?$map_slot_policy@HUExtension@ExtensionSet@internal@protobuf@google@@@container_internal@lts_20250814@absl@@SA?A_PPEAV?$allocator@U?$pair@$$CBHUExtension@ExtensionSet@internal@protobuf@google@@@std@@@std@@PEAT?$map_slot_type@HUExtension@ExtensionSet@internal@protobuf@google@@@123@1@Z
	??$transfer@V?$allocator@UExtensionInfo@internal@protobuf@google@@@std@@@?$common_policy_traits@U?$FlatHashSetPolicy@UExtensionInfo@internal@protobuf@google@@@container_internal@lts_20250814@absl@@X@container_internal@lts_20250814@absl@@SAXPEAV?$allocator@UExtensionInfo@internal@protobuf@google@@@std@@PEAUExtensionInfo@internal@protobuf@google@@1@Z
	??$transfer_impl@V?$MapAllocator@U?$pair@$$CBUVariantKey@internal@protobuf@google@@PEAUNodeBase@234@@std@@@internal@protobuf@google@@U?$map_slot_policy@UVariantKey@internal@protobuf@google@@PEAUNodeBase@234@@container_internal@lts_20250814@absl@@@?$common_policy_traits@U?$map_slot_policy@UVariantKey@internal@protobuf@google@@PEAUNodeBase@234@@container_internal@lts_20250814@absl@@X@container_internal@lts_20250814@absl@@CA?AU?$integral_constant@_N$00@std@@PEAV?$MapAllocator@U?$pair@$$CBUVariantKey@internal@protobuf@google@@PEAUNodeBase@234@@std@@@internal@protobuf@google@@PEAT?$map_slot_type@UVariantKey@internal@protobuf@google@@PEAUNodeBase@234@@123@1URank2@0123@@Z
	??$transfer_impl@V?$allocator@U?$pair@$$CBHUExtension@ExtensionSet@internal@protobuf@google@@@std@@@std@@U?$map_slot_policy@HUExtension@ExtensionSet@internal@protobuf@google@@@container_internal@lts_20250814@absl@@@?$common_policy_traits@U?$map_slot_policy@HUExtension@ExtensionSet@internal@protobuf@google@@@container_internal@lts_20250814@absl@@X@container_internal@lts_20250814@absl@@CA?AU?$integral_constant@_N$00@std@@PEAV?$allocator@U?$pair@$$CBHUExtension@ExtensionSet@internal@protobuf@google@@@std@@@5@PEAT?$map_slot_type@HUExtension@ExtensionSet@internal@protobuf@google@@@123@1URank2@0123@@Z
	??$transfer_impl@V?$allocator@UExtensionInfo@internal@protobuf@google@@@std@@X@?$common_policy_traits@U?$FlatHashSetPolicy@UExtensionInfo@internal@protobuf@google@@@container_internal@lts_20250814@absl@@X@container_internal@lts_20250814@absl@@CA?AU?$integral_constant@_N$00@std@@PEAV?$allocator@UExtensionInfo@internal@protobuf@google@@@5@PEAUExtensionInfo@internal@protobuf@google@@1URank1@0123@@Z
	??$try_emplace@UVariantKey@internal@protobuf@google@@$0A@AEAPEAUNodeBase@234@$0A@@?$btree_map_container@V?$btree@U?$map_params@UVariantKey@internal@protobuf@google@@PEAUNodeBase@234@U?$less@UVariantKey@internal@protobuf@google@@@std@@V?$MapAllocator@U?$pair@$$CBUVariantKey@internal@protobuf@google@@PEAUNodeBase@234@@std@@@234@$0BAA@$0A@@container_internal@lts_20250814@absl@@@container_internal@lts_20250814@absl@@@container_internal@lts_20250814@absl@@QEAA?A_T$$QEAUVariantKey@internal@protobuf@google@@AEAPEAUNodeBase@567@@Z
	??$try_emplace_impl@UVariantKey@internal@protobuf@google@@AEAPEAUNodeBase@234@@?$btree_map_container@V?$btree@U?$map_params@UVariantKey@internal@protobuf@google@@PEAUNodeBase@234@U?$less@UVariantKey@internal@protobuf@google@@@std@@V?$MapAllocator@U?$pair@$$CBUVariantKey@internal@protobuf@google@@PEAUNodeBase@234@@std@@@234@$0BAA@$0A@@container_internal@lts_20250814@absl@@@container_internal@lts_20250814@absl@@@container_internal@lts_20250814@absl@@AEAA?AU?$pair@V?$btree_iterator@V?$btree_node@U?$map_params@UVariantKey@internal@protobuf@google@@PEAUNodeBase@234@U?$less@UVariantKey@internal@protobuf@google@@@std@@V?$MapAllocator@U?$pair@$$CBUVariantKey@internal@protobuf@google@@PEAUNodeBase@234@@std@@@234@$0BAA@$0A@@container_internal@lts_20250814@absl@@@container_internal@lts_20250814@absl@@AEAU?$pair@$$CBUVariantKey@internal@protobuf@google@@PEAUNodeBase@234@@std@@PEAU56@@container_internal@lts_20250814@absl@@_N@std@@$$QEAUVariantKey@internal@protobuf@google@@AEAPEAUNodeBase@789@@Z
	??$uninitialized_copy_n@PEBHHPEAH@std@@YAPEAHQEBHHPEAH@Z
	??$uninitialized_copy_n@PEBIHPEAI@std@@YAPEAIQEBIHPEAI@Z
	??$uninitialized_copy_n@PEBMHPEAM@std@@YAPEAMQEBMHPEAM@Z
	??$uninitialized_copy_n@PEBNHPEAN@std@@YAPEANQEBNHPEAN@Z
	??$uninitialized_copy_n@PEB_JHPEA_J@std@@YAPEA_JQEB_JHPEA_J@Z
	??$uninitialized_copy_n@PEB_KHPEA_K@std@@YAPEA_KQEB_KHPEA_K@Z
	??$uninitialized_copy_n@PEB_NHPEA_N@std@@YAPEA_NQEB_NHPEA_N@Z
	??$unknown_fields@V?$basic_string@DU?$char_traits@D@std@@V?$allocator@D@2@@std@@@InternalMetadata@internal@protobuf@google@@QEBAAEBV?$basic_string@DU?$char_traits@D@std@@V?$allocator@D@2@@std@@P6AAEBV45@XZ@Z
	??$upper_bound@H@?$btree@U?$map_params@HUExtension@ExtensionSet@internal@protobuf@google@@U?$less@H@std@@V?$allocator@U?$pair@$$CBHUExtension@ExtensionSet@internal@protobuf@google@@@std@@@7@$0BAA@$0A@@container_internal@lts_20250814@absl@@@container_internal@lts_20250814@absl@@QEAA?AV?$btree_iterator@V?$btree_node@U?$map_params@HUExtension@ExtensionSet@internal@protobuf@google@@U?$less@H@std@@V?$allocator@U?$pair@$$CBHUExtension@ExtensionSet@internal@protobuf@google@@@std@@@7@$0BAA@$0A@@container_internal@lts_20250814@absl@@@container_internal@lts_20250814@absl@@AEAU?$pair@$$CBHUExtension@ExtensionSet@internal@protobuf@google@@@std@@PEAU56@@123@AEBH@Z
	??$upper_bound@H@?$btree_node@U?$map_params@HUExtension@ExtensionSet@internal@protobuf@google@@U?$less@H@std@@V?$allocator@U?$pair@$$CBHUExtension@ExtensionSet@internal@protobuf@google@@@std@@@7@$0BAA@$0A@@container_internal@lts_20250814@absl@@@container_internal@lts_20250814@absl@@QEBA_KAEBHAEBUchecked_compare@?$key_compare_adapter@U?$less@H@std@@H@123@@Z
	??$value_init@AEBUpiecewise_construct_t@std@@V?$tuple@$$QEAUVariantKey@internal@protobuf@google@@@2@V?$tuple@AEAPEAUNodeBase@internal@protobuf@google@@@2@@?$btree_node@U?$map_params@UVariantKey@internal@protobuf@google@@PEAUNodeBase@234@U?$less@UVariantKey@internal@protobuf@google@@@std@@V?$MapAllocator@U?$pair@$$CBUVariantKey@internal@protobuf@google@@PEAUNodeBase@234@@std@@@234@$0BAA@$0A@@container_internal@lts_20250814@absl@@@container_internal@lts_20250814@absl@@AEAAXEPEAV?$MapAllocator@U?$pair@$$CBUVariantKey@internal@protobuf@google@@PEAUNodeBase@234@@std@@@internal@protobuf@google@@AEBUpiecewise_construct_t@std@@$$QEAV?$tuple@$$QEAUVariantKey@internal@protobuf@google@@@9@$$QEAV?$tuple@AEAPEAUNodeBase@internal@protobuf@google@@@9@@Z
	??$value_init@PEAT?$map_slot_type@HUExtension@ExtensionSet@internal@protobuf@google@@@container_internal@lts_20250814@absl@@@?$btree_node@U?$map_params@HUExtension@ExtensionSet@internal@protobuf@google@@U?$less@H@std@@V?$allocator@U?$pair@$$CBHUExtension@ExtensionSet@internal@protobuf@google@@@std@@@7@$0BAA@$0A@@container_internal@lts_20250814@absl@@@container_internal@lts_20250814@absl@@AEAAXEPEAV?$allocator@U?$pair@$$CBHUExtension@ExtensionSet@internal@protobuf@google@@@std@@@std@@$$QEAPEAT?$map_slot_type@HUExtension@ExtensionSet@internal@protobuf@google@@@123@@Z
	??$value_init@PEAT?$map_slot_type@UVariantKey@internal@protobuf@google@@PEAUNodeBase@234@@container_internal@lts_20250814@absl@@@?$btree_node@U?$map_params@UVariantKey@internal@protobuf@google@@PEAUNodeBase@234@U?$less@UVariantKey@internal@protobuf@google@@@std@@V?$MapAllocator@U?$pair@$$CBUVariantKey@internal@protobuf@google@@PEAUNodeBase@234@@std@@@234@$0BAA@$0A@@container_internal@lts_20250814@absl@@@container_internal@lts_20250814@absl@@AEAAXEPEAV?$MapAllocator@U?$pair@$$CBUVariantKey@internal@protobuf@google@@PEAUNodeBase@234@@std@@@internal@protobuf@google@@$$QEAPEAT?$map_slot_type@UVariantKey@internal@protobuf@google@@PEAUNodeBase@234@@123@@Z
	??$value_init@U?$pair@$$CBHUExtension@ExtensionSet@internal@protobuf@google@@@std@@@?$btree_node@U?$map_params@HUExtension@ExtensionSet@internal@protobuf@google@@U?$less@H@std@@V?$allocator@U?$pair@$$CBHUExtension@ExtensionSet@internal@protobuf@google@@@std@@@7@$0BAA@$0A@@container_internal@lts_20250814@absl@@@container_internal@lts_20250814@absl@@AEAAXEPEAV?$allocator@U?$pair@$$CBHUExtension@ExtensionSet@internal@protobuf@google@@@std@@@std@@$$QEAU?$pair@$$CBHUExtension@ExtensionSet@internal@protobuf@google@@@5@@Z
	??$value_or@H@?$optional@F@std@@QEGBAF$$QEAH@Z
	??0<lambda_01993fb64a5a4d9f6090d07df1028286>@@QEAA@AEBEAEBQEAVMessageLite@protobuf@google@@AEBQEBUTcParseTableBase@internal@23@0AEBQEAV?$RepeatedField@H@23@@Z
	??0<lambda_060cb8719f3b35d6742444452c63ae6e>@@QEAA@AEBQEAV?$RepeatedField@H@protobuf@google@@AEBQEAVParseContext@internal@23@AEBQEBD@Z
	??0<lambda_06c95a664485457b993a8835894c6854>@@QEAA@AEBGAEBQEBUTcParseTableBase@internal@protobuf@google@@AEAV?$RepeatedPtrField@V?$basic_string@DU?$char_traits@D@std@@V?$allocator@D@2@@std@@@34@@Z
	??0<lambda_06f5eff9c18b93893207a299b1720ee0>@@QEAA@AEAPEAV?$allocator@U?$pair@$$CBHUExtension@ExtensionSet@internal@protobuf@google@@@std@@@std@@@Z
	??0<lambda_074d994a40445956fdc1967f546ba30d>@@QEAA@AEAPEAVMessageLite@protobuf@google@@AEAPEAVParseContext@internal@23@AEAPEBUTcParseTableBase@523@@Z
	??0<lambda_0a17454eb26ad3ca4881a89495b21358>@@QEAA@AEBQEAV?$RepeatedField@H@protobuf@google@@AEBQEAVParseContext@internal@23@AEBQEBD@Z
	??0<lambda_1a7a8d0f9f623fec435237e9f2287fd3>@@QEAA@AEAPEBD@Z
	??0<lambda_1bdc89708c1d7039fca01a17d2b8a00a>@@QEAA@AEBEAEBQEAVMessageLite@protobuf@google@@AEBQEBUTcParseTableBase@internal@23@AEBGAEBQEAV?$RepeatedField@H@23@@Z
	??0<lambda_20fc97f296369ec854e7f9a00e55273d>@@QEAA@AEBQEAV?$RepeatedField@_J@protobuf@google@@@Z
	??0<lambda_22e55180b1fc8ed14f7e994bdcc24ec8>@@QEAA@AEAPEAVMessageLite@protobuf@google@@AEAPEAVParseContext@internal@23@AEAPEBUTcParseTableBase@523@@Z
	??0<lambda_23ce00b4da9f9bb0963c399e3b1317ba>@@QEAA@AEAPEAUNodeBase@internal@protobuf@google@@AEAPEAVParseContext@234@AEAPEBTFieldAux@TcParseTableBase@234@AEAPEBU7234@AEBUFieldEntry@7234@AEAVUntypedMapBase@234@@Z
	??0<lambda_2445345cb3b134d170e8ee193f099e7d>@@QEAA@AEBQEAX@Z
	??0<lambda_2740329fa83ce8790777685724095b0b>@@QEAA@AEAPEAVMessageLite@protobuf@google@@AEAPEAVParseContext@internal@23@AEAPEBUTcParseTableBase@523@@Z
	??0<lambda_287d06059c605e7614f42513af7e616d>@@QEAA@AEAPEAVMessageLite@protobuf@google@@AEAPEAVParseContext@internal@23@AEAPEBUTcParseTableBase@523@@Z
	??0<lambda_29269e4da0651b3b63322f205033dcb5>@@QEAA@AEBQEAV?$RepeatedField@I@protobuf@google@@@Z
	??0<lambda_2a2a8cefb56710607aa8bf74eb61d0f6>@@QEAA@AEBQEAV?$basic_string@DU?$char_traits@D@std@@V?$allocator@D@2@@std@@@Z
	??0<lambda_2d7af22e5ebd5f20033ec6ad83f4ac1f>@@QEAA@AEBQEAV?$RepeatedField@_K@protobuf@google@@AEB_N@Z
	??0<lambda_2df614c5a906008f57ca5faeb916fe91>@@QEAA@AEAPEBD@Z
	??0<lambda_31f6c73cdcd3c9137dbbc90a5d81ad8e>@@QEAA@AEAPEAVMessageLite@protobuf@google@@AEAPEAVParseContext@internal@23@AEAPEBUTcParseTableBase@523@@Z
	??0<lambda_3267ffa27fc3fe5db7c84558ad95b635>@@QEAA@AEBQEAV?$RepeatedField@_N@protobuf@google@@@Z
	??0<lambda_3282e944be5788bbd6f6ff617f4d6d63>@@QEAA@AEBEAEBQEAVMessageLite@protobuf@google@@AEBQEBUTcParseTableBase@internal@23@AEBGAEBQEAV?$RepeatedField@H@23@@Z
	??0<lambda_344b48dec27cdc14061be2d27443ee2d>@@QEAA@AEBEAEBQEAVMessageLite@protobuf@google@@AEBQEBUTcParseTableBase@internal@23@0AEBQEAV?$RepeatedField@H@23@@Z
	??0<lambda_38cd8139afa0a0568c018eb5c3ed0f58>@@QEAA@AEAPEBD@Z
	??0<lambda_3a41b6b9138eaf6088bfa6fcb8a495b5>@@QEAA@AEBQEAX@Z
	??0<lambda_41018c8019f5a2ebeea94ed29ddbdbc1>@@QEAA@AEBGAEBQEBUTcParseTableBase@internal@protobuf@google@@AEAV?$RepeatedPtrField@V?$basic_string@DU?$char_traits@D@std@@V?$allocator@D@2@@std@@@34@@Z
	??0<lambda_474849a26aea816c3661aa32430ea50e>@@QEAA@AEAPEAVMessageLite@protobuf@google@@AEAPEAVParseContext@internal@23@AEAPEBUTcParseTableBase@523@@Z
	??0<lambda_48d15604fd7c7476a2053c4c9625823c>@@QEAA@AEAV?$btree_iterator@V?$btree_node@U?$map_params@HUExtension@ExtensionSet@internal@protobuf@google@@U?$less@H@std@@V?$allocator@U?$pair@$$CBHUExtension@ExtensionSet@internal@protobuf@google@@@std@@@7@$0BAA@$0A@@container_internal@lts_20250814@absl@@@container_internal@lts_20250814@absl@@AEAU?$pair@$$CBHUExtension@ExtensionSet@internal@protobuf@google@@@std@@PEAU56@@container_internal@lts_20250814@absl@@PEAV?$btree@U?$map_params@HUExtension@ExtensionSet@internal@protobuf@google@@U?$less@H@std@@V?$allocator@U?$pair@$$CBHUExtension@ExtensionSet@internal@protobuf@google@@@std@@@7@$0BAA@$0A@@container_internal@lts_20250814@absl@@@234@AEBV<lambda_06f5eff9c18b93893207a299b1720ee0>@@@Z
	??0<lambda_4a870f6fe8f1a3b39ec2f37a4e0055dc>@@QEAA@AEBQEAX@Z
	??0<lambda_526af3fc65d781784903ae71ec85a5e2>@@QEAA@AEAPEAVMessageLite@protobuf@google@@AEAPEAVParseContext@internal@23@AEAPEBUTcParseTableBase@523@@Z
	??0<lambda_56706089f2db943f5c231477db751bbb>@@QEAA@AEBGAEBTFieldAux@TcParseTableBase@internal@protobuf@google@@AEBQEAVMessageLite@45@AEBQEBU2345@AEBUTcFieldData@345@AEBQEAV?$RepeatedField@I@45@@Z
	??0<lambda_5913a0a216c6cc9bf25d83d8274b30de>@@QEAA@AEBQEAV?$RepeatedField@_K@protobuf@google@@@Z
	??0<lambda_5922bcd0e88bcc27f930de15ea0119c1>@@QEAA@AEAPEAVMessageLite@protobuf@google@@AEAPEAVParseContext@internal@23@AEAPEBUTcParseTableBase@523@@Z
	??0<lambda_59d48a0ab7555104dd857cd94e6803cf>@@QEAA@AEAPEAUNodeBase@internal@protobuf@google@@AEAPEAVParseContext@234@AEAPEBTFieldAux@TcParseTableBase@234@AEAPEBU7234@AEBUFieldEntry@7234@AEAVUntypedMapBase@234@@Z
	??0<lambda_5fbc5da7c33117be5a63356d62871034>@@QEAA@AEBEAEBQEBUTcParseTableBase@internal@protobuf@google@@AEAV?$RepeatedPtrField@V?$basic_string@DU?$char_traits@D@std@@V?$allocator@D@2@@std@@@34@@Z
	??0<lambda_6166e172758d6a2e3d9d27e4c1c6924a>@@QEAA@AEAPEAVMessageLite@protobuf@google@@AEAPEAVParseContext@internal@23@AEAPEBUTcParseTableBase@523@@Z
	??0<lambda_625dd94df6587b17f3dcfdea54760185>@@QEAA@AEAPEAVMessageLite@protobuf@google@@AEAPEAVParseContext@internal@23@AEAPEBUTcParseTableBase@523@@Z
	??0<lambda_687625cb49a646587c70a61ffe493256>@@QEAA@AEBQEAXAEBQ6A_NPEBXH@ZAEBQEBXAEBQEAVInternalMetadata@internal@protobuf@google@@AEBH@Z
	??0<lambda_688f9f240652acb48bc908f1fd9e65fe>@@QEAA@AEBQEAV?$RepeatedField@_K@protobuf@google@@AEB_N@Z
	??0<lambda_69962c3e6e3604826fbe0c504e3195e7>@@QEAA@AEBQEAX@Z
	??0<lambda_6a59d6d5f1126b31a0e6c65b67766ef4>@@QEAA@AEAPEBD@Z
	??0<lambda_76ea2e29230eb483d285aaf85a7cfc45>@@QEAA@AEBGAEBTFieldAux@TcParseTableBase@internal@protobuf@google@@AEBQEAVMessageLite@45@AEBQEBU2345@AEBUTcFieldData@345@AEBQEAV?$RepeatedField@I@45@@Z
	??0<lambda_773f5919cf44aae79d1e958d8242bcd8>@@QEAA@AEBGAEBTFieldAux@TcParseTableBase@internal@protobuf@google@@AEBQEAVMessageLite@45@AEBQEBU2345@AEBUTcFieldData@345@AEBQEAV?$RepeatedField@_K@45@@Z
	??0<lambda_7d488e22d6367ff488d3c298eec1f328>@@QEAA@AEBQEAV?$RepeatedField@H@protobuf@google@@AEBQEAVParseContext@internal@23@AEBQEBD@Z
	??0<lambda_7d9dc65345c77b276878faa25fb26bad>@@QEAA@AEAV?$btree_iterator@V?$btree_node@U?$map_params@UVariantKey@internal@protobuf@google@@PEAUNodeBase@234@U?$less@UVariantKey@internal@protobuf@google@@@std@@V?$MapAllocator@U?$pair@$$CBUVariantKey@internal@protobuf@google@@PEAUNodeBase@234@@std@@@234@$0BAA@$0A@@container_internal@lts_20250814@absl@@@container_internal@lts_20250814@absl@@AEAU?$pair@$$CBUVariantKey@internal@protobuf@google@@PEAUNodeBase@234@@std@@PEAU56@@container_internal@lts_20250814@absl@@PEAV?$btree@U?$map_params@UVariantKey@internal@protobuf@google@@PEAUNodeBase@234@U?$less@UVariantKey@internal@protobuf@google@@@std@@V?$MapAllocator@U?$pair@$$CBUVariantKey@internal@protobuf@google@@PEAUNodeBase@234@@std@@@234@$0BAA@$0A@@container_internal@lts_20250814@absl@@@234@AEBV<lambda_e4d76ad9b0bb58ace05dc693eeeafa50>@@@Z
	??0<lambda_80af848bc41b9b9be0d0b682058ca299>@@QEAA@PEAVExtensionSet@internal@protobuf@google@@AEAPEBVMessageLite@34@AEAPEAVInternalMetadata@234@AEAPEAVParseContext@234@@Z
	??0<lambda_837409354c4dcdd5f3dec002359b6434>@@QEAA@AEAPEAVMessageLite@protobuf@google@@AEAPEAVParseContext@internal@23@AEAPEBUTcParseTableBase@523@@Z
	??0<lambda_83d6f7eed8aab7433d83390f548131a7>@@QEAA@AEBEAEBQEBUTcParseTableBase@internal@protobuf@google@@AEAV?$RepeatedPtrField@V?$basic_string@DU?$char_traits@D@std@@V?$allocator@D@2@@std@@@34@@Z
	??0<lambda_84e0908dacb8f57e004de1df6ba31a4f>@@QEAA@AEAPEAVMessageLite@protobuf@google@@AEAPEAVParseContext@internal@23@AEAPEBUTcParseTableBase@523@@Z
	??0<lambda_8a240596e439d99ecf8b41453e0df78b>@@QEAA@AEAPEBD@Z
	??0<lambda_8aa7441f1b964d8f9de6b78125db6095>@@QEAA@AEAPEAVMessageLite@protobuf@google@@AEAPEAVParseContext@internal@23@AEAPEBUTcParseTableBase@523@@Z
	??0<lambda_8ad3181083032036fc072359930a5b22>@@QEAA@AEAPEAVMessageLite@protobuf@google@@AEAPEAVParseContext@internal@23@AEAPEBUTcParseTableBase@523@@Z
	??0<lambda_8db14505531f29b22d9248dfae1e557c>@@QEAA@AEBQEAV?$RepeatedField@I@protobuf@google@@AEB_N@Z
	??0<lambda_8decd5738496cd5079e802e87e812e26>@@QEAA@AEAPEAVMessageLite@protobuf@google@@AEAPEAVParseContext@internal@23@AEAPEBUTcParseTableBase@523@@Z
	??0<lambda_8f4a6724318af91ad63d8b06a96c23dd>@@QEAA@AEBGAEBTFieldAux@TcParseTableBase@internal@protobuf@google@@AEBQEAVMessageLite@45@AEBQEBU2345@AEBUTcFieldData@345@AEBQEAV?$RepeatedField@I@45@@Z
	??0<lambda_90207a78d3af128c0226f3e131931265>@@QEAA@AEBQEAV?$RepeatedField@H@protobuf@google@@@Z
	??0<lambda_9276b8ca891fa7cab99d2a4fd19fd7c2>@@QEAA@AEBQEAV?$RepeatedField@I@protobuf@google@@AEB_N@Z
	??0<lambda_935f40ada4e88e94785d6c2aae32648d>@@QEAA@AEAPEBD@Z
	??0<lambda_93ca9b5d621da4d66c690c608fcf35ac>@@QEAA@AEAPEAVMessageLite@protobuf@google@@AEAPEAVParseContext@internal@23@AEAPEBUTcParseTableBase@523@@Z
	??0<lambda_93fd0b36dc7b3aa3f1fb959c473a9824>@@QEAA@AEBQEAV?$RepeatedField@H@protobuf@google@@AEBQEAVParseContext@internal@23@AEBQEBD@Z
	??0<lambda_985790ef0324caf54e08b468ee57007b>@@QEAA@AEBQEAV?$RepeatedField@_K@protobuf@google@@AEB_N@Z
	??0<lambda_99208e051c8b9692164df376a8eac8d0>@@QEAA@AEBQEAV?$RepeatedField@I@protobuf@google@@AEB_N@Z
	??0<lambda_9e5d4b40905455c96428cde40bb14276>@@QEAA@AEBGAEBQEBUTcParseTableBase@internal@protobuf@google@@AEAV?$RepeatedPtrField@V?$basic_string@DU?$char_traits@D@std@@V?$allocator@D@2@@std@@@34@@Z
	??0<lambda_a2da1d8b6da681dfa74ee1215fb5eb0e>@@QEAA@AEBGAEBTFieldAux@TcParseTableBase@internal@protobuf@google@@AEBQEAVMessageLite@45@AEBQEBU2345@AEBUTcFieldData@345@AEBQEAV?$RepeatedField@_K@45@@Z
	??0<lambda_a320c5a885494d4d32b2e995a1d20a8b>@@QEAA@AEAPEAVMessageLite@protobuf@google@@AEAPEAVParseContext@internal@23@AEAPEBUTcParseTableBase@523@@Z
	??0<lambda_a9368c56e09f74629d59748b33242c07>@@QEAA@AEBQEAV?$RepeatedField@I@protobuf@google@@AEB_N@Z
	??0<lambda_b443fc7b92e846182fea19ab79ad3459>@@QEAA@AEAPEAVMessageLite@protobuf@google@@AEAPEAVParseContext@internal@23@AEAPEBUTcParseTableBase@523@@Z
	??0<lambda_b50ad884f05deeb71dd809500364bc59>@@QEAA@AEAPEAVMessageLite@protobuf@google@@AEAPEAVParseContext@internal@23@AEAPEBUTcParseTableBase@523@@Z
	??0<lambda_b8353ada37acf7b400661bb3b16393ca>@@QEAA@AEBQEAX@Z
	??0<lambda_ba2455bc7e35bc75f3f20742f39a63ca>@@QEAA@AEBGAEBTFieldAux@TcParseTableBase@internal@protobuf@google@@AEBQEAVMessageLite@45@AEBQEBU2345@AEBUTcFieldData@345@AEBQEAV?$RepeatedField@I@45@@Z
	??0<lambda_bd3d48c2a33e8e6ea8068f3437dd9b3a>@@QEAA@AEBGAEBTFieldAux@TcParseTableBase@internal@protobuf@google@@AEBQEAVMessageLite@45@AEBQEBU2345@AEBUTcFieldData@345@AEBQEAV?$RepeatedField@I@45@@Z
	??0<lambda_c531273016d54617ecd2db18e300b927>@@QEAA@AEBTFieldAux@TcParseTableBase@internal@protobuf@google@@AEBQEAVMessageLite@45@AEBQEBU2345@AEBEAEBQEAV?$RepeatedField@H@45@@Z
	??0<lambda_ca99369cb6d070cf17f10af7f7038d90>@@QEAA@AEAPEBD@Z
	??0<lambda_cd4ed5a214b293587376bc908a979119>@@QEAA@AEBTFieldAux@TcParseTableBase@internal@protobuf@google@@AEBQEAVMessageLite@45@AEBQEBU2345@AEBGAEBQEAV?$RepeatedField@H@45@@Z
	??0<lambda_ce452539e7cc73dd758c11a649c90074>@@QEAA@AEBTFieldAux@TcParseTableBase@internal@protobuf@google@@AEBQEAVMessageLite@45@AEBQEBU2345@AEBEAEBQEAV?$RepeatedField@H@45@@Z
	??0<lambda_ce58277daddb32c40d4644115884d946>@@QEAA@AEAPEAVMessageLite@protobuf@google@@AEAPEAVParseContext@internal@23@AEAPEBUTcParseTableBase@523@@Z
	??0<lambda_ce90238e12da7bd26285b9b9306af970>@@QEAA@AEBQEAV?$RepeatedField@_J@protobuf@google@@@Z
	??0<lambda_d5baf509037050391fd8ab3077cb1df8>@@QEAA@AEBGAEBTFieldAux@TcParseTableBase@internal@protobuf@google@@AEBQEAVMessageLite@45@AEBQEBU2345@AEBUTcFieldData@345@AEBQEAV?$RepeatedField@_N@45@@Z
	??0<lambda_d7576cfe2c1bb4a563100ed75389c9ec>@@QEAA@AEAPEAVMessageLite@protobuf@google@@AEAPEAVParseContext@internal@23@AEAPEBUTcParseTableBase@523@@Z
	??0<lambda_d8a5a68100ae2a0b7936eabfebd4ef1d>@@QEAA@AEBQEAX@Z
	??0<lambda_da0199c1170b6120d2ab17c710d42821>@@QEAA@AEBQEAV?$RepeatedField@H@protobuf@google@@@Z
	??0<lambda_daf7099df2421951ce5dfc220ecbcb3c>@@QEAA@AEAPEAVMessageLite@protobuf@google@@AEAPEAVParseContext@internal@23@AEAPEBUTcParseTableBase@523@@Z
	??0<lambda_dc35cefdd5e42ae9b01c9ffc0289c69c>@@QEAA@AEBQEAV?$RepeatedField@I@protobuf@google@@AEB_N@Z
	??0<lambda_def1b18c26bd87bec0336d38df467b4e>@@QEAA@AEBQEAV?$RepeatedField@_N@protobuf@google@@AEB_N@Z
	??0<lambda_e017e854584bdbc3d57ed983312fd580>@@QEAA@AEBQEAV?$RepeatedField@I@protobuf@google@@@Z
	??0<lambda_e0f4f46bb8ff87c3d1d47eaac3af8c80>@@QEAA@AEAPEAVMessageLite@protobuf@google@@AEAPEAVParseContext@internal@23@AEAPEBUTcParseTableBase@523@@Z
	??0<lambda_e4d76ad9b0bb58ace05dc693eeeafa50>@@QEAA@AEAPEAV?$MapAllocator@U?$pair@$$CBUVariantKey@internal@protobuf@google@@PEAUNodeBase@234@@std@@@internal@protobuf@google@@@Z
	??0<lambda_e4da2986222f271802fb5f9764bac914>@@QEAA@AEBQEAV?$RepeatedField@_N@protobuf@google@@@Z
	??0<lambda_e5533814b0a56a7f79255a1c1ab59cf4>@@QEAA@AEBQEAV?$RepeatedField@_N@protobuf@google@@AEB_N@Z
	??0<lambda_e80d313c0cf4c9228fde5c11dc5dfa23>@@QEAA@AEBGAEBTFieldAux@TcParseTableBase@internal@protobuf@google@@AEBQEAVMessageLite@45@AEBQEBU2345@AEBUTcFieldData@345@AEBQEAV?$RepeatedField@_N@45@@Z
	??0<lambda_e9963a79c75615d7d41a514280e39d76>@@QEAA@AEBTFieldAux@TcParseTableBase@internal@protobuf@google@@AEBQEAVMessageLite@45@AEBQEBU2345@AEBGAEBQEAV?$RepeatedField@H@45@@Z
	??0<lambda_ee012d68823e82235e446c380eaf9f28>@@QEAA@PEAVUnknownFieldLiteParserHelper@internal@protobuf@google@@AEAPEAVParseContext@234@@Z
	??0<lambda_ef517ad6fdfa3fa56e26d0b9abcff24f>@@QEAA@AEAPEAVMessageLite@protobuf@google@@AEAPEAVParseContext@internal@23@AEAPEBUTcParseTableBase@523@@Z
	??0<lambda_f30daaeca8ef5592c2ffbda46b6b85e1>@@QEAA@AEBQEAX@Z
	??0<lambda_f7e28047965828f76bdd499f4a3f8c0c>@@QEAA@AEBGAEBTFieldAux@TcParseTableBase@internal@protobuf@google@@AEBQEAVMessageLite@45@AEBQEBU2345@AEBUTcFieldData@345@AEBQEAV?$RepeatedField@_K@45@@Z
	??0<lambda_fd6fa7f33120bcaca0799773e3e09079>@@QEAA@AEAPEBD@Z
	??0<lambda_fe592639919b3c824e640b9c35321b8f>@@QEAA@AEBEAEBQEBUTcParseTableBase@internal@protobuf@google@@AEAV?$RepeatedPtrField@V?$basic_string@DU?$char_traits@D@std@@V?$allocator@D@2@@std@@@34@@Z
	??0<lambda_fe713895709c2c9995c52d5e2bf08d79>@@QEAA@AEBQEAV?$RepeatedField@_K@protobuf@google@@@Z
	??0?$BitMask@G$0BA@$0A@$0A@@container_internal@lts_20250814@absl@@QEAA@G@Z
	??0?$Container@V?$basic_string@DU?$char_traits@D@std@@V?$allocator@D@2@@std@@@InternalMetadata@internal@protobuf@google@@QEAA@XZ
	??0?$FormatSpecTemplate@$0EAAAE@$0JPPPL@@str_format_internal@lts_20250814@absl@@QEAA@PEBD@Z
	??0?$FormatSpecTemplate@$0IAAAE@$0JPPPL@@str_format_internal@lts_20250814@absl@@QEAA@PEBD@Z
	??0?$FormatSpecTemplate@$0IAAAE@@str_format_internal@lts_20250814@absl@@QEAA@PEBD@Z
	??0?$FormatSpecTemplate@$0JPOAA@@str_format_internal@lts_20250814@absl@@QEAA@PEBD@Z
	??0?$FormatSpecTemplate@$S@str_format_internal@lts_20250814@absl@@QEAA@PEBD@Z
	??0?$Layout@USerialArenaChunkHeader@internal@protobuf@google@@U?$atomic@PEAX@std@@U?$atomic@PEAVSerialArena@internal@protobuf@google@@@6@@container_internal@lts_20250814@absl@@QEAA@_K00@Z
	??0?$LayoutImpl@V?$tuple@PEAV?$btree_node@U?$map_params@HUExtension@ExtensionSet@internal@protobuf@google@@U?$less@H@std@@V?$allocator@U?$pair@$$CBHUExtension@ExtensionSet@internal@protobuf@google@@@std@@@7@$0BAA@$0A@@container_internal@lts_20250814@absl@@@container_internal@lts_20250814@absl@@IET?$map_slot_type@HUExtension@ExtensionSet@internal@protobuf@google@@@234@PEAV1234@@std@@U?$integer_sequence@_K$00$0A@$03$06$07@2@U?$integer_sequence@_K$S@2@U?$integer_sequence@_K$0A@$00$01$02$03@2@U52@@internal_layout@container_internal@lts_20250814@absl@@QEAA@XZ
	??0?$LayoutImpl@V?$tuple@PEAV?$btree_node@U?$map_params@HUExtension@ExtensionSet@internal@protobuf@google@@U?$less@H@std@@V?$allocator@U?$pair@$$CBHUExtension@ExtensionSet@internal@protobuf@google@@@std@@@7@$0BAA@$0A@@container_internal@lts_20250814@absl@@@container_internal@lts_20250814@absl@@IET?$map_slot_type@HUExtension@ExtensionSet@internal@protobuf@google@@@234@PEAV1234@@std@@U?$integer_sequence@_K$00$0A@$03@2@U?$integer_sequence@_K$0A@$00@2@U?$integer_sequence@_K$0A@$00$01$02$03@2@U52@@internal_layout@container_internal@lts_20250814@absl@@QEAA@_K0@Z
	??0?$LayoutImpl@V?$tuple@PEAV?$btree_node@U?$map_params@UVariantKey@internal@protobuf@google@@PEAUNodeBase@234@U?$less@UVariantKey@internal@protobuf@google@@@std@@V?$MapAllocator@U?$pair@$$CBUVariantKey@internal@protobuf@google@@PEAUNodeBase@234@@std@@@234@$0BAA@$0A@@container_internal@lts_20250814@absl@@@container_internal@lts_20250814@absl@@IET?$map_slot_type@UVariantKey@internal@protobuf@google@@PEAUNodeBase@234@@234@PEAV1234@@std@@U?$integer_sequence@_K$00$0A@$03$09$0L@@2@U?$integer_sequence@_K$S@2@U?$integer_sequence@_K$0A@$00$01$02$03@2@U52@@internal_layout@container_internal@lts_20250814@absl@@QEAA@XZ
	??0?$LayoutImpl@V?$tuple@PEAV?$btree_node@U?$map_params@UVariantKey@internal@protobuf@google@@PEAUNodeBase@234@U?$less@UVariantKey@internal@protobuf@google@@@std@@V?$MapAllocator@U?$pair@$$CBUVariantKey@internal@protobuf@google@@PEAUNodeBase@234@@std@@@234@$0BAA@$0A@@container_internal@lts_20250814@absl@@@container_internal@lts_20250814@absl@@IET?$map_slot_type@UVariantKey@internal@protobuf@google@@PEAUNodeBase@234@@234@PEAV1234@@std@@U?$integer_sequence@_K$00$0A@$03@2@U?$integer_sequence@_K$0A@$00@2@U?$integer_sequence@_K$0A@$00$01$02$03@2@U52@@internal_layout@container_internal@lts_20250814@absl@@QEAA@_K0@Z
	??0?$LayoutImpl@V?$tuple@USerialArenaChunkHeader@internal@protobuf@google@@U?$atomic@PEAX@std@@U?$atomic@PEAVSerialArena@internal@protobuf@google@@@6@@std@@U?$integer_sequence@_K$S@2@U32@U32@U?$integer_sequence@_K$0A@@2@@internal_layout@container_internal@lts_20250814@absl@@QEAA@XZ
	??0?$LayoutImpl@V?$tuple@USerialArenaChunkHeader@internal@protobuf@google@@U?$atomic@PEAX@std@@U?$atomic@PEAVSerialArena@internal@protobuf@google@@@6@@std@@U?$integer_sequence@_K$S@2@U?$integer_sequence@_K$0A@$00$01@2@U42@U42@@internal_layout@container_internal@lts_20250814@absl@@QEAA@_K00@Z
	??0?$LayoutWithStaticSizes@U?$integer_sequence@_K$00$0A@$03$06$07@std@@PEAV?$btree_node@U?$map_params@HUExtension@ExtensionSet@internal@protobuf@google@@U?$less@H@std@@V?$allocator@U?$pair@$$CBHUExtension@ExtensionSet@internal@protobuf@google@@@std@@@7@$0BAA@$0A@@container_internal@lts_20250814@absl@@@container_internal@lts_20250814@absl@@IET?$map_slot_type@HUExtension@ExtensionSet@internal@protobuf@google@@@456@PEAV3456@@internal_layout@container_internal@lts_20250814@absl@@QEAA@XZ
	??0?$LayoutWithStaticSizes@U?$integer_sequence@_K$00$0A@$03$09$0L@@std@@PEAV?$btree_node@U?$map_params@UVariantKey@internal@protobuf@google@@PEAUNodeBase@234@U?$less@UVariantKey@internal@protobuf@google@@@std@@V?$MapAllocator@U?$pair@$$CBUVariantKey@internal@protobuf@google@@PEAUNodeBase@234@@std@@@234@$0BAA@$0A@@container_internal@lts_20250814@absl@@@container_internal@lts_20250814@absl@@IET?$map_slot_type@UVariantKey@internal@protobuf@google@@PEAUNodeBase@234@@456@PEAV3456@@internal_layout@container_internal@lts_20250814@absl@@QEAA@XZ
	??0?$LayoutWithStaticSizes@U?$integer_sequence@_K$00$0A@$03@std@@PEAV?$btree_node@U?$map_params@HUExtension@ExtensionSet@internal@protobuf@google@@U?$less@H@std@@V?$allocator@U?$pair@$$CBHUExtension@ExtensionSet@internal@protobuf@google@@@std@@@7@$0BAA@$0A@@container_internal@lts_20250814@absl@@@container_internal@lts_20250814@absl@@IET?$map_slot_type@HUExtension@ExtensionSet@internal@protobuf@google@@@456@PEAV3456@@internal_layout@container_internal@lts_20250814@absl@@QEAA@_K0@Z
	??0?$LayoutWithStaticSizes@U?$integer_sequence@_K$00$0A@$03@std@@PEAV?$btree_node@U?$map_params@UVariantKey@internal@protobuf@google@@PEAUNodeBase@234@U?$less@UVariantKey@internal@protobuf@google@@@std@@V?$MapAllocator@U?$pair@$$CBUVariantKey@internal@protobuf@google@@PEAUNodeBase@234@@std@@@234@$0BAA@$0A@@container_internal@lts_20250814@absl@@@container_internal@lts_20250814@absl@@IET?$map_slot_type@UVariantKey@internal@protobuf@google@@PEAUNodeBase@234@@456@PEAV3456@@internal_layout@container_internal@lts_20250814@absl@@QEAA@_K0@Z
	??0?$LayoutWithStaticSizes@U?$integer_sequence@_K$S@std@@USerialArenaChunkHeader@internal@protobuf@google@@U?$atomic@PEAX@2@U?$atomic@PEAVSerialArena@internal@protobuf@google@@@2@@internal_layout@container_internal@lts_20250814@absl@@QEAA@_K00@Z
	??0?$MapAllocator@PEAX@internal@protobuf@google@@QEAA@PEAVArena@23@@Z
	??0?$NonIterableBitMask@G$0BA@$0A@@container_internal@lts_20250814@absl@@QEAA@G@Z
	??0?$RepeatedField@H@protobuf@google@@AEAA@PEAVArena@12@$$QEAV012@@Z
	??0?$RepeatedField@H@protobuf@google@@AEAA@PEAVArena@12@AEBV012@@Z
	??0?$RepeatedField@H@protobuf@google@@QEAA@$$QEAV012@@Z
	??0?$RepeatedField@H@protobuf@google@@QEAA@AEBV012@@Z
	??0?$RepeatedField@H@protobuf@google@@QEAA@PEAVArena@12@@Z
	??0?$RepeatedField@H@protobuf@google@@QEAA@XZ
	??0?$RepeatedField@I@protobuf@google@@AEAA@PEAVArena@12@$$QEAV012@@Z
	??0?$RepeatedField@I@protobuf@google@@AEAA@PEAVArena@12@AEBV012@@Z
	??0?$RepeatedField@I@protobuf@google@@QEAA@$$QEAV012@@Z
	??0?$RepeatedField@I@protobuf@google@@QEAA@AEBV012@@Z
	??0?$RepeatedField@I@protobuf@google@@QEAA@PEAVArena@12@@Z
	??0?$RepeatedField@I@protobuf@google@@QEAA@XZ
	??0?$RepeatedField@M@protobuf@google@@AEAA@PEAVArena@12@$$QEAV012@@Z
	??0?$RepeatedField@M@protobuf@google@@AEAA@PEAVArena@12@AEBV012@@Z
	??0?$RepeatedField@M@protobuf@google@@QEAA@$$QEAV012@@Z
	??0?$RepeatedField@M@protobuf@google@@QEAA@AEBV012@@Z
	??0?$RepeatedField@M@protobuf@google@@QEAA@PEAVArena@12@@Z
	??0?$RepeatedField@M@protobuf@google@@QEAA@XZ
	??0?$RepeatedField@N@protobuf@google@@AEAA@PEAVArena@12@$$QEAV012@@Z
	??0?$RepeatedField@N@protobuf@google@@AEAA@PEAVArena@12@AEBV012@@Z
	??0?$RepeatedField@N@protobuf@google@@QEAA@$$QEAV012@@Z
	??0?$RepeatedField@N@protobuf@google@@QEAA@AEBV012@@Z
	??0?$RepeatedField@N@protobuf@google@@QEAA@PEAVArena@12@@Z
	??0?$RepeatedField@N@protobuf@google@@QEAA@XZ
	??0?$RepeatedField@_J@protobuf@google@@AEAA@PEAVArena@12@$$QEAV012@@Z
	??0?$RepeatedField@_J@protobuf@google@@AEAA@PEAVArena@12@AEBV012@@Z
	??0?$RepeatedField@_J@protobuf@google@@QEAA@$$QEAV012@@Z
	??0?$RepeatedField@_J@protobuf@google@@QEAA@AEBV012@@Z
	??0?$RepeatedField@_J@protobuf@google@@QEAA@PEAVArena@12@@Z
	??0?$RepeatedField@_J@protobuf@google@@QEAA@XZ
	??0?$RepeatedField@_K@protobuf@google@@AEAA@PEAVArena@12@$$QEAV012@@Z
	??0?$RepeatedField@_K@protobuf@google@@AEAA@PEAVArena@12@AEBV012@@Z
	??0?$RepeatedField@_K@protobuf@google@@QEAA@$$QEAV012@@Z
	??0?$RepeatedField@_K@protobuf@google@@QEAA@AEBV012@@Z
	??0?$RepeatedField@_K@protobuf@google@@QEAA@PEAVArena@12@@Z
	??0?$RepeatedField@_K@protobuf@google@@QEAA@XZ
	??0?$RepeatedField@_N@protobuf@google@@AEAA@PEAVArena@12@$$QEAV012@@Z
	??0?$RepeatedField@_N@protobuf@google@@AEAA@PEAVArena@12@AEBV012@@Z
	??0?$RepeatedField@_N@protobuf@google@@QEAA@$$QEAV012@@Z
	??0?$RepeatedField@_N@protobuf@google@@QEAA@AEBV012@@Z
	??0?$RepeatedField@_N@protobuf@google@@QEAA@PEAVArena@12@@Z
	??0?$RepeatedField@_N@protobuf@google@@QEAA@XZ
	??0?$RepeatedPtrField@V?$basic_string@DU?$char_traits@D@std@@V?$allocator@D@2@@std@@@protobuf@google@@QEAA@PEAVArena@12@@Z
	??0?$RepeatedPtrField@V?$basic_string@DU?$char_traits@D@std@@V?$allocator@D@2@@std@@@protobuf@google@@QEAA@XZ
	??0?$RepeatedPtrField@VMessageLite@protobuf@google@@@protobuf@google@@QEAA@PEAVArena@12@@Z
	??0?$SearchResult@V?$btree_iterator@V?$btree_node@U?$map_params@HUExtension@ExtensionSet@internal@protobuf@google@@U?$less@H@std@@V?$allocator@U?$pair@$$CBHUExtension@ExtensionSet@internal@protobuf@google@@@std@@@7@$0BAA@$0A@@container_internal@lts_20250814@absl@@@container_internal@lts_20250814@absl@@AEAU?$pair@$$CBHUExtension@ExtensionSet@internal@protobuf@google@@@std@@PEAU56@@container_internal@lts_20250814@absl@@$0A@@container_internal@lts_20250814@absl@@QEAA@V?$btree_iterator@V?$btree_node@U?$map_params@HUExtension@ExtensionSet@internal@protobuf@google@@U?$less@H@std@@V?$allocator@U?$pair@$$CBHUExtension@ExtensionSet@internal@protobuf@google@@@std@@@7@$0BAA@$0A@@container_internal@lts_20250814@absl@@@container_internal@lts_20250814@absl@@AEAU?$pair@$$CBHUExtension@ExtensionSet@internal@protobuf@google@@@std@@PEAU56@@123@W4MatchKind@123@@Z
	??0?$SearchResult@V?$btree_iterator@V?$btree_node@U?$map_params@UVariantKey@internal@protobuf@google@@PEAUNodeBase@234@U?$less@UVariantKey@internal@protobuf@google@@@std@@V?$MapAllocator@U?$pair@$$CBUVariantKey@internal@protobuf@google@@PEAUNodeBase@234@@std@@@234@$0BAA@$0A@@container_internal@lts_20250814@absl@@@container_internal@lts_20250814@absl@@AEAU?$pair@$$CBUVariantKey@internal@protobuf@google@@PEAUNodeBase@234@@std@@PEAU56@@container_internal@lts_20250814@absl@@$0A@@container_internal@lts_20250814@absl@@QEAA@V?$btree_iterator@V?$btree_node@U?$map_params@UVariantKey@internal@protobuf@google@@PEAUNodeBase@234@U?$less@UVariantKey@internal@protobuf@google@@@std@@V?$MapAllocator@U?$pair@$$CBUVariantKey@internal@protobuf@google@@PEAUNodeBase@234@@std@@@234@$0BAA@$0A@@container_internal@lts_20250814@absl@@@container_internal@lts_20250814@absl@@AEAU?$pair@$$CBUVariantKey@internal@protobuf@google@@PEAUNodeBase@234@@std@@PEAU56@@123@W4MatchKind@123@@Z
	??0?$SearchResult@_K$0A@@container_internal@lts_20250814@absl@@QEAA@_K@Z
	??0?$SourceWrapper@VCord@lts_20250814@absl@@@internal@protobuf@google@@QEAA@PEBVCord@lts_20250814@absl@@@Z
	??0?$Span@$$CBD@lts_20250814@absl@@QEAA@PEBD_K@Z
	??0?$Span@$$CBD@lts_20250814@absl@@QEAA@XZ
	??0?$Span@$$CBH@lts_20250814@absl@@QEAA@PEBH_K@Z
	??0?$Span@$$CBU?$atomic@PEAVSerialArena@internal@protobuf@google@@@std@@@lts_20250814@absl@@QEAA@PEBU?$atomic@PEAVSerialArena@internal@protobuf@google@@@std@@_K@Z
	??0?$Span@$$CBU?$atomic@PEAVSerialArena@internal@protobuf@google@@@std@@@lts_20250814@absl@@QEAA@XZ
	??0?$Span@$$CBU?$atomic@PEAX@std@@@lts_20250814@absl@@QEAA@PEBU?$atomic@PEAX@std@@_K@Z
	??0?$Span@$$CBU?$atomic@PEAX@std@@@lts_20250814@absl@@QEAA@XZ
	??0?$Span@$$CBVFormatArgImpl@str_format_internal@lts_20250814@absl@@@lts_20250814@absl@@QEAA@PEBVFormatArgImpl@str_format_internal@12@_K@Z
	??0?$Span@$$CBVFormatArgImpl@str_format_internal@lts_20250814@absl@@@lts_20250814@absl@@QEAA@XZ
	??0?$Span@D@lts_20250814@absl@@QEAA@PEAD_K@Z
	??0?$Span@D@lts_20250814@absl@@QEAA@XZ
	??0?$Span@I@lts_20250814@absl@@QEAA@PEAI_K@Z
	??0?$Span@U?$atomic@PEAVSerialArena@internal@protobuf@google@@@std@@@lts_20250814@absl@@QEAA@PEAU?$atomic@PEAVSerialArena@internal@protobuf@google@@@std@@_K@Z
	??0?$Span@U?$atomic@PEAVSerialArena@internal@protobuf@google@@@std@@@lts_20250814@absl@@QEAA@XZ
	??0?$SplitIterator@V?$Splitter@VByChar@lts_20250814@absl@@UAllowEmpty@23@V?$basic_string_view@DU?$char_traits@D@std@@@std@@@strings_internal@lts_20250814@absl@@@strings_internal@lts_20250814@absl@@QEAA@W4State@0123@PEBV?$Splitter@VByChar@lts_20250814@absl@@UAllowEmpty@23@V?$basic_string_view@DU?$char_traits@D@std@@@std@@@123@@Z
	??0?$Splitter@VByChar@lts_20250814@absl@@UAllowEmpty@23@V?$basic_string_view@DU?$char_traits@D@std@@@std@@@strings_internal@lts_20250814@absl@@QEAA@V?$basic_string_view@DU?$char_traits@D@std@@@std@@VByChar@23@UAllowEmpty@23@@Z
	??0?$_Alloc_construct_ptr@V?$allocator@U?$_Tree_node@U?$pair@$$CBV?$basic_string_view@DU?$char_traits@D@std@@@std@@PEBVRealDebugCounter@internal@protobuf@google@@@std@@PEAX@std@@@std@@@std@@QEAA@AEAV?$allocator@U?$_Tree_node@U?$pair@$$CBV?$basic_string_view@DU?$char_traits@D@std@@@std@@PEBVRealDebugCounter@internal@protobuf@google@@@std@@PEAX@std@@@1@@Z
	??0?$_Alloc_construct_ptr@V?$allocator@U?$_Tree_node@U?$pair@$$CBV?$basic_string_view@DU?$char_traits@D@std@@@std@@V?$map@V?$basic_string_view@DU?$char_traits@D@std@@@std@@PEBVRealDebugCounter@internal@protobuf@google@@U?$less@V?$basic_string_view@DU?$char_traits@D@std@@@std@@@2@V?$allocator@U?$pair@$$CBV?$basic_string_view@DU?$char_traits@D@std@@@std@@PEBVRealDebugCounter@internal@protobuf@google@@@std@@@2@@2@@std@@PEAX@std@@@std@@@std@@QEAA@AEAV?$allocator@U?$_Tree_node@U?$pair@$$CBV?$basic_string_view@DU?$char_traits@D@std@@@std@@V?$map@V?$basic_string_view@DU?$char_traits@D@std@@@std@@PEBVRealDebugCounter@internal@protobuf@google@@U?$less@V?$basic_string_view@DU?$char_traits@D@std@@@std@@@2@V?$allocator@U?$pair@$$CBV?$basic_string_view@DU?$char_traits@D@std@@@std@@PEBVRealDebugCounter@internal@protobuf@google@@@std@@@2@@2@@std@@PEAX@std@@@1@@Z
	??0?$_Atomic_integral@H$03@std@@QEAA@AEBH@Z
	??0?$_Atomic_integral@I$03@std@@QEAA@AEBI@Z
	??0?$_Atomic_integral@_J$07@std@@QEAA@AEB_J@Z
	??0?$_Atomic_integral@_K$07@std@@QEAA@AEB_K@Z
	??0?$_Atomic_integral_facade@H@std@@QEAA@AEBH@Z
	??0?$_Atomic_integral_facade@I@std@@QEAA@AEBI@Z
	??0?$_Atomic_integral_facade@_J@std@@QEAA@AEB_J@Z
	??0?$_Atomic_integral_facade@_K@std@@QEAA@AEB_K@Z
	??0?$_Atomic_nonobject_pointer@PEAX@std@@QEAA@AEBQEAX@Z
	??0?$_Atomic_pointer@PEAD@std@@QEAA@AEBQEAD@Z
	??0?$_Atomic_pointer@PEAUArenaBlock@internal@protobuf@google@@@std@@QEAA@AEBQEAUArenaBlock@internal@protobuf@google@@@Z
	??0?$_Atomic_pointer@PEAVSerialArena@internal@protobuf@google@@@std@@QEAA@AEBQEAVSerialArena@internal@protobuf@google@@@Z
	??0?$_Atomic_pointer@PEAVSerialArenaChunk@ThreadSafeArena@internal@protobuf@google@@@std@@QEAA@AEBQEAVSerialArenaChunk@ThreadSafeArena@internal@protobuf@google@@@Z
	??0?$_Atomic_pointer@PEAVStringBlock@internal@protobuf@google@@@std@@QEAA@AEBQEAVStringBlock@internal@protobuf@google@@@Z
	??0?$_Atomic_storage@H$03@std@@QEAA@AEBH@Z
	??0?$_Atomic_storage@I$03@std@@QEAA@AEBI@Z
	??0?$_Atomic_storage@PEAD$07@std@@QEAA@AEBQEAD@Z
	??0?$_Atomic_storage@PEAUArenaBlock@internal@protobuf@google@@$07@std@@QEAA@AEBQEAUArenaBlock@internal@protobuf@google@@@Z
	??0?$_Atomic_storage@PEAVSerialArena@internal@protobuf@google@@$07@std@@QEAA@AEBQEAVSerialArena@internal@protobuf@google@@@Z
	??0?$_Atomic_storage@PEAVSerialArenaChunk@ThreadSafeArena@internal@protobuf@google@@$07@std@@QEAA@AEBQEAVSerialArenaChunk@ThreadSafeArena@internal@protobuf@google@@@Z
	??0?$_Atomic_storage@PEAVStringBlock@internal@protobuf@google@@$07@std@@QEAA@AEBQEAVStringBlock@internal@protobuf@google@@@Z
	??0?$_Atomic_storage@PEAX$07@std@@QEAA@AEBQEAX@Z
	??0?$_Atomic_storage@_J$07@std@@QEAA@AEB_J@Z
	??0?$_Atomic_storage@_K$07@std@@QEAA@AEB_K@Z
	??0?$_Optional_construct_base@F@std@@QEAA@XZ
	??0?$_Optional_construct_base@V?$basic_string_view@DU?$char_traits@D@std@@@std@@@std@@QEAA@XZ
	??0?$_Optional_destruct_base@F$00@std@@QEAA@XZ
	??0?$_Optional_destruct_base@V?$basic_string_view@DU?$char_traits@D@std@@@std@@$00@std@@QEAA@XZ
	??0?$_String_bitmap@D$00@std@@QEAA@XZ
	??0?$_String_val@U?$_Simple_types@D@std@@@std@@QEAA@XZ
	??0?$_String_val@U?$_Simple_types@_W@std@@@std@@QEAA@XZ
	??0?$_Tree@V?$_Tmap_traits@V?$basic_string_view@DU?$char_traits@D@std@@@std@@PEBVRealDebugCounter@internal@protobuf@google@@U?$less@V?$basic_string_view@DU?$char_traits@D@std@@@std@@@2@V?$allocator@U?$pair@$$CBV?$basic_string_view@DU?$char_traits@D@std@@@std@@PEBVRealDebugCounter@internal@protobuf@google@@@std@@@2@$0A@@std@@@std@@QEAA@AEBU?$less@V?$basic_string_view@DU?$char_traits@D@std@@@std@@@1@@Z
	??0?$_Tree@V?$_Tmap_traits@V?$basic_string_view@DU?$char_traits@D@std@@@std@@V?$map@V?$basic_string_view@DU?$char_traits@D@std@@@std@@PEBVRealDebugCounter@internal@protobuf@google@@U?$less@V?$basic_string_view@DU?$char_traits@D@std@@@std@@@2@V?$allocator@U?$pair@$$CBV?$basic_string_view@DU?$char_traits@D@std@@@std@@PEBVRealDebugCounter@internal@protobuf@google@@@std@@@2@@2@U?$less@V?$basic_string_view@DU?$char_traits@D@std@@@std@@@2@V?$allocator@U?$pair@$$CBV?$basic_string_view@DU?$char_traits@D@std@@@std@@V?$map@V?$basic_string_view@DU?$char_traits@D@std@@@std@@PEBVRealDebugCounter@internal@protobuf@google@@U?$less@V?$basic_string_view@DU?$char_traits@D@std@@@std@@@2@V?$allocator@U?$pair@$$CBV?$basic_string_view@DU?$char_traits@D@std@@@std@@PEBVRealDebugCounter@internal@protobuf@google@@@std@@@2@@2@@std@@@2@$0A@@std@@@std@@QEAA@AEBU?$less@V?$basic_string_view@DU?$char_traits@D@std@@@std@@@1@@Z
	??0?$_Tree_temp_node_alloc@V?$allocator@U?$_Tree_node@U?$pair@$$CBV?$basic_string_view@DU?$char_traits@D@std@@@std@@PEBVRealDebugCounter@internal@protobuf@google@@@std@@PEAX@std@@@std@@@std@@QEAA@AEAV?$allocator@U?$_Tree_node@U?$pair@$$CBV?$basic_string_view@DU?$char_traits@D@std@@@std@@PEBVRealDebugCounter@internal@protobuf@google@@@std@@PEAX@std@@@1@@Z
	??0?$_Tree_temp_node_alloc@V?$allocator@U?$_Tree_node@U?$pair@$$CBV?$basic_string_view@DU?$char_traits@D@std@@@std@@V?$map@V?$basic_string_view@DU?$char_traits@D@std@@@std@@PEBVRealDebugCounter@internal@protobuf@google@@U?$less@V?$basic_string_view@DU?$char_traits@D@std@@@std@@@2@V?$allocator@U?$pair@$$CBV?$basic_string_view@DU?$char_traits@D@std@@@std@@PEBVRealDebugCounter@internal@protobuf@google@@@std@@@2@@2@@std@@PEAX@std@@@std@@@std@@QEAA@AEAV?$allocator@U?$_Tree_node@U?$pair@$$CBV?$basic_string_view@DU?$char_traits@D@std@@@std@@V?$map@V?$basic_string_view@DU?$char_traits@D@std@@@std@@PEBVRealDebugCounter@internal@protobuf@google@@U?$less@V?$basic_string_view@DU?$char_traits@D@std@@@std@@@2@V?$allocator@U?$pair@$$CBV?$basic_string_view@DU?$char_traits@D@std@@@std@@PEBVRealDebugCounter@internal@protobuf@google@@@std@@@2@@2@@std@@PEAX@std@@@1@@Z
	??0?$_Tree_unchecked_const_iterator@V?$_Tree_val@U?$_Tree_simple_types@U?$pair@$$CBV?$basic_string_view@DU?$char_traits@D@std@@@std@@PEBVRealDebugCounter@internal@protobuf@google@@@std@@@std@@@std@@U_Iterator_base0@2@@std@@QEAA@PEAU?$_Tree_node@U?$pair@$$CBV?$basic_string_view@DU?$char_traits@D@std@@@std@@PEBVRealDebugCounter@internal@protobuf@google@@@std@@PEAX@1@PEBV?$_Tree_val@U?$_Tree_simple_types@U?$pair@$$CBV?$basic_string_view@DU?$char_traits@D@std@@@std@@PEBVRealDebugCounter@internal@protobuf@google@@@std@@@std@@@1@@Z
	??0?$_Tree_unchecked_const_iterator@V?$_Tree_val@U?$_Tree_simple_types@U?$pair@$$CBV?$basic_string_view@DU?$char_traits@D@std@@@std@@V?$map@V?$basic_string_view@DU?$char_traits@D@std@@@std@@PEBVRealDebugCounter@internal@protobuf@google@@U?$less@V?$basic_string_view@DU?$char_traits@D@std@@@std@@@2@V?$allocator@U?$pair@$$CBV?$basic_string_view@DU?$char_traits@D@std@@@std@@PEBVRealDebugCounter@internal@protobuf@google@@@std@@@2@@2@@std@@@std@@@std@@U_Iterator_base0@2@@std@@QEAA@PEAU?$_Tree_node@U?$pair@$$CBV?$basic_string_view@DU?$char_traits@D@std@@@std@@V?$map@V?$basic_string_view@DU?$char_traits@D@std@@@std@@PEBVRealDebugCounter@internal@protobuf@google@@U?$less@V?$basic_string_view@DU?$char_traits@D@std@@@std@@@2@V?$allocator@U?$pair@$$CBV?$basic_string_view@DU?$char_traits@D@std@@@std@@PEBVRealDebugCounter@internal@protobuf@google@@@std@@@2@@2@@std@@PEAX@1@PEBV?$_Tree_val@U?$_Tree_simple_types@U?$pair@$$CBV?$basic_string_view@DU?$char_traits@D@std@@@std@@V?$map@V?$basic_string_view@DU?$char_traits@D@std@@@std@@PEBVRealDebugCounter@internal@protobuf@google@@U?$less@V?$basic_string_view@DU?$char_traits@D@std@@@std@@@2@V?$allocator@U?$pair@$$CBV?$basic_string_view@DU?$char_traits@D@std@@@std@@PEBVRealDebugCounter@internal@protobuf@google@@@std@@@2@@2@@std@@@std@@@1@@Z
	??0?$_Tree_unchecked_iterator@V?$_Tree_val@U?$_Tree_simple_types@U?$pair@$$CBV?$basic_string_view@DU?$char_traits@D@std@@@std@@PEBVRealDebugCounter@internal@protobuf@google@@@std@@@std@@@std@@@std@@QEAA@PEAU?$_Tree_node@U?$pair@$$CBV?$basic_string_view@DU?$char_traits@D@std@@@std@@PEBVRealDebugCounter@internal@protobuf@google@@@std@@PEAX@1@PEBV?$_Tree_val@U?$_Tree_simple_types@U?$pair@$$CBV?$basic_string_view@DU?$char_traits@D@std@@@std@@PEBVRealDebugCounter@internal@protobuf@google@@@std@@@std@@@1@@Z
	??0?$_Tree_unchecked_iterator@V?$_Tree_val@U?$_Tree_simple_types@U?$pair@$$CBV?$basic_string_view@DU?$char_traits@D@std@@@std@@V?$map@V?$basic_string_view@DU?$char_traits@D@std@@@std@@PEBVRealDebugCounter@internal@protobuf@google@@U?$less@V?$basic_string_view@DU?$char_traits@D@std@@@std@@@2@V?$allocator@U?$pair@$$CBV?$basic_string_view@DU?$char_traits@D@std@@@std@@PEBVRealDebugCounter@internal@protobuf@google@@@std@@@2@@2@@std@@@std@@@std@@@std@@QEAA@PEAU?$_Tree_node@U?$pair@$$CBV?$basic_string_view@DU?$char_traits@D@std@@@std@@V?$map@V?$basic_string_view@DU?$char_traits@D@std@@@std@@PEBVRealDebugCounter@internal@protobuf@google@@U?$less@V?$basic_string_view@DU?$char_traits@D@std@@@std@@@2@V?$allocator@U?$pair@$$CBV?$basic_string_view@DU?$char_traits@D@std@@@std@@PEBVRealDebugCounter@internal@protobuf@google@@@std@@@2@@2@@std@@PEAX@1@PEBV?$_Tree_val@U?$_Tree_simple_types@U?$pair@$$CBV?$basic_string_view@DU?$char_traits@D@std@@@std@@V?$map@V?$basic_string_view@DU?$char_traits@D@std@@@std@@PEBVRealDebugCounter@internal@protobuf@google@@U?$less@V?$basic_string_view@DU?$char_traits@D@std@@@std@@@2@V?$allocator@U?$pair@$$CBV?$basic_string_view@DU?$char_traits@D@std@@@std@@PEBVRealDebugCounter@internal@protobuf@google@@@std@@@2@@2@@std@@@std@@@1@@Z
	??0?$_Tree_val@U?$_Tree_simple_types@U?$pair@$$CBV?$basic_string_view@DU?$char_traits@D@std@@@std@@PEBVRealDebugCounter@internal@protobuf@google@@@std@@@std@@@std@@QEAA@XZ
	??0?$_Tree_val@U?$_Tree_simple_types@U?$pair@$$CBV?$basic_string_view@DU?$char_traits@D@std@@@std@@V?$map@V?$basic_string_view@DU?$char_traits@D@std@@@std@@PEBVRealDebugCounter@internal@protobuf@google@@U?$less@V?$basic_string_view@DU?$char_traits@D@std@@@std@@@2@V?$allocator@U?$pair@$$CBV?$basic_string_view@DU?$char_traits@D@std@@@std@@PEBVRealDebugCounter@internal@protobuf@google@@@std@@@2@@2@@std@@@std@@@std@@QEAA@XZ
	??0?$_Uninitialized_backout_al@V?$allocator@H@std@@@std@@QEAA@PEAHAEAV?$allocator@H@1@@Z
	??0?$_Uninitialized_backout_al@V?$allocator@I@std@@@std@@QEAA@PEAIAEAV?$allocator@I@1@@Z
	??0?$_Uninitialized_backout_al@V?$allocator@PEAX@std@@@std@@QEAA@PEAPEAXAEAV?$allocator@PEAX@1@@Z
	??0?$_Uninitialized_backout_al@V?$allocator@U?$pair@P6AXPEBX@ZPEBX@std@@@std@@@std@@QEAA@PEAU?$pair@P6AXPEBX@ZPEBX@1@AEAV?$allocator@U?$pair@P6AXPEBX@ZPEBX@std@@@1@@Z
	??0?$_Uninitialized_backout_al@V?$allocator@V?$basic_string@_WU?$char_traits@_W@std@@V?$allocator@_W@2@@std@@@std@@@std@@QEAA@PEAV?$basic_string@_WU?$char_traits@_W@std@@V?$allocator@_W@2@@1@AEAV?$allocator@V?$basic_string@_WU?$char_traits@_W@std@@V?$allocator@_W@2@@std@@@1@@Z
	??0?$_Vector_const_iterator@V?$_Vector_val@U?$_Simple_types@H@std@@@std@@@std@@QEAA@PEAHPEBU_Container_base0@1@@Z
	??0?$_Vector_const_iterator@V?$_Vector_val@U?$_Simple_types@I@std@@@std@@@std@@QEAA@PEAIPEBU_Container_base0@1@@Z
	??0?$_Vector_const_iterator@V?$_Vector_val@U?$_Simple_types@U?$pair@P6AXPEBX@ZPEBX@std@@@std@@@std@@@std@@QEAA@PEAU?$pair@P6AXPEBX@ZPEBX@1@PEBU_Container_base0@1@@Z
	??0?$_Vector_iterator@V?$_Vector_val@U?$_Simple_types@H@std@@@std@@@std@@QEAA@PEAHPEBU_Container_base0@1@@Z
	??0?$_Vector_iterator@V?$_Vector_val@U?$_Simple_types@I@std@@@std@@@std@@QEAA@PEAIPEBU_Container_base0@1@@Z
	??0?$_Vector_iterator@V?$_Vector_val@U?$_Simple_types@U?$pair@P6AXPEBX@ZPEBX@std@@@std@@@std@@@std@@QEAA@PEAU?$pair@P6AXPEBX@ZPEBX@1@PEBU_Container_base0@1@@Z
	??0?$_Vector_val@U?$_Simple_types@H@std@@@std@@QEAA@XZ
	??0?$_Vector_val@U?$_Simple_types@I@std@@@std@@QEAA@PEAI00@Z
	??0?$_Vector_val@U?$_Simple_types@I@std@@@std@@QEAA@XZ
	??0?$_Vector_val@U?$_Simple_types@PEAX@std@@@std@@QEAA@PEAPEAX00@Z
	??0?$_Vector_val@U?$_Simple_types@PEAX@std@@@std@@QEAA@XZ
	??0?$_Vector_val@U?$_Simple_types@U?$pair@P6AXPEBX@ZPEBX@std@@@std@@@std@@QEAA@XZ
	??0?$_Vector_val@U?$_Simple_types@V?$basic_string@_WU?$char_traits@_W@std@@V?$allocator@_W@2@@std@@@std@@@std@@QEAA@XZ
	??0?$allocator@D@std@@QEAA@XZ
	??0?$allocator@H@std@@QEAA@XZ
	??0?$allocator@I@std@@QEAA@XZ
	??0?$allocator@PEAX@std@@QEAA@XZ
	??0?$allocator@U?$_Tree_node@U?$pair@$$CBV?$basic_string_view@DU?$char_traits@D@std@@@std@@PEBVRealDebugCounter@internal@protobuf@google@@@std@@PEAX@std@@@std@@QEAA@XZ
	??0?$allocator@U?$_Tree_node@U?$pair@$$CBV?$basic_string_view@DU?$char_traits@D@std@@@std@@V?$map@V?$basic_string_view@DU?$char_traits@D@std@@@std@@PEBVRealDebugCounter@internal@protobuf@google@@U?$less@V?$basic_string_view@DU?$char_traits@D@std@@@std@@@2@V?$allocator@U?$pair@$$CBV?$basic_string_view@DU?$char_traits@D@std@@@std@@PEBVRealDebugCounter@internal@protobuf@google@@@std@@@2@@2@@std@@PEAX@std@@@std@@QEAA@XZ
	??0?$allocator@U?$pair@$$CBHUExtension@ExtensionSet@internal@protobuf@google@@@std@@@std@@QEAA@XZ
	??0?$allocator@U?$pair@P6AXPEBX@ZPEBX@std@@@std@@QEAA@XZ
	??0?$allocator@V?$basic_string@_WU?$char_traits@_W@std@@V?$allocator@_W@2@@std@@@std@@QEAA@XZ
	??0?$allocator@_W@std@@QEAA@XZ
	??0?$atomic@H@std@@QEAA@H@Z
	??0?$atomic@I@std@@QEAA@I@Z
	??0?$atomic@PEAD@std@@QEAA@QEAD@Z
	??0?$atomic@PEAUArenaBlock@internal@protobuf@google@@@std@@QEAA@QEAUArenaBlock@internal@protobuf@google@@@Z
	??0?$atomic@PEAVSerialArena@internal@protobuf@google@@@std@@QEAA@QEAVSerialArena@internal@protobuf@google@@@Z
	??0?$atomic@PEAVSerialArenaChunk@ThreadSafeArena@internal@protobuf@google@@@std@@QEAA@QEAVSerialArenaChunk@ThreadSafeArena@internal@protobuf@google@@@Z
	??0?$atomic@PEAVStringBlock@internal@protobuf@google@@@std@@QEAA@QEAVStringBlock@internal@protobuf@google@@@Z
	??0?$atomic@PEAX@std@@QEAA@QEAX@Z
	??0?$atomic@_J@std@@QEAA@_J@Z
	??0?$atomic@_K@std@@QEAA@_K@Z
	??0?$basic_string@DU?$char_traits@D@std@@V?$allocator@D@2@@std@@QEAA@$$QEAV01@@Z
	??0?$basic_string@DU?$char_traits@D@std@@V?$allocator@D@2@@std@@QEAA@AEBV01@@Z
	??0?$basic_string@DU?$char_traits@D@std@@V?$allocator@D@2@@std@@QEAA@AEBV01@_K1AEBV?$allocator@D@1@@Z
	??0?$basic_string@DU?$char_traits@D@std@@V?$allocator@D@2@@std@@QEAA@QEBD@Z
	??0?$basic_string@DU?$char_traits@D@std@@V?$allocator@D@2@@std@@QEAA@QEBD_K@Z
	??0?$basic_string@DU?$char_traits@D@std@@V?$allocator@D@2@@std@@QEAA@U_String_constructor_concat_tag@1@AEBV01@QEBD_K23@Z
	??0?$basic_string@DU?$char_traits@D@std@@V?$allocator@D@2@@std@@QEAA@XZ
	??0?$basic_string@_WU?$char_traits@_W@std@@V?$allocator@_W@2@@std@@QEAA@$$QEAV01@@Z
	??0?$basic_string@_WU?$char_traits@_W@std@@V?$allocator@_W@2@@std@@QEAA@AEBV01@@Z
	??0?$basic_string@_WU?$char_traits@_W@std@@V?$allocator@_W@2@@std@@QEAA@AEBV01@_K1AEBV?$allocator@_W@1@@Z
	??0?$basic_string@_WU?$char_traits@_W@std@@V?$allocator@_W@2@@std@@QEAA@AEBV?$allocator@_W@1@@Z
	??0?$basic_string@_WU?$char_traits@_W@std@@V?$allocator@_W@2@@std@@QEAA@QEB_W@Z
	??0?$basic_string@_WU?$char_traits@_W@std@@V?$allocator@_W@2@@std@@QEAA@U_String_constructor_concat_tag@1@AEBV01@QEB_W_K23@Z
	??0?$basic_string@_WU?$char_traits@_W@std@@V?$allocator@_W@2@@std@@QEAA@XZ
	??0?$basic_string_view@DU?$char_traits@D@std@@@std@@QEAA@QEBD@Z
	??0?$basic_string_view@DU?$char_traits@D@std@@@std@@QEAA@QEBD_K@Z
	??0?$basic_string_view@DU?$char_traits@D@std@@@std@@QEAA@XZ
	??0?$basic_string_view@_WU?$char_traits@_W@std@@@std@@QEAA@QEB_W@Z
	??0?$basic_string_view@_WU?$char_traits@_W@std@@@std@@QEAA@QEB_W_K@Z
	??0?$basic_stringbuf@_WU?$char_traits@_W@std@@V?$allocator@_W@2@@std@@QEAA@H@Z
	??0?$basic_stringstream@_WU?$char_traits@_W@std@@V?$allocator@_W@2@@std@@QEAA@XZ
	??0?$btree@U?$map_params@HUExtension@ExtensionSet@internal@protobuf@google@@U?$less@H@std@@V?$allocator@U?$pair@$$CBHUExtension@ExtensionSet@internal@protobuf@google@@@std@@@7@$0BAA@$0A@@container_internal@lts_20250814@absl@@@container_internal@lts_20250814@absl@@QEAA@AEBUchecked_compare@?$key_compare_adapter@U?$less@H@std@@H@123@AEBV?$allocator@U?$pair@$$CBHUExtension@ExtensionSet@internal@protobuf@google@@@std@@@std@@@Z
	??0?$btree@U?$map_params@UVariantKey@internal@protobuf@google@@PEAUNodeBase@234@U?$less@UVariantKey@internal@protobuf@google@@@std@@V?$MapAllocator@U?$pair@$$CBUVariantKey@internal@protobuf@google@@PEAUNodeBase@234@@std@@@234@$0BAA@$0A@@container_internal@lts_20250814@absl@@@container_internal@lts_20250814@absl@@QEAA@AEBUchecked_compare@?$key_compare_adapter@U?$less@UVariantKey@internal@protobuf@google@@@std@@UVariantKey@internal@protobuf@google@@@123@AEBV?$MapAllocator@U?$pair@$$CBUVariantKey@internal@protobuf@google@@PEAUNodeBase@234@@std@@@internal@protobuf@google@@@Z
	??0?$btree_container@V?$btree@U?$map_params@HUExtension@ExtensionSet@internal@protobuf@google@@U?$less@H@std@@V?$allocator@U?$pair@$$CBHUExtension@ExtensionSet@internal@protobuf@google@@@std@@@7@$0BAA@$0A@@container_internal@lts_20250814@absl@@@container_internal@lts_20250814@absl@@@container_internal@lts_20250814@absl@@QEAA@XZ
	??0?$btree_container@V?$btree@U?$map_params@UVariantKey@internal@protobuf@google@@PEAUNodeBase@234@U?$less@UVariantKey@internal@protobuf@google@@@std@@V?$MapAllocator@U?$pair@$$CBUVariantKey@internal@protobuf@google@@PEAUNodeBase@234@@std@@@234@$0BAA@$0A@@container_internal@lts_20250814@absl@@@container_internal@lts_20250814@absl@@@container_internal@lts_20250814@absl@@QEAA@AEBU?$less@UVariantKey@internal@protobuf@google@@@std@@AEBV?$MapAllocator@U?$pair@$$CBUVariantKey@internal@protobuf@google@@PEAUNodeBase@234@@std@@@internal@protobuf@google@@@Z
	??0?$btree_iterator@$$CBV?$btree_node@U?$map_params@HUExtension@ExtensionSet@internal@protobuf@google@@U?$less@H@std@@V?$allocator@U?$pair@$$CBHUExtension@ExtensionSet@internal@protobuf@google@@@std@@@7@$0BAA@$0A@@container_internal@lts_20250814@absl@@@container_internal@lts_20250814@absl@@AEBU?$pair@$$CBHUExtension@ExtensionSet@internal@protobuf@google@@@std@@PEBU56@@container_internal@lts_20250814@absl@@QEAA@PEBV?$btree_node@U?$map_params@HUExtension@ExtensionSet@internal@protobuf@google@@U?$less@H@std@@V?$allocator@U?$pair@$$CBHUExtension@ExtensionSet@internal@protobuf@google@@@std@@@7@$0BAA@$0A@@container_internal@lts_20250814@absl@@@123@H@Z
	??0?$btree_iterator@V?$btree_node@U?$map_params@HUExtension@ExtensionSet@internal@protobuf@google@@U?$less@H@std@@V?$allocator@U?$pair@$$CBHUExtension@ExtensionSet@internal@protobuf@google@@@std@@@7@$0BAA@$0A@@container_internal@lts_20250814@absl@@@container_internal@lts_20250814@absl@@AEAU?$pair@$$CBHUExtension@ExtensionSet@internal@protobuf@google@@@std@@PEAU56@@container_internal@lts_20250814@absl@@QEAA@PEAV?$btree_node@U?$map_params@HUExtension@ExtensionSet@internal@protobuf@google@@U?$less@H@std@@V?$allocator@U?$pair@$$CBHUExtension@ExtensionSet@internal@protobuf@google@@@std@@@7@$0BAA@$0A@@container_internal@lts_20250814@absl@@@123@@Z
	??0?$btree_iterator@V?$btree_node@U?$map_params@HUExtension@ExtensionSet@internal@protobuf@google@@U?$less@H@std@@V?$allocator@U?$pair@$$CBHUExtension@ExtensionSet@internal@protobuf@google@@@std@@@7@$0BAA@$0A@@container_internal@lts_20250814@absl@@@container_internal@lts_20250814@absl@@AEAU?$pair@$$CBHUExtension@ExtensionSet@internal@protobuf@google@@@std@@PEAU56@@container_internal@lts_20250814@absl@@QEAA@PEAV?$btree_node@U?$map_params@HUExtension@ExtensionSet@internal@protobuf@google@@U?$less@H@std@@V?$allocator@U?$pair@$$CBHUExtension@ExtensionSet@internal@protobuf@google@@@std@@@7@$0BAA@$0A@@container_internal@lts_20250814@absl@@@123@H@Z
	??0?$btree_iterator@V?$btree_node@U?$map_params@UVariantKey@internal@protobuf@google@@PEAUNodeBase@234@U?$less@UVariantKey@internal@protobuf@google@@@std@@V?$MapAllocator@U?$pair@$$CBUVariantKey@internal@protobuf@google@@PEAUNodeBase@234@@std@@@234@$0BAA@$0A@@container_internal@lts_20250814@absl@@@container_internal@lts_20250814@absl@@AEAU?$pair@$$CBUVariantKey@internal@protobuf@google@@PEAUNodeBase@234@@std@@PEAU56@@container_internal@lts_20250814@absl@@QEAA@PEAV?$btree_node@U?$map_params@UVariantKey@internal@protobuf@google@@PEAUNodeBase@234@U?$less@UVariantKey@internal@protobuf@google@@@std@@V?$MapAllocator@U?$pair@$$CBUVariantKey@internal@protobuf@google@@PEAUNodeBase@234@@std@@@234@$0BAA@$0A@@container_internal@lts_20250814@absl@@@123@@Z
	??0?$btree_iterator@V?$btree_node@U?$map_params@UVariantKey@internal@protobuf@google@@PEAUNodeBase@234@U?$less@UVariantKey@internal@protobuf@google@@@std@@V?$MapAllocator@U?$pair@$$CBUVariantKey@internal@protobuf@google@@PEAUNodeBase@234@@std@@@234@$0BAA@$0A@@container_internal@lts_20250814@absl@@@container_internal@lts_20250814@absl@@AEAU?$pair@$$CBUVariantKey@internal@protobuf@google@@PEAUNodeBase@234@@std@@PEAU56@@container_internal@lts_20250814@absl@@QEAA@PEAV?$btree_node@U?$map_params@UVariantKey@internal@protobuf@google@@PEAUNodeBase@234@U?$less@UVariantKey@internal@protobuf@google@@@std@@V?$MapAllocator@U?$pair@$$CBUVariantKey@internal@protobuf@google@@PEAUNodeBase@234@@std@@@234@$0BAA@$0A@@container_internal@lts_20250814@absl@@@123@H@Z
	??0?$btree_iterator@V?$btree_node@U?$map_params@UVariantKey@internal@protobuf@google@@PEAUNodeBase@234@U?$less@UVariantKey@internal@protobuf@google@@@std@@V?$MapAllocator@U?$pair@$$CBUVariantKey@internal@protobuf@google@@PEAUNodeBase@234@@std@@@234@$0BAA@$0A@@container_internal@lts_20250814@absl@@@container_internal@lts_20250814@absl@@AEAU?$pair@$$CBUVariantKey@internal@protobuf@google@@PEAUNodeBase@234@@std@@PEAU56@@container_internal@lts_20250814@absl@@QEAA@XZ
	??0?$btree_map@HUExtension@ExtensionSet@internal@protobuf@google@@U?$less@H@std@@V?$allocator@U?$pair@$$CBHUExtension@ExtensionSet@internal@protobuf@google@@@std@@@7@@lts_20250814@absl@@QEAA@XZ
	??0?$btree_map@UVariantKey@internal@protobuf@google@@PEAUNodeBase@234@U?$less@UVariantKey@internal@protobuf@google@@@std@@V?$MapAllocator@U?$pair@$$CBUVariantKey@internal@protobuf@google@@PEAUNodeBase@234@@std@@@234@@lts_20250814@absl@@QEAA@AEBU?$less@UVariantKey@internal@protobuf@google@@@std@@AEBV?$MapAllocator@U?$pair@$$CBUVariantKey@internal@protobuf@google@@PEAUNodeBase@234@@std@@@internal@protobuf@google@@@Z
	??0?$btree_map_container@V?$btree@U?$map_params@HUExtension@ExtensionSet@internal@protobuf@google@@U?$less@H@std@@V?$allocator@U?$pair@$$CBHUExtension@ExtensionSet@internal@protobuf@google@@@std@@@7@$0BAA@$0A@@container_internal@lts_20250814@absl@@@container_internal@lts_20250814@absl@@@container_internal@lts_20250814@absl@@QEAA@XZ
	??0?$btree_map_container@V?$btree@U?$map_params@UVariantKey@internal@protobuf@google@@PEAUNodeBase@234@U?$less@UVariantKey@internal@protobuf@google@@@std@@V?$MapAllocator@U?$pair@$$CBUVariantKey@internal@protobuf@google@@PEAUNodeBase@234@@std@@@234@$0BAA@$0A@@container_internal@lts_20250814@absl@@@container_internal@lts_20250814@absl@@@container_internal@lts_20250814@absl@@QEAA@AEBU?$less@UVariantKey@internal@protobuf@google@@@std@@AEBV?$MapAllocator@U?$pair@$$CBUVariantKey@internal@protobuf@google@@PEAUNodeBase@234@@std@@@internal@protobuf@google@@@Z
	??0?$btree_set_container@V?$btree@U?$map_params@HUExtension@ExtensionSet@internal@protobuf@google@@U?$less@H@std@@V?$allocator@U?$pair@$$CBHUExtension@ExtensionSet@internal@protobuf@google@@@std@@@7@$0BAA@$0A@@container_internal@lts_20250814@absl@@@container_internal@lts_20250814@absl@@@container_internal@lts_20250814@absl@@QEAA@XZ
	??0?$btree_set_container@V?$btree@U?$map_params@UVariantKey@internal@protobuf@google@@PEAUNodeBase@234@U?$less@UVariantKey@internal@protobuf@google@@@std@@V?$MapAllocator@U?$pair@$$CBUVariantKey@internal@protobuf@google@@PEAUNodeBase@234@@std@@@234@$0BAA@$0A@@container_internal@lts_20250814@absl@@@container_internal@lts_20250814@absl@@@container_internal@lts_20250814@absl@@QEAA@AEBU?$less@UVariantKey@internal@protobuf@google@@@std@@AEBV?$MapAllocator@U?$pair@$$CBUVariantKey@internal@protobuf@google@@PEAUNodeBase@234@@std@@@internal@protobuf@google@@@Z
	??0?$checked_compare_base@U?$less@H@std@@$00@container_internal@lts_20250814@absl@@QEAA@U?$less@H@std@@@Z
	??0?$checked_compare_base@U?$less@UVariantKey@internal@protobuf@google@@@std@@$00@container_internal@lts_20250814@absl@@QEAA@U?$less@UVariantKey@internal@protobuf@google@@@std@@@Z
	??0?$fpos@U_Mbstatet@@@std@@QEAA@_J@Z
	??0?$initializer_list@PEAUArenaStringPtr@internal@protobuf@google@@@std@@QEAA@PEBQEAUArenaStringPtr@internal@protobuf@google@@0@Z
	??0?$initializer_list@V?$basic_string_view@DU?$char_traits@D@std@@@std@@@std@@QEAA@PEBV?$basic_string_view@DU?$char_traits@D@std@@@1@0@Z
	??0?$initializer_list@VFormatArgImpl@str_format_internal@lts_20250814@absl@@@std@@QEAA@PEBVFormatArgImpl@str_format_internal@lts_20250814@absl@@0@Z
	??0?$map@V?$basic_string_view@DU?$char_traits@D@std@@@std@@PEBVRealDebugCounter@internal@protobuf@google@@U?$less@V?$basic_string_view@DU?$char_traits@D@std@@@std@@@2@V?$allocator@U?$pair@$$CBV?$basic_string_view@DU?$char_traits@D@std@@@std@@PEBVRealDebugCounter@internal@protobuf@google@@@std@@@2@@std@@QEAA@XZ
	??0?$map@V?$basic_string_view@DU?$char_traits@D@std@@@std@@V?$map@V?$basic_string_view@DU?$char_traits@D@std@@@std@@PEBVRealDebugCounter@internal@protobuf@google@@U?$less@V?$basic_string_view@DU?$char_traits@D@std@@@std@@@2@V?$allocator@U?$pair@$$CBV?$basic_string_view@DU?$char_traits@D@std@@@std@@PEBVRealDebugCounter@internal@protobuf@google@@@std@@@2@@2@U?$less@V?$basic_string_view@DU?$char_traits@D@std@@@std@@@2@V?$allocator@U?$pair@$$CBV?$basic_string_view@DU?$char_traits@D@std@@@std@@V?$map@V?$basic_string_view@DU?$char_traits@D@std@@@std@@PEBVRealDebugCounter@internal@protobuf@google@@U?$less@V?$basic_string_view@DU?$char_traits@D@std@@@std@@@2@V?$allocator@U?$pair@$$CBV?$basic_string_view@DU?$char_traits@D@std@@@std@@PEBVRealDebugCounter@internal@protobuf@google@@@std@@@2@@2@@std@@@2@@std@@QEAA@XZ
	??0?$map_slot_type@HUExtension@ExtensionSet@internal@protobuf@google@@@container_internal@lts_20250814@absl@@QEAA@XZ
	??0?$map_slot_type@UVariantKey@internal@protobuf@google@@PEAUNodeBase@234@@container_internal@lts_20250814@absl@@QEAA@XZ
	??0?$optional@F@std@@QEAA@XZ
	??0?$optional@V?$basic_string_view@DU?$char_traits@D@std@@@std@@@std@@QEAA@Unullopt_t@1@@Z
	??0?$probe_seq@$0BA@@container_internal@lts_20250814@absl@@QEAA@_K0@Z
	??0?$reverse_iterator@PEAU?$atomic@PEAVSerialArena@internal@protobuf@google@@@std@@@std@@QEAA@PEAU?$atomic@PEAVSerialArena@internal@protobuf@google@@@1@@Z
	??0?$tuple@$$QEAUVariantKey@internal@protobuf@google@@@std@@QEAA@$$QEAV01@@Z
	??0?$tuple@$$V@std@@QEAA@AEBV01@@Z
	??0?$tuple@AEAPEAUNodeBase@internal@protobuf@google@@@std@@QEAA@$$QEAV01@@Z
	??0?$tuple@AEBV?$basic_string_view@DU?$char_traits@D@std@@@std@@@std@@QEAA@$$QEAV01@@Z
	??0?$upper_bound_adapter@Uchecked_compare@?$key_compare_adapter@U?$less@H@std@@H@container_internal@lts_20250814@absl@@@container_internal@lts_20250814@absl@@QEAA@AEBUchecked_compare@?$key_compare_adapter@U?$less@H@std@@H@123@@Z
	??0?$vector@HV?$allocator@H@std@@@std@@QEAA@XZ
	??0?$vector@IV?$allocator@I@std@@@std@@QEAA@$$QEAV01@@Z
	??0?$vector@IV?$allocator@I@std@@@std@@QEAA@XZ
	??0?$vector@IV?$allocator@I@std@@@std@@QEAA@_KAEBV?$allocator@I@1@@Z
	??0?$vector@PEAXV?$allocator@PEAX@std@@@std@@QEAA@$$QEAV01@@Z
	??0?$vector@PEAXV?$allocator@PEAX@std@@@std@@QEAA@XZ
	??0?$vector@U?$pair@P6AXPEBX@ZPEBX@std@@V?$allocator@U?$pair@P6AXPEBX@ZPEBX@std@@@2@@std@@QEAA@XZ
	??0?$vector@V?$basic_string@_WU?$char_traits@_W@std@@V?$allocator@_W@2@@std@@V?$allocator@V?$basic_string@_WU?$char_traits@_W@std@@V?$allocator@_W@2@@std@@@2@@std@@QEAA@XZ
	??0AllocationPolicy@internal@protobuf@google@@QEAA@XZ
	??0AlphaNum@lts_20250814@absl@@QEAA@PEBD@Z
	??0AlphaNum@lts_20250814@absl@@QEAA@V?$basic_string_view@DU?$char_traits@D@std@@@std@@@Z
	??0Arena@protobuf@google@@QEAA@AEBUArenaOptions@12@@Z
	??0Arena@protobuf@google@@QEAA@PEAD_K@Z
	??0Arena@protobuf@google@@QEAA@XZ
	??0ArenaBlock@internal@protobuf@google@@QEAA@PEAU0123@_K@Z
	??0ArenaStringPtr@internal@protobuf@google@@QEAA@PEAV?$ExplicitlyConstructed@V?$basic_string@DU?$char_traits@D@std@@V?$allocator@D@2@@std@@$07@123@UConstantInitialized@123@@Z
	??0ArenaStringPtr@internal@protobuf@google@@QEAA@PEAVArena@23@@Z
	??0ArenaStringPtr@internal@protobuf@google@@QEAA@PEAVArena@23@AEBU0123@@Z
	??0ArenaStringPtr@internal@protobuf@google@@QEAA@PEAVArena@23@AEBU0123@AEBVLazyString@123@@Z
	??0ArenaStringPtr@internal@protobuf@google@@QEAA@PEAVArena@23@AEBVLazyString@123@@Z
	??0ArrayInputStream@io@protobuf@google@@QEAA@PEBXHH@Z
	??0ArrayOutputStream@io@protobuf@google@@QEAA@PEAXHH@Z
	??0ByChar@lts_20250814@absl@@QEAA@D@Z
	??0CachedSize@internal@protobuf@google@@QEAA@AEBV0123@@Z
	??0CachedSize@internal@protobuf@google@@QEAA@H@Z
	??0CachedSize@internal@protobuf@google@@QEAA@XZ
	??0CharIterator@Cord@lts_20250814@absl@@AEAA@PEBV123@@Z
	??0ChunkIterator@Cord@lts_20250814@absl@@AEAA@PEBV123@@Z
	??0ChunkIterator@Cord@lts_20250814@absl@@QEAA@XZ
	??0ChunkList@cleanup@internal@protobuf@google@@QEAA@XZ
	??0ChunkRange@Cord@lts_20250814@absl@@QEAA@PEBV123@@Z
	??0ClassData@internal@protobuf@google@@QEAA@PEBVMessageLite@23@PEBUTcParseTableBase@123@P6AXAEAV423@AEAVArena@23@@ZP6A_NAEBV423@@ZP6AX25@ZVMessageCreator@123@I_N@Z
	??0ClassData@internal@protobuf@google@@QEAA@PEBVMessageLite@23@PEBUTcParseTableBase@123@P6AXAEAV423@AEAVArena@23@@ZP6A_NAEBV423@@ZP6AX25@ZVMessageCreator@123@P6AX2@ZP8423@EAAXXZP6A_K5@ZP6APEAE5PEAEPEAVEpsCopyOutputStream@io@23@@ZI_N@Z
	??0ClassDataFull@internal@protobuf@google@@QEAA@UClassData@123@PEBUDescriptorMethods@123@PEBUDescriptorTable@123@P6AXXZ@Z
	??0Closure@protobuf@google@@QEAA@XZ
	??0CodedInputStream@io@protobuf@google@@QEAA@PEAVZeroCopyInputStream@123@@Z
	??0CodedInputStream@io@protobuf@google@@QEAA@PEBEH@Z
	??0CodedOutputStreamFieldSkipper@internal@protobuf@google@@QEAA@AEBV0123@@Z
	??0CodedOutputStreamFieldSkipper@internal@protobuf@google@@QEAA@PEAVCodedOutputStream@io@23@@Z
	??0CommonFields@container_internal@lts_20250814@absl@@QEAA@Unon_soo_tag_t@123@@Z
	??0CommonFields@container_internal@lts_20250814@absl@@QEAA@Usoo_tag_t@123@@Z
	??0ConcatenatingInputStream@io@protobuf@google@@QEAA@QEBQEAVZeroCopyInputStream@123@H@Z
	??0ConvertibleToStringView@strings_internal@lts_20250814@absl@@QEAA@V?$basic_string_view@DU?$char_traits@D@std@@@std@@@Z
	??0CopyingFileInputStream@FileInputStream@io@protobuf@google@@QEAA@H@Z
	??0CopyingFileOutputStream@FileOutputStream@io@protobuf@google@@QEAA@H@Z
	??0CopyingInputStream@io@protobuf@google@@QEAA@AEBV0123@@Z
	??0CopyingInputStream@io@protobuf@google@@QEAA@XZ
	??0CopyingInputStreamAdaptor@io@protobuf@google@@QEAA@PEAVCopyingInputStream@123@H@Z
	??0CopyingIstreamInputStream@IstreamInputStream@io@protobuf@google@@QEAA@PEAV?$basic_istream@DU?$char_traits@D@std@@@std@@@Z
	??0CopyingOstreamOutputStream@OstreamOutputStream@io@protobuf@google@@QEAA@PEAV?$basic_ostream@DU?$char_traits@D@std@@@std@@@Z
	??0CopyingOutputStream@io@protobuf@google@@QEAA@AEBV0123@@Z
	??0CopyingOutputStream@io@protobuf@google@@QEAA@XZ
	??0CopyingOutputStreamAdaptor@io@protobuf@google@@QEAA@PEAVCopyingOutputStream@123@H@Z
	??0Cord@lts_20250814@absl@@QEAA@$$QEAV012@@Z
	??0Cord@lts_20250814@absl@@QEAA@XZ
	??0CordBuffer@lts_20250814@absl@@AEAA@PEAUCordRepFlat@cord_internal@12@@Z
	??0CordBuffer@lts_20250814@absl@@QEAA@$$QEAV012@@Z
	??0CordBuffer@lts_20250814@absl@@QEAA@XZ
	??0CordInputStream@io@protobuf@google@@QEAA@PEBVCord@lts_20250814@absl@@@Z
	??0CordOutputStream@io@protobuf@google@@QEAA@VCord@lts_20250814@absl@@VCordBuffer@56@_K@Z
	??0CordOutputStream@io@protobuf@google@@QEAA@VCord@lts_20250814@absl@@_K@Z
	??0CordOutputStream@io@protobuf@google@@QEAA@VCordBuffer@lts_20250814@absl@@_K@Z
	??0CordOutputStream@io@protobuf@google@@QEAA@_K@Z
	??0CordRep@cord_internal@lts_20250814@absl@@QEAA@XZ
	??0CordRepBtreeNavigator@cord_internal@lts_20250814@absl@@QEAA@XZ
	??0CordRepBtreeReader@cord_internal@lts_20250814@absl@@QEAA@XZ
	??0CordRepFlat@cord_internal@lts_20250814@absl@@QEAA@XZ
	??0Data@ParseContext@internal@protobuf@google@@QEAA@XZ
	??0EpsCopyInputStream@internal@protobuf@google@@QEAA@_N@Z
	??0EpsCopyOutputStream@io@protobuf@google@@QEAA@PEAVZeroCopyOutputStream@123@_NPEAPEAE@Z
	??0EpsCopyOutputStream@io@protobuf@google@@QEAA@PEAXHPEAVZeroCopyOutputStream@123@_NPEAPEAE@Z
	??0EpsCopyOutputStream@io@protobuf@google@@QEAA@PEAXH_N@Z
	??0ExtensionInfo@internal@protobuf@google@@QEAA@PEBVMessageLite@23@HE_N1@Z
	??0ExtensionInfo@internal@protobuf@google@@QEAA@PEBVMessageLite@23@HE_N1P6APEBDPEBDPEAVParseContext@123@@ZW4LazyAnnotation@123@@Z
	??0ExtensionInfo@internal@protobuf@google@@QEAA@XZ
	??0ExtensionSet@internal@protobuf@google@@QEAA@PEAVArena@23@@Z
	??0ExtensionSet@internal@protobuf@google@@QEAA@UArenaInitialized@123@PEAVArena@23@@Z
	??0ExtensionSet@internal@protobuf@google@@QEAA@VInternalVisibility@123@PEAVArena@23@@Z
	??0ExtensionSet@internal@protobuf@google@@QEAA@XZ
	??0FieldAux@TcParseTableBase@internal@protobuf@google@@QEAA@XZ
	??0FieldSkipper@internal@protobuf@google@@QEAA@AEBV0123@@Z
	??0FieldSkipper@internal@protobuf@google@@QEAA@XZ
	??0FileInputStream@io@protobuf@google@@QEAA@HH@Z
	??0FileOutputStream@io@protobuf@google@@QEAA@HH@Z
	??0FunctionClosure0@internal@protobuf@google@@QEAA@P6AXXZ_N@Z
	??0GeneratedExtensionFinder@internal@protobuf@google@@QEAA@PEBVMessageLite@23@@Z
	??0GroupSse2Impl@container_internal@lts_20250814@absl@@QEAA@PEBW4ctrl_t@123@@Z
	??0HashSetIteratorGenerationInfoDisabled@container_internal@lts_20250814@absl@@QEAA@PEBE@Z
	??0HashtableSize@container_internal@lts_20250814@absl@@QEAA@Uno_seed_empty_tag_t@123@@Z
	??0Hex@lts_20250814@absl@@AEAA@W4PadSpec@12@_K@Z
	??0ImplicitWeakMessage@internal@protobuf@google@@QEAA@PEAVArena@23@@Z
	??0ImplicitWeakMessage@internal@protobuf@google@@QEAA@UConstantInitialized@123@@Z
	??0ImplicitWeakMessage@internal@protobuf@google@@QEAA@VInternalVisibility@123@PEAVArena@23@@Z
	??0ImplicitWeakMessage@internal@protobuf@google@@QEAA@XZ
	??0InlineData@cord_internal@lts_20250814@absl@@QEAA@AEBV0123@@Z
	??0InlineData@cord_internal@lts_20250814@absl@@QEAA@XZ
	??0InlineRep@Cord@lts_20250814@absl@@QEAA@$$QEAV0123@@Z
	??0InlineRep@Cord@lts_20250814@absl@@QEAA@XZ
	??0InlinedStringField@internal@protobuf@google@@QEAA@AEBV?$basic_string@DU?$char_traits@D@std@@V?$allocator@D@2@@std@@@Z
	??0InlinedStringField@internal@protobuf@google@@QEAA@PEAVArena@23@@Z
	??0InlinedStringField@internal@protobuf@google@@QEAA@PEAVArena@23@AEBV0123@@Z
	??0InlinedStringField@internal@protobuf@google@@QEAA@PEBV?$ExplicitlyConstructed@V?$basic_string@DU?$char_traits@D@std@@V?$allocator@D@2@@std@@$00@123@_N@Z
	??0InlinedStringField@internal@protobuf@google@@QEAA@XZ
	??0InternalMetadata@internal@protobuf@google@@QEAA@PEAVArena@23@@Z
	??0InternalMetadata@internal@protobuf@google@@QEAA@XZ
	??0InternalVisibility@internal@protobuf@google@@AEAA@XZ
	??0IstreamInputStream@io@protobuf@google@@QEAA@PEAV?$basic_istream@DU?$char_traits@D@std@@@std@@H@Z
	??0LazyMessageExtension@ExtensionSet@internal@protobuf@google@@QEAA@XZ
	??0LazyString@internal@protobuf@google@@QEAA@XZ
	??0LimitToken@EpsCopyInputStream@internal@protobuf@google@@QEAA@$$QEAV01234@@Z
	??0LimitToken@EpsCopyInputStream@internal@protobuf@google@@QEAA@H@Z
	??0LimitToken@EpsCopyInputStream@internal@protobuf@google@@QEAA@XZ
	??0LimitingInputStream@io@protobuf@google@@QEAA@PEAVZeroCopyInputStream@123@_J@Z
	??0LiteUnknownFieldSetter@internal@protobuf@google@@QEAA@AEBV0123@@Z
	??0LiteUnknownFieldSetter@internal@protobuf@google@@QEAA@PEAVInternalMetadata@123@@Z
	??0Long@Rep@CordBuffer@lts_20250814@absl@@QEAA@PEAUCordRepFlat@cord_internal@34@@Z
	??0MessageLite@protobuf@google@@IEAA@PEAVArena@12@@Z
	??0MessageLite@protobuf@google@@IEAA@PEAVArena@12@PEBUClassData@internal@12@@Z
	??0MessageLite@protobuf@google@@IEAA@PEBUClassData@internal@12@@Z
	??0MessageLite@protobuf@google@@IEAA@XZ
	??0Mutex@lts_20250814@absl@@QEAA@XZ
	??0MutexLock@lts_20250814@absl@@QEAA@AEAVMutex@12@@Z
	??0MutexLock@lts_20250814@absl@@QEAA@PEAVMutex@12@@Z
	??0OstreamOutputStream@io@protobuf@google@@QEAA@PEAV?$basic_ostream@DU?$char_traits@D@std@@@std@@H@Z
	??0PerTableSeed@container_internal@lts_20250814@absl@@AEAA@G@Z
	??0RawHashSetLayout@container_internal@lts_20250814@absl@@QEAA@_K00_N@Z
	??0RealDebugCounter@internal@protobuf@google@@QEAA@V?$basic_string_view@DU?$char_traits@D@std@@@std@@@Z
	??0RefcountAndFlags@cord_internal@lts_20250814@absl@@QEAA@XZ
	??0Rep@CordBuffer@lts_20250814@absl@@QEAA@PEAUCordRepFlat@cord_internal@23@@Z
	??0Rep@CordBuffer@lts_20250814@absl@@QEAA@XZ
	??0Rep@InlineData@cord_internal@lts_20250814@absl@@QEAA@XZ
	??0RepeatedPrimitiveDefaults@internal@protobuf@google@@QEAA@$$QEAV0123@@Z
	??0RepeatedPrimitiveDefaults@internal@protobuf@google@@QEAA@AEBV0123@@Z
	??0RepeatedPrimitiveDefaults@internal@protobuf@google@@QEAA@XZ
	??0RepeatedPtrFieldBase@internal@protobuf@google@@IEAA@PEAVArena@23@@Z
	??0RepeatedPtrFieldBase@internal@protobuf@google@@IEAA@XZ
	??0ScopedCheckInvariants@InlinedStringField@internal@protobuf@google@@QEAA@PEBV1234@@Z
	??0SerialArena@internal@protobuf@google@@AEAA@AEAVThreadSafeArena@123@@Z
	??0SerialArena@internal@protobuf@google@@AEAA@PEAUArenaBlock@123@AEAVThreadSafeArena@123@@Z
	??0SerialArena@internal@protobuf@google@@AEAA@UFirstSerialArena@123@PEAUArenaBlock@123@AEAVThreadSafeArena@123@@Z
	??0SerialArenaChunk@ThreadSafeArena@internal@protobuf@google@@QEAA@IPEAXPEAVSerialArena@234@@Z
	??0SerialArenaChunkHeader@internal@protobuf@google@@QEAA@II@Z
	??0ShortSooRep@internal@protobuf@google@@QEAA@PEAVArena@23@@Z
	??0ShortSooRep@internal@protobuf@google@@QEAA@XZ
	??0ShutdownData@internal@protobuf@google@@QEAA@XZ
	??0SooRep@internal@protobuf@google@@QEAA@PEAVArena@23@@Z
	??0SooRep@internal@protobuf@google@@QEAA@XZ
	??0StringBlock@internal@protobuf@google@@AEAA@PEAV0123@_NGG@Z
	??0StringOutputStream@io@protobuf@google@@QEAA@PEAV?$basic_string@DU?$char_traits@D@std@@V?$allocator@D@2@@std@@@Z
	??0StringifySink@strings_internal@lts_20250814@absl@@QEAA@XZ
	??0TaggedAllocationPolicyPtr@internal@protobuf@google@@QEAA@XZ
	??0TaggedStringPtr@internal@protobuf@google@@QEAA@PEAV?$ExplicitlyConstructed@V?$basic_string@DU?$char_traits@D@std@@V?$allocator@D@2@@std@@$07@123@@Z
	??0TcFieldData@internal@protobuf@google@@QEAA@UDefaultInit@0123@@Z
	??0TcFieldData@internal@protobuf@google@@QEAA@XZ
	??0ThreadSafeArena@internal@protobuf@google@@QEAA@PEAD_K@Z
	??0ThreadSafeArena@internal@protobuf@google@@QEAA@PEAX_KAEBUAllocationPolicy@123@@Z
	??0ThreadSafeArena@internal@protobuf@google@@QEAA@XZ
	??0ThreadSafeArenaStatsHandle@internal@protobuf@google@@QEAA@PEAUThreadSafeArenaStats@123@@Z
	??0TypeId@protobuf@google@@AEAA@PEBUClassData@internal@12@@Z
	??0UnknownFieldLiteParserHelper@internal@protobuf@google@@QEAA@PEAV?$basic_string@DU?$char_traits@D@std@@V?$allocator@D@2@@std@@@Z
	??0UntypedFormatSpec@lts_20250814@absl@@QEAA@V?$basic_string_view@DU?$char_traits@D@std@@@std@@@Z
	??0UntypedFormatSpecImpl@str_format_internal@lts_20250814@absl@@QEAA@V?$basic_string_view@DU?$char_traits@D@std@@@std@@@Z
	??0UntypedMapBase@internal@protobuf@google@@QEAA@PEAVArena@23@@Z
	??0VariantKey@internal@protobuf@google@@QEAA@V?$basic_string_view@DU?$char_traits@D@std@@@std@@@Z
	??0VariantKey@internal@protobuf@google@@QEAA@_K@Z
	??0ZeroCopyCodedInputStream@protobuf@google@@QEAA@PEAVCodedInputStream@io@12@@Z
	??0ZeroCopyInputStream@io@protobuf@google@@QEAA@XZ
	??0ZeroCopyOutputStream@io@protobuf@google@@QEAA@XZ
	??0_Bxty@?$_String_val@U?$_Simple_types@D@std@@@std@@QEAA@XZ
	??0_Bxty@?$_String_val@U?$_Simple_types@_W@std@@@std@@QEAA@XZ
	??0_Fake_proxy_ptr_impl@std@@QEAA@AEBU_Fake_allocator@1@AEBU_Container_base0@1@@Z
	??0_Nontrivial_dummy_type@std@@QEAA@XZ
	??0_Sentry_base@?$basic_ostream@DU?$char_traits@D@std@@@std@@QEAA@AEAV12@@Z
	??0_Sentry_base@?$basic_ostream@_WU?$char_traits@_W@std@@@std@@QEAA@AEAV12@@Z
	??0bad_alloc@std@@AEAA@QEBD@Z
	??0bad_alloc@std@@QEAA@AEBV01@@Z
	??0bad_array_new_length@std@@QEAA@AEBV01@@Z
	??0bad_array_new_length@std@@QEAA@XZ
	??0btree_iterator_generation_info_disabled@container_internal@lts_20250814@absl@@QEAA@I@Z
	??0checked_compare@?$key_compare_adapter@U?$less@H@std@@H@container_internal@lts_20250814@absl@@QEAA@U?$less@H@std@@@Z
	??0checked_compare@?$key_compare_adapter@U?$less@UVariantKey@internal@protobuf@google@@@std@@UVariantKey@internal@protobuf@google@@@container_internal@lts_20250814@absl@@QEAA@U?$less@UVariantKey@internal@protobuf@google@@@std@@@Z
	??0exception@std@@QEAA@AEBV01@@Z
	??0exception@std@@QEAA@QEBDH@Z
	??0sentry@?$basic_ostream@DU?$char_traits@D@std@@@std@@QEAA@AEAV12@@Z
	??0sentry@?$basic_ostream@_WU?$char_traits@_W@std@@@std@@QEAA@AEAV12@@Z
	??1?$Container@V?$basic_string@DU?$char_traits@D@std@@V?$allocator@D@2@@std@@@InternalMetadata@internal@protobuf@google@@QEAA@XZ
	??1?$RepeatedField@H@protobuf@google@@QEAA@XZ
	??1?$RepeatedField@I@protobuf@google@@QEAA@XZ
	??1?$RepeatedField@M@protobuf@google@@QEAA@XZ
	??1?$RepeatedField@N@protobuf@google@@QEAA@XZ
	??1?$RepeatedField@_J@protobuf@google@@QEAA@XZ
	??1?$RepeatedField@_K@protobuf@google@@QEAA@XZ
	??1?$RepeatedField@_N@protobuf@google@@QEAA@XZ
	??1?$RepeatedPtrField@V?$basic_string@DU?$char_traits@D@std@@V?$allocator@D@2@@std@@@protobuf@google@@QEAA@XZ
	??1?$RepeatedPtrField@VMessageLite@protobuf@google@@@protobuf@google@@QEAA@XZ
	??1?$_Alloc_construct_ptr@V?$allocator@U?$_Tree_node@U?$pair@$$CBV?$basic_string_view@DU?$char_traits@D@std@@@std@@PEBVRealDebugCounter@internal@protobuf@google@@@std@@PEAX@std@@@std@@@std@@QEAA@XZ
	??1?$_Alloc_construct_ptr@V?$allocator@U?$_Tree_node@U?$pair@$$CBV?$basic_string_view@DU?$char_traits@D@std@@@std@@V?$map@V?$basic_string_view@DU?$char_traits@D@std@@@std@@PEBVRealDebugCounter@internal@protobuf@google@@U?$less@V?$basic_string_view@DU?$char_traits@D@std@@@std@@@2@V?$allocator@U?$pair@$$CBV?$basic_string_view@DU?$char_traits@D@std@@@std@@PEBVRealDebugCounter@internal@protobuf@google@@@std@@@2@@2@@std@@PEAX@std@@@std@@@std@@QEAA@XZ
	??1?$_Compressed_pair@V?$allocator@D@std@@V?$_String_val@U?$_Simple_types@D@std@@@2@$00@std@@QEAA@XZ
	??1?$_Compressed_pair@V?$allocator@_W@std@@V?$_String_val@U?$_Simple_types@_W@std@@@2@$00@std@@QEAA@XZ
	??1?$_Func_class@XAEBV?$basic_string@DU?$char_traits@D@std@@V?$allocator@D@2@@std@@@std@@QEAA@XZ
	??1?$_String_val@U?$_Simple_types@D@std@@@std@@QEAA@XZ
	??1?$_String_val@U?$_Simple_types@_W@std@@@std@@QEAA@XZ
	??1?$_Tidy_guard@V?$vector@IV?$allocator@I@std@@@std@@@std@@QEAA@XZ
	??1?$_Tree@V?$_Tmap_traits@V?$basic_string_view@DU?$char_traits@D@std@@@std@@PEBVRealDebugCounter@internal@protobuf@google@@U?$less@V?$basic_string_view@DU?$char_traits@D@std@@@std@@@2@V?$allocator@U?$pair@$$CBV?$basic_string_view@DU?$char_traits@D@std@@@std@@PEBVRealDebugCounter@internal@protobuf@google@@@std@@@2@$0A@@std@@@std@@QEAA@XZ
	??1?$_Tree@V?$_Tmap_traits@V?$basic_string_view@DU?$char_traits@D@std@@@std@@V?$map@V?$basic_string_view@DU?$char_traits@D@std@@@std@@PEBVRealDebugCounter@internal@protobuf@google@@U?$less@V?$basic_string_view@DU?$char_traits@D@std@@@std@@@2@V?$allocator@U?$pair@$$CBV?$basic_string_view@DU?$char_traits@D@std@@@std@@PEBVRealDebugCounter@internal@protobuf@google@@@std@@@2@@2@U?$less@V?$basic_string_view@DU?$char_traits@D@std@@@std@@@2@V?$allocator@U?$pair@$$CBV?$basic_string_view@DU?$char_traits@D@std@@@std@@V?$map@V?$basic_string_view@DU?$char_traits@D@std@@@std@@PEBVRealDebugCounter@internal@protobuf@google@@U?$less@V?$basic_string_view@DU?$char_traits@D@std@@@std@@@2@V?$allocator@U?$pair@$$CBV?$basic_string_view@DU?$char_traits@D@std@@@std@@PEBVRealDebugCounter@internal@protobuf@google@@@std@@@2@@2@@std@@@2@$0A@@std@@@std@@QEAA@XZ
	??1?$_Tree_temp_node@V?$allocator@U?$_Tree_node@U?$pair@$$CBV?$basic_string_view@DU?$char_traits@D@std@@@std@@PEBVRealDebugCounter@internal@protobuf@google@@@std@@PEAX@std@@@std@@@std@@QEAA@XZ
	??1?$_Tree_temp_node@V?$allocator@U?$_Tree_node@U?$pair@$$CBV?$basic_string_view@DU?$char_traits@D@std@@@std@@V?$map@V?$basic_string_view@DU?$char_traits@D@std@@@std@@PEBVRealDebugCounter@internal@protobuf@google@@U?$less@V?$basic_string_view@DU?$char_traits@D@std@@@std@@@2@V?$allocator@U?$pair@$$CBV?$basic_string_view@DU?$char_traits@D@std@@@std@@PEBVRealDebugCounter@internal@protobuf@google@@@std@@@2@@2@@std@@PEAX@std@@@std@@@std@@QEAA@XZ
	??1?$_Tree_temp_node_alloc@V?$allocator@U?$_Tree_node@U?$pair@$$CBV?$basic_string_view@DU?$char_traits@D@std@@@std@@PEBVRealDebugCounter@internal@protobuf@google@@@std@@PEAX@std@@@std@@@std@@QEAA@XZ
	??1?$_Tree_temp_node_alloc@V?$allocator@U?$_Tree_node@U?$pair@$$CBV?$basic_string_view@DU?$char_traits@D@std@@@std@@V?$map@V?$basic_string_view@DU?$char_traits@D@std@@@std@@PEBVRealDebugCounter@internal@protobuf@google@@U?$less@V?$basic_string_view@DU?$char_traits@D@std@@@std@@@2@V?$allocator@U?$pair@$$CBV?$basic_string_view@DU?$char_traits@D@std@@@std@@PEBVRealDebugCounter@internal@protobuf@google@@@std@@@2@@2@@std@@PEAX@std@@@std@@@std@@QEAA@XZ
	??1?$_Uninitialized_backout_al@V?$allocator@H@std@@@std@@QEAA@XZ
	??1?$_Uninitialized_backout_al@V?$allocator@I@std@@@std@@QEAA@XZ
	??1?$_Uninitialized_backout_al@V?$allocator@PEAX@std@@@std@@QEAA@XZ
	??1?$_Uninitialized_backout_al@V?$allocator@U?$pair@P6AXPEBX@ZPEBX@std@@@std@@@std@@QEAA@XZ
	??1?$_Uninitialized_backout_al@V?$allocator@V?$basic_string@_WU?$char_traits@_W@std@@V?$allocator@_W@2@@std@@@std@@@std@@QEAA@XZ
	??1?$basic_ostringstream@DU?$char_traits@D@std@@V?$allocator@D@2@@std@@UEAA@XZ
	??1?$basic_string@DU?$char_traits@D@std@@V?$allocator@D@2@@std@@QEAA@XZ
	??1?$basic_string@_WU?$char_traits@_W@std@@V?$allocator@_W@2@@std@@QEAA@XZ
	??1?$basic_stringbuf@DU?$char_traits@D@std@@V?$allocator@D@2@@std@@UEAA@XZ
	??1?$basic_stringbuf@_WU?$char_traits@_W@std@@V?$allocator@_W@2@@std@@UEAA@XZ
	??1?$basic_stringstream@_WU?$char_traits@_W@std@@V?$allocator@_W@2@@std@@UEAA@XZ
	??1?$btree@U?$map_params@HUExtension@ExtensionSet@internal@protobuf@google@@U?$less@H@std@@V?$allocator@U?$pair@$$CBHUExtension@ExtensionSet@internal@protobuf@google@@@std@@@7@$0BAA@$0A@@container_internal@lts_20250814@absl@@@container_internal@lts_20250814@absl@@QEAA@XZ
	??1?$btree@U?$map_params@UVariantKey@internal@protobuf@google@@PEAUNodeBase@234@U?$less@UVariantKey@internal@protobuf@google@@@std@@V?$MapAllocator@U?$pair@$$CBUVariantKey@internal@protobuf@google@@PEAUNodeBase@234@@std@@@234@$0BAA@$0A@@container_internal@lts_20250814@absl@@@container_internal@lts_20250814@absl@@QEAA@XZ
	??1?$btree_container@V?$btree@U?$map_params@HUExtension@ExtensionSet@internal@protobuf@google@@U?$less@H@std@@V?$allocator@U?$pair@$$CBHUExtension@ExtensionSet@internal@protobuf@google@@@std@@@7@$0BAA@$0A@@container_internal@lts_20250814@absl@@@container_internal@lts_20250814@absl@@@container_internal@lts_20250814@absl@@QEAA@XZ
	??1?$btree_container@V?$btree@U?$map_params@UVariantKey@internal@protobuf@google@@PEAUNodeBase@234@U?$less@UVariantKey@internal@protobuf@google@@@std@@V?$MapAllocator@U?$pair@$$CBUVariantKey@internal@protobuf@google@@PEAUNodeBase@234@@std@@@234@$0BAA@$0A@@container_internal@lts_20250814@absl@@@container_internal@lts_20250814@absl@@@container_internal@lts_20250814@absl@@QEAA@XZ
	??1?$btree_map@HUExtension@ExtensionSet@internal@protobuf@google@@U?$less@H@std@@V?$allocator@U?$pair@$$CBHUExtension@ExtensionSet@internal@protobuf@google@@@std@@@7@@lts_20250814@absl@@QEAA@XZ
	??1?$btree_map@UVariantKey@internal@protobuf@google@@PEAUNodeBase@234@U?$less@UVariantKey@internal@protobuf@google@@@std@@V?$MapAllocator@U?$pair@$$CBUVariantKey@internal@protobuf@google@@PEAUNodeBase@234@@std@@@234@@lts_20250814@absl@@QEAA@XZ
	??1?$btree_map_container@V?$btree@U?$map_params@HUExtension@ExtensionSet@internal@protobuf@google@@U?$less@H@std@@V?$allocator@U?$pair@$$CBHUExtension@ExtensionSet@internal@protobuf@google@@@std@@@7@$0BAA@$0A@@container_internal@lts_20250814@absl@@@container_internal@lts_20250814@absl@@@container_internal@lts_20250814@absl@@QEAA@XZ
	??1?$btree_map_container@V?$btree@U?$map_params@UVariantKey@internal@protobuf@google@@PEAUNodeBase@234@U?$less@UVariantKey@internal@protobuf@google@@@std@@V?$MapAllocator@U?$pair@$$CBUVariantKey@internal@protobuf@google@@PEAUNodeBase@234@@std@@@234@$0BAA@$0A@@container_internal@lts_20250814@absl@@@container_internal@lts_20250814@absl@@@container_internal@lts_20250814@absl@@QEAA@XZ
