EXPORTS 
	?$TSS0@?1??CrcAndCopy@CrcMemcpy@crc_internal@lts_20250814@absl@@SA?AVcrc32c_t@45@PEIAXPEIBX_KV645@_N@Z@4HA 	 DATA
	??_R0?AV?$_Func_base@V?$unique_ptr@VZoneInfoSource@cctz@time_internal@lts_20250814@absl@@U?$default_delete@VZoneInfoSource@cctz@time_internal@lts_20250814@absl@@@std@@@std@@AEBV?$basic_string@DU?$char_traits@D@std@@V?$allocator@D@2@@2@@std@@@8 	 DATA
	??_R0?AV?$_Func_base@XAEBUHashtablezInfo@container_internal@lts_20250814@absl@@@std@@@8 	 DATA
	??_R0?AV?$_Iosb@H@std@@@8 	 DATA
	??_R0?AV?$basic_filebuf@DU?$char_traits@D@std@@@std@@@8 	 DATA
	??_R0?AV?$basic_ifstream@DU?$char_traits@D@std@@@std@@@8 	 DATA
	??_R0?AV?$basic_ios@DU?$char_traits@D@std@@@std@@@8 	 DATA
	??_R0?AV?$basic_iostream@DU?$char_traits@D@std@@@std@@@8 	 DATA
	??_R0?AV?$basic_istream@DU?$char_traits@D@std@@@std@@@8 	 DATA
	??_R0?AV?$basic_istringstream@DU?$char_traits@D@std@@V?$allocator@D@2@@std@@@8 	 DATA
	??_R0?AV?$basic_ostream@DU?$char_traits@D@std@@@std@@@8 	 DATA
	??_R0?AV?$basic_ostringstream@DU?$char_traits@D@std@@V?$allocator@D@2@@std@@@8 	 DATA
	??_R0?AV?$basic_streambuf@DU?$char_traits@D@std@@@std@@@8 	 DATA
	??_R0?AV?$basic_stringbuf@DU?$char_traits@D@std@@V?$allocator@D@2@@std@@@8 	 DATA
	??_R0?AV?$basic_stringstream@DU?$char_traits@D@std@@V?$allocator@D@2@@std@@@8 	 DATA
	??_R0?AVBadStatusOrAccess@lts_20250814@absl@@@8 	 DATA
	??_R0?AVCRC32@crc_internal@lts_20250814@absl@@@8 	 DATA
	??_R0?AVCRC@crc_internal@lts_20250814@absl@@@8 	 DATA
	??_R0?AVCRCImpl@crc_internal@lts_20250814@absl@@@8 	 DATA
	??_R0?AVCordzHandle@cord_internal@lts_20250814@absl@@@8 	 DATA
	??_R0?AVCordzInfo@cord_internal@lts_20250814@absl@@@8 	 DATA
	??_R0?AVCrcMemcpyEngine@crc_internal@lts_20250814@absl@@@8 	 DATA
	??_R0?AVFallbackCrcMemcpyEngine@crc_internal@lts_20250814@absl@@@8 	 DATA
	??_R0?AVLogSink@lts_20250814@absl@@@8 	 DATA
	??_R0?AVOstreamView@LogMessage@log_internal@lts_20250814@absl@@@8 	 DATA
	??_R0?AVSeedGenException@lts_20250814@absl@@@8 	 DATA
	??_R0?AVTimeZoneIf@cctz@time_internal@lts_20250814@absl@@@8 	 DATA
	??_R0?AVTimeZoneInfo@cctz@time_internal@lts_20250814@absl@@@8 	 DATA
	??_R0?AVTimeZoneLibC@cctz@time_internal@lts_20250814@absl@@@8 	 DATA
	??_R0?AVZoneInfoSource@cctz@time_internal@lts_20250814@absl@@@8 	 DATA
	??_R0?AVbad_alloc@std@@@8 	 DATA
	??_R0?AVbad_array_new_length@std@@@8 	 DATA
	??_R0?AVbad_cast@std@@@8 	 DATA
	??_R0?AVbad_function_call@std@@@8 	 DATA
	??_R0?AVbad_optional_access@std@@@8 	 DATA
	??_R0?AVbad_variant_access@std@@@8 	 DATA
	??_R0?AVdomain_error@std@@@8 	 DATA
	??_R0?AVexception@std@@@8 	 DATA
	??_R0?AVinvalid_argument@std@@@8 	 DATA
	??_R0?AVios_base@std@@@8 	 DATA
	??_R0?AVlength_error@std@@@8 	 DATA
	??_R0?AVlogic_error@std@@@8 	 DATA
	??_R0?AVout_of_range@std@@@8 	 DATA
	??_R0?AVoverflow_error@std@@@8 	 DATA
	??_R0?AVrange_error@std@@@8 	 DATA
	??_R0?AVruntime_error@std@@@8 	 DATA
	??_R0?AVunderflow_error@std@@@8 	 DATA
	??__J?1??NextSeed@container_internal@lts_20250814@absl@@YAGXZ@51 	 DATA
	?_OptionsStorage@?1??__local_stdio_printf_options@@9@4_KA 	 DATA
	?_Psave@?$_Facetptr@V?$codecvt@DDU_Mbstatet@@@std@@@std@@2PEBVfacet@locale@2@EB 	 DATA
	?_Psave@?$_Facetptr@V?$time_get@DV?$istreambuf_iterator@DU?$char_traits@D@std@@@std@@@std@@@std@@2PEBVfacet@locale@2@EB 	 DATA
	?_Stinit@?1??_Init@?$basic_filebuf@DU?$char_traits@D@std@@@std@@IEAAXPEAU_iobuf@@W4_Initfl@23@@Z@4U_Mbstatet@@A 	 DATA
	?cycle_clock_source_@CycleClock@base_internal@lts_20250814@absl@@0U?$atomic@P6A_JXZ@std@@A 	 DATA
	?default_factory@cctz_extension@time_internal@lts_20250814@absl@@3P6A?AV?$unique_ptr@VZoneInfoSource@cctz@time_internal@lts_20250814@absl@@U?$default_delete@VZoneInfoSource@cctz@time_internal@lts_20250814@absl@@@std@@@std@@AEBV?$basic_string@DU?$char_traits@D@std@@V?$allocator@D@2@@6@AEBV?$function@$$A6A?AV?$unique_ptr@VZoneInfoSource@cctz@time_internal@lts_20250814@absl@@U?$default_delete@VZoneInfoSource@cctz@time_internal@lts_20250814@absl@@@std@@@std@@AEBV?$basic_string@DU?$char_traits@D@std@@V?$allocator@D@2@@2@@Z@6@@ZEA 	 DATA
	?engines@?1??CrcAndCopy@CrcMemcpy@crc_internal@lts_20250814@absl@@SA?AVcrc32c_t@45@PEIAXPEIBX_KV645@_N@Z@4UArchSpecificEngines@2345@B 	 DATA
	?global_list_@CordzInfo@cord_internal@lts_20250814@absl@@0UList@1234@A 	 DATA
	?internal_log_function@raw_log_internal@lts_20250814@absl@@3V?$AtomicHook@P6AXW4LogSeverity@lts_20250814@absl@@PEBDHAEBV?$basic_string@DU?$char_traits@D@std@@V?$allocator@D@2@@std@@@Z@base_internal@23@A 	 DATA
	?kDefaultIterControl@container_internal@lts_20250814@absl@@3W4ctrl_t@123@A 	 DATA
	?seed@?1??NextSeed@container_internal@lts_20250814@absl@@YAGXZ@4GA 	 DATA
	?shallow_subcords_enabled@cord_internal@lts_20250814@absl@@3U?$atomic@_N@std@@A 	 DATA
	?thread_identity_ptr@base_internal@lts_20250814@absl@@3PEAUThreadIdentity@123@EA 	 DATA
	_Avx2WmemEnabledWeakValue 	 DATA
	??$<move>@AEAU?$pair@V?$btree_iterator@V?$btree_node@U?$map_params@_K_KU?$less@_K@std@@V?$allocator@U?$pair@$$CB_K_K@std@@@2@$0BAA@$0A@@container_internal@lts_20250814@absl@@@container_internal@lts_20250814@absl@@AEAU?$pair@$$CB_K_K@std@@PEAU56@@container_internal@lts_20250814@absl@@_N@std@@@@YA$$QEAU?$pair@V?$btree_iterator@V?$btree_node@U?$map_params@_K_KU?$less@_K@std@@V?$allocator@U?$pair@$$CB_K_K@std@@@2@$0BAA@$0A@@container_internal@lts_20250814@absl@@@container_internal@lts_20250814@absl@@AEAU?$pair@$$CB_K_K@std@@PEAU56@@container_internal@lts_20250814@absl@@_N@std@@AEAU01@@Z
	??$?0$$CBD$0A@@VoidPtr@str_format_internal@lts_20250814@absl@@QEAA@PEBD@Z
	??$?0$$CBU?$atomic@_N@std@@@Condition@lts_20250814@absl@@QEAA@P6A_NPEBU?$atomic@_N@std@@@Z0@Z
	??$?0$$CBUCordRep@cord_internal@lts_20250814@absl@@@Hex@lts_20250814@absl@@QEAA@PEBUCordRep@cord_internal@12@W4PadSpec@12@@Z
	??$?0$$CBVFormatArgImpl@str_format_internal@lts_20250814@absl@@$$CBV0123@@?$Span@$$CBVFormatArgImpl@str_format_internal@lts_20250814@absl@@@lts_20250814@absl@@QEAA@V?$initializer_list@VFormatArgImpl@str_format_internal@lts_20250814@absl@@@std@@@Z
	??$?0$$CB_W$0A@@VoidPtr@str_format_internal@lts_20250814@absl@@QEAA@PEB_W@Z
	??$?0$$QEA_K$$Z$$QEAW4LocationId@debugging_internal@lts_20250814@absl@@@?$pair@$$CB_KW4LocationId@debugging_internal@lts_20250814@absl@@@std@@QEAA@Upiecewise_construct_t@1@V?$tuple@$$QEA_K@1@V?$tuple@$$QEAW4LocationId@debugging_internal@lts_20250814@absl@@@1@@Z
	??$?0$$QEA_K$$Z$$QEAW4LocationId@debugging_internal@lts_20250814@absl@@@?$pair@V?$tuple@$$QEA_K@std@@V?$tuple@$$QEAW4LocationId@debugging_internal@lts_20250814@absl@@@2@@std@@QEAA@Upiecewise_construct_t@1@V?$tuple@$$QEA_K@1@V?$tuple@$$QEAW4LocationId@debugging_internal@lts_20250814@absl@@@1@@Z
	??$?0$$QEA_K$$Z$$QEAW4LocationId@debugging_internal@lts_20250814@absl@@@?$pair@_KW4LocationId@debugging_internal@lts_20250814@absl@@@std@@QEAA@Upiecewise_construct_t@1@V?$tuple@$$QEA_K@1@V?$tuple@$$QEAW4LocationId@debugging_internal@lts_20250814@absl@@@1@@Z
	??$?0$$T@?$Storage@PEAPEAUCordRep@cord_internal@lts_20250814@absl@@$00U?$StorageTag@V?$allocator@PEAUCordRep@cord_internal@lts_20250814@absl@@@std@@PEAPEAUCordRep@cord_internal@lts_20250814@absl@@@internal_compressed_tuple@container_internal@34@$0A@@internal_compressed_tuple@container_internal@lts_20250814@absl@@QEAA@Uin_place_t@std@@$$QEA$$T@Z
	??$?0$$T@?$Storage@PEAPEAVLogSink@lts_20250814@absl@@$00U?$StorageTag@V?$allocator@PEAVLogSink@lts_20250814@absl@@@std@@PEAPEAVLogSink@lts_20250814@absl@@@internal_compressed_tuple@container_internal@23@$0A@@internal_compressed_tuple@container_internal@lts_20250814@absl@@QEAA@Uin_place_t@std@@$$QEA$$T@Z
	??$?0$$T@?$Storage@PEAUPayload@status_internal@lts_20250814@absl@@$00U?$StorageTag@V?$allocator@UPayload@status_internal@lts_20250814@absl@@@std@@PEAUPayload@status_internal@lts_20250814@absl@@@internal_compressed_tuple@container_internal@34@$0A@@internal_compressed_tuple@container_internal@lts_20250814@absl@@QEAA@Uin_place_t@std@@$$QEA$$T@Z
	??$?0$$V$0A@@?$NoDestructor@URefcountedRep@CrcCordState@crc_internal@lts_20250814@absl@@@lts_20250814@absl@@QEAA@XZ
	??$?0$$V$0A@@?$NoDestructor@V?$SampleRecorder@UHashtablezInfo@container_internal@lts_20250814@absl@@@profiling_internal@lts_20250814@absl@@@lts_20250814@absl@@QEAA@XZ
	??$?0$$V$0A@@?$NoDestructor@V?$basic_string@DU?$char_traits@D@std@@V?$allocator@D@2@@std@@@lts_20250814@absl@@QEAA@XZ
	??$?0$$V$0A@@?$NoDestructor@VMutex@lts_20250814@absl@@@lts_20250814@absl@@QEAA@XZ
	??$?0$$V@?$_Alloc_temporary2@V?$allocator@UTransition@cctz@time_internal@lts_20250814@absl@@@std@@@std@@QEAA@AEAV?$allocator@UTransition@cctz@time_internal@lts_20250814@absl@@@1@@Z
	??$?0$$V@?$_Alloc_temporary2@V?$allocator@UTransitionType@cctz@time_internal@lts_20250814@absl@@@std@@@std@@QEAA@AEAV?$allocator@UTransitionType@cctz@time_internal@lts_20250814@absl@@@1@@Z
	??$?0$$V@?$_Compressed_pair@U?$default_delete@V?$InlinedVector@UPayload@status_internal@lts_20250814@absl@@$00V?$allocator@UPayload@status_internal@lts_20250814@absl@@@std@@@lts_20250814@absl@@@std@@PEAV?$InlinedVector@UPayload@status_internal@lts_20250814@absl@@$00V?$allocator@UPayload@status_internal@lts_20250814@absl@@@std@@@lts_20250814@absl@@$00@std@@QEAA@U_Zero_then_variadic_args_t@1@@Z
	??$?0$$V@?$_Compressed_pair@U?$default_delete@VZoneInfoSource@cctz@time_internal@lts_20250814@absl@@@std@@PEAVZoneInfoSource@cctz@time_internal@lts_20250814@absl@@$00@std@@QEAA@U_Zero_then_variadic_args_t@1@@Z
	??$?0$$V@?$_Compressed_pair@V?$allocator@D@std@@V?$_String_val@U?$_Simple_types@D@std@@@2@$00@std@@QEAA@U_Zero_then_variadic_args_t@1@@Z
	??$?0$$V@?$_Compressed_pair@V?$allocator@I@std@@V?$_Vector_val@U?$_Simple_types@I@std@@@2@$00@std@@QEAA@U_Zero_then_variadic_args_t@1@@Z
	??$?0$$V@?$_Compressed_pair@V?$allocator@PEAVCordzHandle@cord_internal@lts_20250814@absl@@@std@@V?$_Vector_val@U?$_Simple_types@PEAVCordzHandle@cord_internal@lts_20250814@absl@@@std@@@2@$00@std@@QEAA@U_Zero_then_variadic_args_t@1@@Z
	??$?0$$V@?$_Compressed_pair@V?$allocator@PEAVLogSink@lts_20250814@absl@@@std@@V?$_Vector_val@U?$_Simple_types@PEAVLogSink@lts_20250814@absl@@@std@@@2@$00@std@@QEAA@U_Zero_then_variadic_args_t@1@@Z
	??$?0$$V@?$_Compressed_pair@V?$allocator@PEBVCordzHandle@cord_internal@lts_20250814@absl@@@std@@V?$_Vector_val@U?$_Simple_types@PEBVCordzHandle@cord_internal@lts_20250814@absl@@@std@@@2@$00@std@@QEAA@U_Zero_then_variadic_args_t@1@@Z
	??$?0$$V@?$_Compressed_pair@V?$allocator@PEBVImpl@time_zone@cctz@time_internal@lts_20250814@absl@@@std@@V?$_Deque_val@U?$_Deque_simple_types@PEBVImpl@time_zone@cctz@time_internal@lts_20250814@absl@@@std@@@2@$00@std@@QEAA@U_Zero_then_variadic_args_t@1@@Z
	??$?0$$V@?$_Compressed_pair@V?$allocator@U?$pair@N_K@std@@@std@@V?$_Vector_val@U?$_Simple_types@U?$pair@N_K@std@@@std@@@2@$00@std@@QEAA@U_Zero_then_variadic_args_t@1@@Z
	??$?0$$V@?$_Compressed_pair@V?$allocator@U?$pair@V?$basic_string_view@DU?$char_traits@D@std@@@std@@H@std@@@std@@V?$_Vector_val@U?$_Simple_types@U?$pair@V?$basic_string_view@DU?$char_traits@D@std@@@std@@H@std@@@std@@@2@$00@std@@QEAA@U_Zero_then_variadic_args_t@1@@Z
	??$?0$$V@?$_Compressed_pair@V?$allocator@U?$pair@W4StringId@debugging_internal@lts_20250814@absl@@_J@std@@@std@@V?$_Vector_val@U?$_Simple_types@U?$pair@W4StringId@debugging_internal@lts_20250814@absl@@_J@std@@@std@@@2@$00@std@@QEAA@U_Zero_then_variadic_args_t@1@@Z
	??$?0$$V@?$_Compressed_pair@V?$allocator@UConversionItem@ParsedFormatBase@str_format_internal@lts_20250814@absl@@@std@@V?$_Vector_val@U?$_Simple_types@UConversionItem@ParsedFormatBase@str_format_internal@lts_20250814@absl@@@std@@@2@$00@std@@QEAA@U_Zero_then_variadic_args_t@1@@Z
	??$?0$$V@?$_Compressed_pair@V?$allocator@UMapping@ProfileBuilder@debugging_internal@lts_20250814@absl@@@std@@V?$_Vector_val@U?$_Simple_types@UMapping@ProfileBuilder@debugging_internal@lts_20250814@absl@@@std@@@2@$00@std@@QEAA@U_Zero_then_variadic_args_t@1@@Z
	??$?0$$V@?$_Compressed_pair@V?$allocator@UPrefixCrc@CrcCordState@crc_internal@lts_20250814@absl@@@std@@V?$_Deque_val@U?$_Deque_simple_types@UPrefixCrc@CrcCordState@crc_internal@lts_20250814@absl@@@std@@@2@$00@std@@QEAA@U_Zero_then_variadic_args_t@1@@Z
	??$?0$$V@?$_Compressed_pair@V?$allocator@UTransition@cctz@time_internal@lts_20250814@absl@@@std@@V?$_Vector_val@U?$_Simple_types@UTransition@cctz@time_internal@lts_20250814@absl@@@std@@@2@$00@std@@QEAA@U_Zero_then_variadic_args_t@1@@Z
	??$?0$$V@?$_Compressed_pair@V?$allocator@UTransitionType@cctz@time_internal@lts_20250814@absl@@@std@@V?$_Vector_val@U?$_Simple_types@UTransitionType@cctz@time_internal@lts_20250814@absl@@@std@@@2@$00@std@@QEAA@U_Zero_then_variadic_args_t@1@@Z
	??$?0$$V@?$_Compressed_pair@V?$allocator@UViableSubstitution@strings_internal@lts_20250814@absl@@@std@@V?$_Vector_val@U?$_Simple_types@UViableSubstitution@strings_internal@lts_20250814@absl@@@std@@@2@$00@std@@QEAA@U_Zero_then_variadic_args_t@1@@Z
	??$?0$$V@?$_Compressed_pair@V?$allocator@V?$basic_string@DU?$char_traits@D@std@@V?$allocator@D@2@@std@@@std@@V?$_Vector_val@U?$_Simple_types@V?$basic_string@DU?$char_traits@D@std@@V?$allocator@D@2@@std@@@std@@@2@$00@std@@QEAA@U_Zero_then_variadic_args_t@1@@Z
	??$?0$$V@?$_Compressed_pair@V?$allocator@V?$function@$$A6AXXZ@std@@@std@@V?$_Vector_val@U?$_Simple_types@V?$function@$$A6AXXZ@std@@@std@@@2@$00@std@@QEAA@U_Zero_then_variadic_args_t@1@@Z
	??$?0$$V@?$_Compressed_pair@V?$allocator@V?$unique_ptr@VCRCImpl@crc_internal@lts_20250814@absl@@U?$default_delete@VCRCImpl@crc_internal@lts_20250814@absl@@@std@@@std@@@std@@V?$_Vector_val@U?$_Simple_types@V?$unique_ptr@VCRCImpl@crc_internal@lts_20250814@absl@@U?$default_delete@VCRCImpl@crc_internal@lts_20250814@absl@@@std@@@std@@@std@@@2@$00@std@@QEAA@U_Zero_then_variadic_args_t@1@@Z
	??$?0$$V@?$_Compressed_pair@V?$allocator@_K@std@@V?$_Vector_val@U?$_Simple_types@_K@std@@@2@$00@std@@QEAA@U_Zero_then_variadic_args_t@1@@Z
	??$?0$$V@PlacementImpl@?$NoDestructor@URefcountedRep@CrcCordState@crc_internal@lts_20250814@absl@@@lts_20250814@absl@@QEAA@XZ
	??$?0$$V@PlacementImpl@?$NoDestructor@V?$SampleRecorder@UHashtablezInfo@container_internal@lts_20250814@absl@@@profiling_internal@lts_20250814@absl@@@lts_20250814@absl@@QEAA@XZ
	??$?0$$V@PlacementImpl@?$NoDestructor@V?$basic_string@DU?$char_traits@D@std@@V?$allocator@D@2@@std@@@lts_20250814@absl@@QEAA@XZ
	??$?0$$V@PlacementImpl@?$NoDestructor@VMutex@lts_20250814@absl@@@lts_20250814@absl@@QEAA@XZ
	??$?0AEAPEAD@?$_Compressed_pair@U?$default_delete@$$BY0A@D@std@@PEAD$00@std@@QEAA@U_Zero_then_variadic_args_t@1@AEAPEAD@Z
	??$?0AEAPEAHAEAPEAH$0A@@?$pair@PEAHPEAH@std@@QEAA@AEAPEAH0@Z
	??$?0AEAPEAU?$_List_node@U?$pair@$$CBV?$basic_string@DU?$char_traits@D@std@@V?$allocator@D@2@@std@@PEBVImpl@time_zone@cctz@time_internal@lts_20250814@absl@@@std@@PEAX@std@@_N$0A@@?$pair@PEAU?$_List_node@U?$pair@$$CBV?$basic_string@DU?$char_traits@D@std@@V?$allocator@D@2@@std@@PEBVImpl@time_zone@cctz@time_internal@lts_20250814@absl@@@std@@PEAX@std@@_N@std@@QEAA@AEAPEAU?$_List_node@U?$pair@$$CBV?$basic_string@DU?$char_traits@D@std@@V?$allocator@D@2@@std@@PEBVImpl@time_zone@cctz@time_internal@lts_20250814@absl@@@std@@PEAX@1@$$QEA_N@Z
	??$?0AEAPEAULogMessageData@LogMessage@log_internal@lts_20250814@absl@@@?$_Compressed_pair@U?$default_delete@ULogMessageData@LogMessage@log_internal@lts_20250814@absl@@@std@@PEAULogMessageData@LogMessage@log_internal@lts_20250814@absl@@$00@std@@QEAA@U_Zero_then_variadic_args_t@1@AEAPEAULogMessageData@LogMessage@log_internal@lts_20250814@absl@@@Z
	??$?0AEAPEAV?$InlinedVector@UPayload@status_internal@lts_20250814@absl@@$00V?$allocator@UPayload@status_internal@lts_20250814@absl@@@std@@@lts_20250814@absl@@@?$_Compressed_pair@U?$default_delete@V?$InlinedVector@UPayload@status_internal@lts_20250814@absl@@$00V?$allocator@UPayload@status_internal@lts_20250814@absl@@@std@@@lts_20250814@absl@@@std@@PEAV?$InlinedVector@UPayload@status_internal@lts_20250814@absl@@$00V?$allocator@UPayload@status_internal@lts_20250814@absl@@@std@@@lts_20250814@absl@@$00@std@@QEAA@U_Zero_then_variadic_args_t@1@AEAPEAV?$InlinedVector@UPayload@status_internal@lts_20250814@absl@@$00V?$allocator@UPayload@status_internal@lts_20250814@absl@@@std@@@lts_20250814@absl@@@Z
	??$?0AEAPEAVFallbackCrcMemcpyEngine@crc_internal@lts_20250814@absl@@@?$_Compressed_pair@U?$default_delete@VFallbackCrcMemcpyEngine@crc_internal@lts_20250814@absl@@@std@@PEAVFallbackCrcMemcpyEngine@crc_internal@lts_20250814@absl@@$00@std@@QEAA@U_Zero_then_variadic_args_t@1@AEAPEAVFallbackCrcMemcpyEngine@crc_internal@lts_20250814@absl@@@Z
	??$?0AEAPEAVTimeZoneInfo@cctz@time_internal@lts_20250814@absl@@@?$_Compressed_pair@U?$default_delete@VTimeZoneInfo@cctz@time_internal@lts_20250814@absl@@@std@@PEAVTimeZoneInfo@cctz@time_internal@lts_20250814@absl@@$00@std@@QEAA@U_Zero_then_variadic_args_t@1@AEAPEAVTimeZoneInfo@cctz@time_internal@lts_20250814@absl@@@Z
	??$?0AEAPEAVTimeZoneLibC@cctz@time_internal@lts_20250814@absl@@@?$_Compressed_pair@U?$default_delete@VTimeZoneLibC@cctz@time_internal@lts_20250814@absl@@@std@@PEAVTimeZoneLibC@cctz@time_internal@lts_20250814@absl@@$00@std@@QEAA@U_Zero_then_variadic_args_t@1@AEAPEAVTimeZoneLibC@cctz@time_internal@lts_20250814@absl@@@Z
	??$?0AEAPEAVZoneInfoSource@cctz@time_internal@lts_20250814@absl@@@?$_Compressed_pair@U?$default_delete@VZoneInfoSource@cctz@time_internal@lts_20250814@absl@@@std@@PEAVZoneInfoSource@cctz@time_internal@lts_20250814@absl@@$00@std@@QEAA@U_Zero_then_variadic_args_t@1@AEAPEAVZoneInfoSource@cctz@time_internal@lts_20250814@absl@@@Z
	??$?0AEAPEAV_Facet_base@std@@@?$_Compressed_pair@U?$default_delete@V_Facet_base@std@@@std@@PEAV_Facet_base@2@$00@std@@QEAA@U_Zero_then_variadic_args_t@1@AEAPEAV_Facet_base@1@@Z
	??$?0AEAPEAVseed_seq@std@@@?$_Compressed_pair@U?$default_delete@Vseed_seq@std@@@std@@PEAVseed_seq@2@$00@std@@QEAA@U_Zero_then_variadic_args_t@1@AEAPEAVseed_seq@1@@Z
	??$?0AEAPEBVImpl@time_zone@cctz@time_internal@lts_20250814@absl@@@?$_Compressed_pair@U?$default_delete@$$CBVImpl@time_zone@cctz@time_internal@lts_20250814@absl@@@std@@PEBVImpl@time_zone@cctz@time_internal@lts_20250814@absl@@$00@std@@QEAA@U_Zero_then_variadic_args_t@1@AEAPEBVImpl@time_zone@cctz@time_internal@lts_20250814@absl@@@Z
	??$?0AEAV?$allocator@PEAUCordRep@cord_internal@lts_20250814@absl@@@std@@$$T$00@?$CompressedTuple@V?$allocator@PEAUCordRep@cord_internal@lts_20250814@absl@@@std@@PEAPEAUCordRep@cord_internal@lts_20250814@absl@@@container_internal@lts_20250814@absl@@QEAA@AEAV?$allocator@PEAUCordRep@cord_internal@lts_20250814@absl@@@std@@$$QEA$$T@Z
	??$?0AEAV?$allocator@PEAUCordRep@cord_internal@lts_20250814@absl@@@std@@$$T@?$CompressedTupleImpl@V?$CompressedTuple@V?$allocator@PEAUCordRep@cord_internal@lts_20250814@absl@@@std@@PEAPEAUCordRep@cord_internal@lts_20250814@absl@@@container_internal@lts_20250814@absl@@U?$integer_sequence@_K$0A@$00@std@@$00@internal_compressed_tuple@container_internal@lts_20250814@absl@@QEAA@Uin_place_t@std@@AEAV?$allocator@PEAUCordRep@cord_internal@lts_20250814@absl@@@6@$$QEA$$T@Z
	??$?0AEAV?$allocator@PEAUCordRep@cord_internal@lts_20250814@absl@@@std@@@?$Storage@V?$allocator@PEAUCordRep@cord_internal@lts_20250814@absl@@@std@@$0A@U?$StorageTag@V?$allocator@PEAUCordRep@cord_internal@lts_20250814@absl@@@std@@PEAPEAUCordRep@cord_internal@lts_20250814@absl@@@internal_compressed_tuple@container_internal@lts_20250814@absl@@$00@internal_compressed_tuple@container_internal@lts_20250814@absl@@QEAA@Uin_place_t@std@@AEAV?$allocator@PEAUCordRep@cord_internal@lts_20250814@absl@@@6@@Z
	??$?0AEAV?$allocator@PEAVLogSink@lts_20250814@absl@@@std@@$$T$00@?$CompressedTuple@V?$allocator@PEAVLogSink@lts_20250814@absl@@@std@@PEAPEAVLogSink@lts_20250814@absl@@@container_internal@lts_20250814@absl@@QEAA@AEAV?$allocator@PEAVLogSink@lts_20250814@absl@@@std@@$$QEA$$T@Z
	??$?0AEAV?$allocator@PEAVLogSink@lts_20250814@absl@@@std@@$$T@?$CompressedTupleImpl@V?$CompressedTuple@V?$allocator@PEAVLogSink@lts_20250814@absl@@@std@@PEAPEAVLogSink@lts_20250814@absl@@@container_internal@lts_20250814@absl@@U?$integer_sequence@_K$0A@$00@std@@$00@internal_compressed_tuple@container_internal@lts_20250814@absl@@QEAA@Uin_place_t@std@@AEAV?$allocator@PEAVLogSink@lts_20250814@absl@@@6@$$QEA$$T@Z
	??$?0AEAV?$allocator@PEAVLogSink@lts_20250814@absl@@@std@@@?$Storage@V?$allocator@PEAVLogSink@lts_20250814@absl@@@std@@$0A@U?$StorageTag@V?$allocator@PEAVLogSink@lts_20250814@absl@@@std@@PEAPEAVLogSink@lts_20250814@absl@@@internal_compressed_tuple@container_internal@lts_20250814@absl@@$00@internal_compressed_tuple@container_internal@lts_20250814@absl@@QEAA@Uin_place_t@std@@AEAV?$allocator@PEAVLogSink@lts_20250814@absl@@@6@@Z
	??$?0AEAV?$allocator@UPayload@status_internal@lts_20250814@absl@@@std@@$$T$00@?$CompressedTuple@V?$allocator@UPayload@status_internal@lts_20250814@absl@@@std@@PEAUPayload@status_internal@lts_20250814@absl@@@container_internal@lts_20250814@absl@@QEAA@AEAV?$allocator@UPayload@status_internal@lts_20250814@absl@@@std@@$$QEA$$T@Z
	??$?0AEAV?$allocator@UPayload@status_internal@lts_20250814@absl@@@std@@$$T@?$CompressedTupleImpl@V?$CompressedTuple@V?$allocator@UPayload@status_internal@lts_20250814@absl@@@std@@PEAUPayload@status_internal@lts_20250814@absl@@@container_internal@lts_20250814@absl@@U?$integer_sequence@_K$0A@$00@std@@$00@internal_compressed_tuple@container_internal@lts_20250814@absl@@QEAA@Uin_place_t@std@@AEAV?$allocator@UPayload@status_internal@lts_20250814@absl@@@6@$$QEA$$T@Z
	??$?0AEAV?$allocator@UPayload@status_internal@lts_20250814@absl@@@std@@@?$Storage@V?$allocator@UPayload@status_internal@lts_20250814@absl@@@std@@$0A@U?$StorageTag@V?$allocator@UPayload@status_internal@lts_20250814@absl@@@std@@PEAUPayload@status_internal@lts_20250814@absl@@@internal_compressed_tuple@container_internal@lts_20250814@absl@@$00@internal_compressed_tuple@container_internal@lts_20250814@absl@@QEAA@Uin_place_t@std@@AEAV?$allocator@UPayload@status_internal@lts_20250814@absl@@@6@@Z
	??$?0AEAV?$basic_string_view@DU?$char_traits@D@std@@@std@@$$Z$$QEAW4StringId@debugging_internal@lts_20250814@absl@@@?$pair@$$CBV?$basic_string@DU?$char_traits@D@std@@V?$allocator@D@2@@std@@W4StringId@debugging_internal@lts_20250814@absl@@@std@@QEAA@Upiecewise_construct_t@1@V?$tuple@AEAV?$basic_string_view@DU?$char_traits@D@std@@@std@@@1@V?$tuple@$$QEAW4StringId@debugging_internal@lts_20250814@absl@@@1@@Z
	??$?0AEAV?$basic_string_view@DU?$char_traits@D@std@@@std@@$$Z$$QEAW4StringId@debugging_internal@lts_20250814@absl@@@?$pair@V?$basic_string@DU?$char_traits@D@std@@V?$allocator@D@2@@std@@W4StringId@debugging_internal@lts_20250814@absl@@@std@@QEAA@Upiecewise_construct_t@1@V?$tuple@AEAV?$basic_string_view@DU?$char_traits@D@std@@@std@@@1@V?$tuple@$$QEAW4StringId@debugging_internal@lts_20250814@absl@@@1@@Z
	??$?0AEAV?$basic_string_view@DU?$char_traits@D@std@@@std@@$$Z$$QEAW4StringId@debugging_internal@lts_20250814@absl@@@?$pair@V?$tuple@AEAV?$basic_string_view@DU?$char_traits@D@std@@@std@@@std@@V?$tuple@$$QEAW4StringId@debugging_internal@lts_20250814@absl@@@2@@std@@QEAA@Upiecewise_construct_t@1@V?$tuple@AEAV?$basic_string_view@DU?$char_traits@D@std@@@std@@@1@V?$tuple@$$QEAW4StringId@debugging_internal@lts_20250814@absl@@@1@@Z
	??$?0AEAV?$basic_string_view@DU?$char_traits@D@std@@@std@@$0A@@?$tuple@AEAV?$basic_string_view@DU?$char_traits@D@std@@@std@@@std@@QEAA@AEAV?$basic_string_view@DU?$char_traits@D@std@@@1@@Z
	??$?0AEAV?$basic_string_view@DU?$char_traits@D@std@@@std@@@?$_Tuple_val@AEAV?$basic_string_view@DU?$char_traits@D@std@@@std@@@std@@QEAA@AEAV?$basic_string_view@DU?$char_traits@D@std@@@1@@Z
	??$?0AEAV?$btree_iterator@V?$btree_node@U?$map_params@_K_KU?$less@_K@std@@V?$allocator@U?$pair@$$CB_K_K@std@@@2@$0BAA@$0A@@container_internal@lts_20250814@absl@@@container_internal@lts_20250814@absl@@AEAU?$pair@$$CB_K_K@std@@PEAU56@@container_internal@lts_20250814@absl@@_N$0A@@?$pair@V?$btree_iterator@V?$btree_node@U?$map_params@_K_KU?$less@_K@std@@V?$allocator@U?$pair@$$CB_K_K@std@@@2@$0BAA@$0A@@container_internal@lts_20250814@absl@@@container_internal@lts_20250814@absl@@AEAU?$pair@$$CB_K_K@std@@PEAU56@@container_internal@lts_20250814@absl@@_N@std@@QEAA@AEAV?$btree_iterator@V?$btree_node@U?$map_params@_K_KU?$less@_K@std@@V?$allocator@U?$pair@$$CB_K_K@std@@@2@$0BAA@$0A@@container_internal@lts_20250814@absl@@@container_internal@lts_20250814@absl@@AEAU?$pair@$$CB_K_K@std@@PEAU56@@container_internal@lts_20250814@absl@@$$QEA_N@Z
	??$?0AEAVCord@lts_20250814@absl@@$0A@@?$optional@VCord@lts_20250814@absl@@@std@@QEAA@AEAVCord@lts_20250814@absl@@@Z
	??$?0AEAVCord@lts_20250814@absl@@@?$_Non_trivial_copy@U?$_Optional_construct_base@VCord@lts_20250814@absl@@@std@@@std@@QEAA@Uin_place_t@1@AEAVCord@lts_20250814@absl@@@Z
	??$?0AEAVCord@lts_20250814@absl@@@?$_Non_trivial_copy_assign@U?$_Optional_construct_base@VCord@lts_20250814@absl@@@std@@VCord@lts_20250814@absl@@@std@@QEAA@Uin_place_t@1@AEAVCord@lts_20250814@absl@@@Z
	??$?0AEAVCord@lts_20250814@absl@@@?$_Non_trivial_move@U?$_Optional_construct_base@VCord@lts_20250814@absl@@@std@@VCord@lts_20250814@absl@@@std@@QEAA@Uin_place_t@1@AEAVCord@lts_20250814@absl@@@Z
	??$?0AEAVCord@lts_20250814@absl@@@?$_Non_trivial_move_assign@U?$_Optional_construct_base@VCord@lts_20250814@absl@@@std@@VCord@lts_20250814@absl@@@std@@QEAA@Uin_place_t@1@AEAVCord@lts_20250814@absl@@@Z
	??$?0AEAVCord@lts_20250814@absl@@@?$_Optional_construct_base@VCord@lts_20250814@absl@@@std@@QEAA@Uin_place_t@1@AEAVCord@lts_20250814@absl@@@Z
	??$?0AEAVCord@lts_20250814@absl@@@?$_Optional_destruct_base@VCord@lts_20250814@absl@@$0A@@std@@QEAA@Uin_place_t@1@AEAVCord@lts_20250814@absl@@@Z
	??$?0AEAW4StringId@debugging_internal@lts_20250814@absl@@_J$0A@@?$pair@W4StringId@debugging_internal@lts_20250814@absl@@_J@std@@QEAA@AEAW4StringId@debugging_internal@lts_20250814@absl@@$$QEA_J@Z
	??$?0AEAY00$$CBDW4StringId@debugging_internal@lts_20250814@absl@@$0A@@?$pair@V?$basic_string@DU?$char_traits@D@std@@V?$allocator@D@2@@std@@W4StringId@debugging_internal@lts_20250814@absl@@@std@@QEAA@AEAY00$$CBD$$QEAW4StringId@debugging_internal@lts_20250814@absl@@@Z
	??$?0AEAY0BM@$$CBD$0A@@?$NoDestructor@V?$basic_string@DU?$char_traits@D@std@@V?$allocator@D@2@@std@@@lts_20250814@absl@@QEAA@AEAY0BM@$$CBD@Z
	??$?0AEAY0BM@$$CBD@PlacementImpl@?$NoDestructor@V?$basic_string@DU?$char_traits@D@std@@V?$allocator@D@2@@std@@@lts_20250814@absl@@QEAA@AEAY0BM@$$CBD@Z
	??$?0AEA_K@?$Storage@_K$0A@U?$StorageTag@_KV?$allocator@D@std@@@internal_compressed_tuple@container_internal@lts_20250814@absl@@$0A@@internal_compressed_tuple@container_internal@lts_20250814@absl@@QEAA@Uin_place_t@std@@AEA_K@Z
	??$?0AEA_KAEA_K$0A@@?$pair@$$CB_K_K@std@@QEAA@AEA_K0@Z
	??$?0AEA_KAEA_K$0A@@?$pair@_K_K@std@@QEAA@AEA_K0@Z
	??$?0AEA_KAEA_K@?$node_handle@U?$map_params@_K_KU?$less@_K@std@@V?$allocator@U?$pair@$$CB_K_K@std@@@2@$0BAA@$0A@@container_internal@lts_20250814@absl@@U1234@V?$allocator@U?$pair@$$CB_K_K@std@@@std@@X@container_internal@lts_20250814@absl@@IEAA@Uconstruct_tag_t@?$node_handle_base@U?$map_params@_K_KU?$less@_K@std@@V?$allocator@U?$pair@$$CB_K_K@std@@@2@$0BAA@$0A@@container_internal@lts_20250814@absl@@V?$allocator@U?$pair@$$CB_K_K@std@@@std@@@123@AEBV?$allocator@U?$pair@$$CB_K_K@std@@@std@@AEA_K2@Z
	??$?0AEA_KAEA_K@?$node_handle_base@U?$map_params@_K_KU?$less@_K@std@@V?$allocator@U?$pair@$$CB_K_K@std@@@2@$0BAA@$0A@@container_internal@lts_20250814@absl@@V?$allocator@U?$pair@$$CB_K_K@std@@@std@@@container_internal@lts_20250814@absl@@IEAA@Uconstruct_tag_t@0123@AEBV?$allocator@U?$pair@$$CB_K_K@std@@@std@@AEA_K2@Z
	??$?0AEA_KAEBV?$allocator@D@std@@$00@?$CompressedTuple@_KV?$allocator@D@std@@@container_internal@lts_20250814@absl@@QEAA@AEA_KAEBV?$allocator@D@std@@@Z
	??$?0AEA_KAEBV?$allocator@D@std@@@?$CompressedTupleImpl@V?$CompressedTuple@_KV?$allocator@D@std@@@container_internal@lts_20250814@absl@@U?$integer_sequence@_K$0A@$00@std@@$00@internal_compressed_tuple@container_internal@lts_20250814@absl@@QEAA@Uin_place_t@std@@AEA_KAEBV?$allocator@D@6@@Z
	??$?0AEA_KH$0A@@?$pair@_K_K@std@@QEAA@AEA_K$$QEAH@Z
	??$?0AEBH$0A@@?$optional@H@std@@QEAA@AEBH@Z
	??$?0AEBH@?$_List_node_emplace_op2@V?$allocator@U?$_List_node@HPEAX@std@@@std@@@std@@QEAA@AEAV?$allocator@U?$_List_node@HPEAX@std@@@1@AEBH@Z
	??$?0AEBH@?$_Optional_construct_base@H@std@@QEAA@Uin_place_t@1@AEBH@Z
	??$?0AEBH@?$_Optional_destruct_base@H$00@std@@QEAA@Uin_place_t@1@AEBH@Z
	??$?0AEBH@?$_Tuple_val@AEBH@std@@QEAA@AEBH@Z
	??$?0AEBNH$0A@@?$pair@N_K@std@@QEAA@AEBN$$QEAH@Z
	??$?0AEBQ6AXPEAX@ZAEAPEAUThreadIdentity@base_internal@lts_20250814@absl@@@?$_Compressed_pair@P6AXPEAX@ZPEAUThreadIdentity@base_internal@lts_20250814@absl@@$0A@@std@@QEAA@U_One_then_variadic_args_t@1@AEBQ6AXPEAX@ZAEAPEAUThreadIdentity@base_internal@lts_20250814@absl@@@Z
	??$?0AEBQEBUCordRep@cord_internal@lts_20250814@absl@@@?$_List_node_emplace_op2@V?$allocator@U?$_List_node@PEBUCordRep@cord_internal@lts_20250814@absl@@PEAX@std@@@std@@@std@@QEAA@AEAV?$allocator@U?$_List_node@PEBUCordRep@cord_internal@lts_20250814@absl@@PEAX@std@@@1@AEBQEBUCordRep@cord_internal@lts_20250814@absl@@@Z
	??$?0AEBUStringEq@container_internal@lts_20250814@absl@@@?$Storage@UStringEq@container_internal@lts_20250814@absl@@$01U?$StorageTag@VCommonFields@container_internal@lts_20250814@absl@@UStringHash@234@UStringEq@234@V?$allocator@D@std@@@internal_compressed_tuple@234@$00@internal_compressed_tuple@container_internal@lts_20250814@absl@@QEAA@Uin_place_t@std@@AEBUStringEq@234@@Z
	??$?0AEBUStringHash@container_internal@lts_20250814@absl@@@?$Storage@UStringHash@container_internal@lts_20250814@absl@@$00U?$StorageTag@VCommonFields@container_internal@lts_20250814@absl@@UStringHash@234@UStringEq@234@V?$allocator@D@std@@@internal_compressed_tuple@234@$00@internal_compressed_tuple@container_internal@lts_20250814@absl@@QEAA@Uin_place_t@std@@AEBUStringHash@234@@Z
	??$?0AEBUchecked_compare@?$key_compare_adapter@U?$less@_K@std@@_K@container_internal@lts_20250814@absl@@@?$Storage@Uchecked_compare@?$key_compare_adapter@U?$less@_K@std@@_K@container_internal@lts_20250814@absl@@$0A@U?$StorageTag@Uchecked_compare@?$key_compare_adapter@U?$less@_K@std@@_K@container_internal@lts_20250814@absl@@V?$allocator@U?$pair@$$CB_K_K@std@@@std@@PEAV?$btree_node@U?$map_params@_K_KU?$less@_K@std@@V?$allocator@U?$pair@$$CB_K_K@std@@@2@$0BAA@$0A@@container_internal@lts_20250814@absl@@@345@@internal_compressed_tuple@345@$00@internal_compressed_tuple@container_internal@lts_20250814@absl@@QEAA@Uin_place_t@std@@AEBUchecked_compare@?$key_compare_adapter@U?$less@_K@std@@_K@234@@Z
	??$?0AEBUchecked_compare@?$key_compare_adapter@U?$less@_K@std@@_K@container_internal@lts_20250814@absl@@AEBV?$allocator@U?$pair@$$CB_K_K@std@@@std@@PEAV?$btree_node@U?$map_params@_K_KU?$less@_K@std@@V?$allocator@U?$pair@$$CB_K_K@std@@@2@$0BAA@$0A@@container_internal@lts_20250814@absl@@@234@$00@?$CompressedTuple@Uchecked_compare@?$key_compare_adapter@U?$less@_K@std@@_K@container_internal@lts_20250814@absl@@V?$allocator@U?$pair@$$CB_K_K@std@@@std@@PEAV?$btree_node@U?$map_params@_K_KU?$less@_K@std@@V?$allocator@U?$pair@$$CB_K_K@std@@@2@$0BAA@$0A@@container_internal@lts_20250814@absl@@@345@@container_internal@lts_20250814@absl@@QEAA@AEBUchecked_compare@?$key_compare_adapter@U?$less@_K@std@@_K@123@AEBV?$allocator@U?$pair@$$CB_K_K@std@@@std@@$$QEAPEAV?$btree_node@U?$map_params@_K_KU?$less@_K@std@@V?$allocator@U?$pair@$$CB_K_K@std@@@2@$0BAA@$0A@@container_internal@lts_20250814@absl@@@123@@Z
	??$?0AEBUchecked_compare@?$key_compare_adapter@U?$less@_K@std@@_K@container_internal@lts_20250814@absl@@AEBV?$allocator@U?$pair@$$CB_K_K@std@@@std@@PEAV?$btree_node@U?$map_params@_K_KU?$less@_K@std@@V?$allocator@U?$pair@$$CB_K_K@std@@@2@$0BAA@$0A@@container_internal@lts_20250814@absl@@@234@@?$CompressedTupleImpl@V?$CompressedTuple@Uchecked_compare@?$key_compare_adapter@U?$less@_K@std@@_K@container_internal@lts_20250814@absl@@V?$allocator@U?$pair@$$CB_K_K@std@@@std@@PEAV?$btree_node@U?$map_params@_K_KU?$less@_K@std@@V?$allocator@U?$pair@$$CB_K_K@std@@@2@$0BAA@$0A@@container_internal@lts_20250814@absl@@@345@@container_internal@lts_20250814@absl@@U?$integer_sequence@_K$0A@$00$01@std@@$00@internal_compressed_tuple@container_internal@lts_20250814@absl@@QEAA@Uin_place_t@std@@AEBUchecked_compare@?$key_compare_adapter@U?$less@_K@std@@_K@234@AEBV?$allocator@U?$pair@$$CB_K_K@std@@@6@$$QEAPEAV?$btree_node@U?$map_params@_K_KU?$less@_K@std@@V?$allocator@U?$pair@$$CB_K_K@std@@@2@$0BAA@$0A@@container_internal@lts_20250814@absl@@@234@@Z
	??$?0AEBUpiecewise_construct_t@std@@V?$tuple@AEBV?$basic_string@DU?$char_traits@D@std@@V?$allocator@D@2@@std@@@1@V?$tuple@$$V@1@@?$_List_node_emplace_op2@V?$allocator@U?$_List_node@U?$pair@$$CBV?$basic_string@DU?$char_traits@D@std@@V?$allocator@D@2@@std@@PEBVImpl@time_zone@cctz@time_internal@lts_20250814@absl@@@std@@PEAX@std@@@std@@@std@@QEAA@AEAV?$allocator@U?$_List_node@U?$pair@$$CBV?$basic_string@DU?$char_traits@D@std@@V?$allocator@D@2@@std@@PEBVImpl@time_zone@cctz@time_internal@lts_20250814@absl@@@std@@PEAX@std@@@1@AEBUpiecewise_construct_t@1@$$QEAV?$tuple@AEBV?$basic_string@DU?$char_traits@D@std@@V?$allocator@D@2@@std@@@1@$$QEAV?$tuple@$$V@1@@Z
	??$?0AEBV?$allocator@D@std@@$$V@?$_Compressed_pair@V?$allocator@D@std@@V?$_String_val@U?$_Simple_types@D@std@@@2@$00@std@@QEAA@U_One_then_variadic_args_t@1@AEBV?$allocator@D@1@@Z
	??$?0AEBV?$allocator@D@std@@$$V@?$_Compressed_pair@V?$allocator@D@std@@V?$_Vector_val@U?$_Simple_types@D@std@@@2@$00@std@@QEAA@U_One_then_variadic_args_t@1@AEBV?$allocator@D@1@@Z
	??$?0AEBV?$allocator@D@std@@@?$Storage@V?$allocator@D@std@@$00U?$StorageTag@_KV?$allocator@D@std@@@internal_compressed_tuple@container_internal@lts_20250814@absl@@$00@internal_compressed_tuple@container_internal@lts_20250814@absl@@QEAA@Uin_place_t@std@@AEBV?$allocator@D@6@@Z
	??$?0AEBV?$allocator@H@std@@$$V@?$_Compressed_pair@V?$allocator@U?$_List_node@HPEAX@std@@@std@@V?$_List_val@U?$_List_simple_types@H@std@@@2@$00@std@@QEAA@U_One_then_variadic_args_t@1@AEBV?$allocator@H@1@@Z
	??$?0AEBV?$allocator@H@std@@$$V@?$_Compressed_pair@V?$allocator@V?$_List_unchecked_const_iterator@V?$_List_val@U?$_List_simple_types@H@std@@@std@@U_Iterator_base0@2@@std@@@std@@V?$_Vector_val@U?$_Simple_types@V?$_List_unchecked_const_iterator@V?$_List_val@U?$_List_simple_types@H@std@@@std@@U_Iterator_base0@2@@std@@@std@@@2@$00@std@@QEAA@U_One_then_variadic_args_t@1@AEBV?$allocator@H@1@@Z
	??$?0AEBV?$allocator@H@std@@$0A@@?$_Hash_vec@V?$allocator@V?$_List_unchecked_const_iterator@V?$_List_val@U?$_List_simple_types@H@std@@@std@@U_Iterator_base0@2@@std@@@std@@@std@@QEAA@AEBV?$allocator@H@1@@Z
	??$?0AEBV?$allocator@PEBUCordRep@cord_internal@lts_20250814@absl@@@std@@$$V@?$_Compressed_pair@V?$allocator@U?$_List_node@PEBUCordRep@cord_internal@lts_20250814@absl@@PEAX@std@@@std@@V?$_List_val@U?$_List_simple_types@PEBUCordRep@cord_internal@lts_20250814@absl@@@std@@@2@$00@std@@QEAA@U_One_then_variadic_args_t@1@AEBV?$allocator@PEBUCordRep@cord_internal@lts_20250814@absl@@@1@@Z
	??$?0AEBV?$allocator@PEBUCordRep@cord_internal@lts_20250814@absl@@@std@@$$V@?$_Compressed_pair@V?$allocator@V?$_List_unchecked_const_iterator@V?$_List_val@U?$_List_simple_types@PEBUCordRep@cord_internal@lts_20250814@absl@@@std@@@std@@U_Iterator_base0@2@@std@@@std@@V?$_Vector_val@U?$_Simple_types@V?$_List_unchecked_const_iterator@V?$_List_val@U?$_List_simple_types@PEBUCordRep@cord_internal@lts_20250814@absl@@@std@@@std@@U_Iterator_base0@2@@std@@@std@@@2@$00@std@@QEAA@U_One_then_variadic_args_t@1@AEBV?$allocator@PEBUCordRep@cord_internal@lts_20250814@absl@@@1@@Z
	??$?0AEBV?$allocator@PEBUCordRep@cord_internal@lts_20250814@absl@@@std@@$0A@@?$_Hash_vec@V?$allocator@V?$_List_unchecked_const_iterator@V?$_List_val@U?$_List_simple_types@PEBUCordRep@cord_internal@lts_20250814@absl@@@std@@@std@@U_Iterator_base0@2@@std@@@std@@@std@@QEAA@AEBV?$allocator@PEBUCordRep@cord_internal@lts_20250814@absl@@@1@@Z
	??$?0AEBV?$allocator@U?$pair@$$CBV?$basic_string@DU?$char_traits@D@std@@V?$allocator@D@2@@std@@PEBVImpl@time_zone@cctz@time_internal@lts_20250814@absl@@@std@@@std@@$$V@?$_Compressed_pair@V?$allocator@U?$_List_node@U?$pair@$$CBV?$basic_string@DU?$char_traits@D@std@@V?$allocator@D@2@@std@@PEBVImpl@time_zone@cctz@time_internal@lts_20250814@absl@@@std@@PEAX@std@@@std@@V?$_List_val@U?$_List_simple_types@U?$pair@$$CBV?$basic_string@DU?$char_traits@D@std@@V?$allocator@D@2@@std@@PEBVImpl@time_zone@cctz@time_internal@lts_20250814@absl@@@std@@@std@@@2@$00@std@@QEAA@U_One_then_variadic_args_t@1@AEBV?$allocator@U?$pair@$$CBV?$basic_string@DU?$char_traits@D@std@@V?$allocator@D@2@@std@@PEBVImpl@time_zone@cctz@time_internal@lts_20250814@absl@@@std@@@1@@Z
	??$?0AEBV?$allocator@U?$pair@$$CBV?$basic_string@DU?$char_traits@D@std@@V?$allocator@D@2@@std@@PEBVImpl@time_zone@cctz@time_internal@lts_20250814@absl@@@std@@@std@@$$V@?$_Compressed_pair@V?$allocator@V?$_List_unchecked_iterator@V?$_List_val@U?$_List_simple_types@U?$pair@$$CBV?$basic_string@DU?$char_traits@D@std@@V?$allocator@D@2@@std@@PEBVImpl@time_zone@cctz@time_internal@lts_20250814@absl@@@std@@@std@@@std@@@std@@@std@@V?$_Vector_val@U?$_Simple_types@V?$_List_unchecked_iterator@V?$_List_val@U?$_List_simple_types@U?$pair@$$CBV?$basic_string@DU?$char_traits@D@std@@V?$allocator@D@2@@std@@PEBVImpl@time_zone@cctz@time_internal@lts_20250814@absl@@@std@@@std@@@std@@@std@@@std@@@2@$00@std@@QEAA@U_One_then_variadic_args_t@1@AEBV?$allocator@U?$pair@$$CBV?$basic_string@DU?$char_traits@D@std@@V?$allocator@D@2@@std@@PEBVImpl@time_zone@cctz@time_internal@lts_20250814@absl@@@std@@@1@@Z
	??$?0AEBV?$allocator@U?$pair@$$CBV?$basic_string@DU?$char_traits@D@std@@V?$allocator@D@2@@std@@PEBVImpl@time_zone@cctz@time_internal@lts_20250814@absl@@@std@@@std@@$0A@@?$_Hash_vec@V?$allocator@V?$_List_unchecked_iterator@V?$_List_val@U?$_List_simple_types@U?$pair@$$CBV?$basic_string@DU?$char_traits@D@std@@V?$allocator@D@2@@std@@PEBVImpl@time_zone@cctz@time_internal@lts_20250814@absl@@@std@@@std@@@std@@@std@@@std@@@std@@QEAA@AEBV?$allocator@U?$pair@$$CBV?$basic_string@DU?$char_traits@D@std@@V?$allocator@D@2@@std@@PEBVImpl@time_zone@cctz@time_internal@lts_20250814@absl@@@std@@@1@@Z
	??$?0AEBV?$allocator@U?$pair@$$CBV?$basic_string@DU?$char_traits@D@std@@V?$allocator@D@2@@std@@W4StringId@debugging_internal@lts_20250814@absl@@@std@@@std@@@?$Storage@V?$allocator@D@std@@$02U?$StorageTag@VCommonFields@container_internal@lts_20250814@absl@@UStringHash@234@UStringEq@234@V?$allocator@D@std@@@internal_compressed_tuple@container_internal@lts_20250814@absl@@$00@internal_compressed_tuple@container_internal@lts_20250814@absl@@QEAA@Uin_place_t@std@@AEBV?$allocator@U?$pair@$$CBV?$basic_string@DU?$char_traits@D@std@@V?$allocator@D@2@@std@@W4StringId@debugging_internal@lts_20250814@absl@@@std@@@6@@Z
	??$?0AEBV?$allocator@U?$pair@$$CB_K_K@std@@@std@@$0A@@?$optional@V?$allocator@U?$pair@$$CB_K_K@std@@@std@@@std@@QEAA@AEBV?$allocator@U?$pair@$$CB_K_K@std@@@1@@Z
	??$?0AEBV?$allocator@U?$pair@$$CB_K_K@std@@@std@@@?$Storage@V?$allocator@U?$pair@$$CB_K_K@std@@@std@@$00U?$StorageTag@Uchecked_compare@?$key_compare_adapter@U?$less@_K@std@@_K@container_internal@lts_20250814@absl@@V?$allocator@U?$pair@$$CB_K_K@std@@@std@@PEAV?$btree_node@U?$map_params@_K_KU?$less@_K@std@@V?$allocator@U?$pair@$$CB_K_K@std@@@2@$0BAA@$0A@@container_internal@lts_20250814@absl@@@345@@internal_compressed_tuple@container_internal@lts_20250814@absl@@$00@internal_compressed_tuple@container_internal@lts_20250814@absl@@QEAA@Uin_place_t@std@@AEBV?$allocator@U?$pair@$$CB_K_K@std@@@6@@Z
	??$?0AEBV?$allocator@U?$pair@$$CB_K_K@std@@@std@@@?$_Optional_construct_base@V?$allocator@U?$pair@$$CB_K_K@std@@@std@@@std@@QEAA@Uin_place_t@1@AEBV?$allocator@U?$pair@$$CB_K_K@std@@@1@@Z
	??$?0AEBV?$allocator@U?$pair@$$CB_K_K@std@@@std@@@?$_Optional_destruct_base@V?$allocator@U?$pair@$$CB_K_K@std@@@std@@$00@std@@QEAA@Uin_place_t@1@AEBV?$allocator@U?$pair@$$CB_K_K@std@@@1@@Z
	??$?0AEBV?$allocator@UPayload@status_internal@lts_20250814@absl@@@std@@@?$Storage@V?$allocator@UPayload@status_internal@lts_20250814@absl@@@std@@$0A@U?$StorageTag@V?$allocator@UPayload@status_internal@lts_20250814@absl@@@std@@_K@internal_compressed_tuple@container_internal@lts_20250814@absl@@$00@internal_compressed_tuple@container_internal@lts_20250814@absl@@QEAA@Uin_place_t@std@@AEBV?$allocator@UPayload@status_internal@lts_20250814@absl@@@6@@Z
	??$?0AEBV?$allocator@UPayload@status_internal@lts_20250814@absl@@@std@@I$00@?$CompressedTuple@V?$allocator@UPayload@status_internal@lts_20250814@absl@@@std@@_K@container_internal@lts_20250814@absl@@QEAA@AEBV?$allocator@UPayload@status_internal@lts_20250814@absl@@@std@@$$QEAI@Z
	??$?0AEBV?$allocator@UPayload@status_internal@lts_20250814@absl@@@std@@I@?$CompressedTupleImpl@V?$CompressedTuple@V?$allocator@UPayload@status_internal@lts_20250814@absl@@@std@@_K@container_internal@lts_20250814@absl@@U?$integer_sequence@_K$0A@$00@std@@$00@internal_compressed_tuple@container_internal@lts_20250814@absl@@QEAA@Uin_place_t@std@@AEBV?$allocator@UPayload@status_internal@lts_20250814@absl@@@6@$$QEAI@Z
	??$?0AEBV?$allocator@V?$basic_string_view@DU?$char_traits@D@std@@@std@@@std@@$$V@?$_Compressed_pair@V?$allocator@V?$basic_string_view@DU?$char_traits@D@std@@@std@@@std@@V?$_Vector_val@U?$_Simple_types@V?$basic_string_view@DU?$char_traits@D@std@@@std@@@std@@@2@$00@std@@QEAA@U_One_then_variadic_args_t@1@AEBV?$allocator@V?$basic_string_view@DU?$char_traits@D@std@@@std@@@1@@Z
	??$?0AEBV?$allocator@VFormatArgImpl@str_format_internal@lts_20250814@absl@@@std@@@?$Storage@V?$allocator@VFormatArgImpl@str_format_internal@lts_20250814@absl@@@std@@$0A@U?$StorageTag@V?$allocator@VFormatArgImpl@str_format_internal@lts_20250814@absl@@@std@@_K@internal_compressed_tuple@container_internal@lts_20250814@absl@@$00@internal_compressed_tuple@container_internal@lts_20250814@absl@@QEAA@Uin_place_t@std@@AEBV?$allocator@VFormatArgImpl@str_format_internal@lts_20250814@absl@@@6@@Z
	??$?0AEBV?$allocator@VFormatArgImpl@str_format_internal@lts_20250814@absl@@@std@@I$00@?$CompressedTuple@V?$allocator@VFormatArgImpl@str_format_internal@lts_20250814@absl@@@std@@_K@container_internal@lts_20250814@absl@@QEAA@AEBV?$allocator@VFormatArgImpl@str_format_internal@lts_20250814@absl@@@std@@$$QEAI@Z
	??$?0AEBV?$allocator@VFormatArgImpl@str_format_internal@lts_20250814@absl@@@std@@I@?$CompressedTupleImpl@V?$CompressedTuple@V?$allocator@VFormatArgImpl@str_format_internal@lts_20250814@absl@@@std@@_K@container_internal@lts_20250814@absl@@U?$integer_sequence@_K$0A@$00@std@@$00@internal_compressed_tuple@container_internal@lts_20250814@absl@@QEAA@Uin_place_t@std@@AEBV?$allocator@VFormatArgImpl@str_format_internal@lts_20250814@absl@@@6@$$QEAI@Z
	??$?0AEBV?$basic_string@DU?$char_traits@D@std@@V?$allocator@D@2@@std@@$$Z$$V@?$pair@$$CBV?$basic_string@DU?$char_traits@D@std@@V?$allocator@D@2@@std@@PEBVImpl@time_zone@cctz@time_internal@lts_20250814@absl@@@std@@QEAA@Upiecewise_construct_t@1@V?$tuple@AEBV?$basic_string@DU?$char_traits@D@std@@V?$allocator@D@2@@std@@@1@V?$tuple@$$V@1@@Z
	??$?0AEBV?$basic_string@DU?$char_traits@D@std@@V?$allocator@D@2@@std@@$$ZAEBW4StringId@debugging_internal@lts_20250814@absl@@@?$pair@$$CBV?$basic_string@DU?$char_traits@D@std@@V?$allocator@D@2@@std@@W4StringId@debugging_internal@lts_20250814@absl@@@std@@QEAA@Upiecewise_construct_t@1@V?$tuple@AEBV?$basic_string@DU?$char_traits@D@std@@V?$allocator@D@2@@std@@@1@V?$tuple@AEBW4StringId@debugging_internal@lts_20250814@absl@@@1@@Z
	??$?0AEBV?$basic_string@DU?$char_traits@D@std@@V?$allocator@D@2@@std@@$$ZAEBW4StringId@debugging_internal@lts_20250814@absl@@@?$pair@V?$basic_string@DU?$char_traits@D@std@@V?$allocator@D@2@@std@@W4StringId@debugging_internal@lts_20250814@absl@@@std@@QEAA@Upiecewise_construct_t@1@V?$tuple@AEBV?$basic_string@DU?$char_traits@D@std@@V?$allocator@D@2@@std@@@1@V?$tuple@AEBW4StringId@debugging_internal@lts_20250814@absl@@@1@@Z
	??$?0AEBV?$basic_string@DU?$char_traits@D@std@@V?$allocator@D@2@@std@@$$ZAEBW4StringId@debugging_internal@lts_20250814@absl@@@?$pair@V?$tuple@AEBV?$basic_string@DU?$char_traits@D@std@@V?$allocator@D@2@@std@@@std@@V?$tuple@AEBW4StringId@debugging_internal@lts_20250814@absl@@@2@@std@@QEAA@Upiecewise_construct_t@1@V?$tuple@AEBV?$basic_string@DU?$char_traits@D@std@@V?$allocator@D@2@@std@@@1@V?$tuple@AEBW4StringId@debugging_internal@lts_20250814@absl@@@1@@Z
	??$?0AEBV?$basic_string@DU?$char_traits@D@std@@V?$allocator@D@2@@std@@$0A@@?$tuple@AEBV?$basic_string@DU?$char_traits@D@std@@V?$allocator@D@2@@std@@@std@@QEAA@AEBV?$basic_string@DU?$char_traits@D@std@@V?$allocator@D@2@@1@@Z
	??$?0AEBV?$basic_string@DU?$char_traits@D@std@@V?$allocator@D@2@@std@@@?$_Tuple_val@AEBV?$basic_string@DU?$char_traits@D@std@@V?$allocator@D@2@@std@@@std@@QEAA@AEBV?$basic_string@DU?$char_traits@D@std@@V?$allocator@D@2@@1@@Z
	??$?0AEBV?$basic_string_view@DU?$char_traits@D@std@@@std@@$0A@@?$tuple@AEBV?$basic_string_view@DU?$char_traits@D@std@@@std@@AEBH@std@@QEAA@AEBV?$basic_string_view@DU?$char_traits@D@std@@@1@AEBH@Z
	??$?0AEBV?$basic_string_view@DU?$char_traits@D@std@@@std@@@?$_Tuple_val@AEBV?$basic_string_view@DU?$char_traits@D@std@@@std@@@std@@QEAA@AEBV?$basic_string_view@DU?$char_traits@D@std@@@1@@Z
	??$?0AEBV?$basic_string_view@DU?$char_traits@D@std@@@std@@AEAH$0A@@?$pair@V?$basic_string_view@DU?$char_traits@D@std@@@std@@H@std@@QEAA@AEBV?$basic_string_view@DU?$char_traits@D@std@@@1@AEAH@Z
	??$?0AEBW4LocationId@debugging_internal@lts_20250814@absl@@$0A@@?$tuple@AEBW4LocationId@debugging_internal@lts_20250814@absl@@@std@@QEAA@AEBW4LocationId@debugging_internal@lts_20250814@absl@@@Z
	??$?0AEBW4LocationId@debugging_internal@lts_20250814@absl@@@?$_Tuple_val@AEBW4LocationId@debugging_internal@lts_20250814@absl@@@std@@QEAA@AEBW4LocationId@debugging_internal@lts_20250814@absl@@@Z
	??$?0AEBW4StringId@debugging_internal@lts_20250814@absl@@$0A@@?$tuple@AEBW4StringId@debugging_internal@lts_20250814@absl@@@std@@QEAA@AEBW4StringId@debugging_internal@lts_20250814@absl@@@Z
	??$?0AEBW4StringId@debugging_internal@lts_20250814@absl@@@?$_Tuple_val@AEBW4StringId@debugging_internal@lts_20250814@absl@@@std@@QEAA@AEBW4StringId@debugging_internal@lts_20250814@absl@@@Z
	??$?0AEB_K$$ZAEBW4LocationId@debugging_internal@lts_20250814@absl@@@?$pair@V?$tuple@AEB_K@std@@V?$tuple@AEBW4LocationId@debugging_internal@lts_20250814@absl@@@2@@std@@QEAA@Upiecewise_construct_t@1@V?$tuple@AEB_K@1@V?$tuple@AEBW4LocationId@debugging_internal@lts_20250814@absl@@@1@@Z
	??$?0AEB_K$0A@@?$tuple@AEB_K@std@@QEAA@AEB_K@Z
	??$?0AEB_K@?$_Tuple_val@AEB_K@std@@QEAA@AEB_K@Z
	??$?0D@?$allocator@U?$AlignedType@$07@container_internal@lts_20250814@absl@@@std@@QEAA@AEBV?$allocator@D@1@@Z
	??$?0D@?$allocator@U?$pair@$$CBV?$basic_string@DU?$char_traits@D@std@@V?$allocator@D@2@@std@@W4StringId@debugging_internal@lts_20250814@absl@@@std@@@std@@QEAA@AEBV?$allocator@D@1@@Z
	??$?0D@?$allocator@U?$pair@$$CB_KW4LocationId@debugging_internal@lts_20250814@absl@@@std@@@std@@QEAA@AEBV?$allocator@D@1@@Z
	??$?0D@FormatArgImpl@str_format_internal@lts_20250814@absl@@QEAA@AEBD@Z
	??$?0H$0A@@?$duration@HU?$ratio@$0DM@$00@std@@@chrono@std@@QEAA@AEBH@Z
	??$?0H$0A@@?$duration@HU?$ratio@$0OBA@$00@std@@@chrono@std@@QEAA@AEBH@Z
	??$?0H$0A@@?$duration@_JU?$ratio@$00$00@std@@@chrono@std@@QEAA@AEBH@Z
	??$?0H$0A@@?$duration@_JU?$ratio@$00$0JIJGIA@@std@@@chrono@std@@QEAA@AEBH@Z
	??$?0H@?$allocator@U?$_List_node@HPEAX@std@@@std@@QEAA@AEBV?$allocator@H@1@@Z
	??$?0H@?$allocator@V?$_List_unchecked_const_iterator@V?$_List_val@U?$_List_simple_types@H@std@@@std@@U_Iterator_base0@2@@std@@@std@@QEAA@AEBV?$allocator@H@1@@Z
	??$?0H@FormatArgImpl@str_format_internal@lts_20250814@absl@@QEAA@AEBH@Z
	??$?0HU?$ratio@$0OBA@$00@std@@$0A@@?$duration@_JU?$ratio@$00$00@std@@@chrono@std@@QEAA@AEBV?$duration@HU?$ratio@$0OBA@$00@std@@@12@@Z
	??$?0I$0A@@?$optional@I@std@@QEAA@$$QEAI@Z
	??$?0I@?$Storage@_K$00U?$StorageTag@V?$allocator@PEAUCordRep@cord_internal@lts_20250814@absl@@@std@@_K@internal_compressed_tuple@container_internal@lts_20250814@absl@@$0A@@internal_compressed_tuple@container_internal@lts_20250814@absl@@QEAA@Uin_place_t@std@@$$QEAI@Z
	??$?0I@?$Storage@_K$00U?$StorageTag@V?$allocator@PEAVLogSink@lts_20250814@absl@@@std@@_K@internal_compressed_tuple@container_internal@lts_20250814@absl@@$0A@@internal_compressed_tuple@container_internal@lts_20250814@absl@@QEAA@Uin_place_t@std@@$$QEAI@Z
	??$?0I@?$Storage@_K$00U?$StorageTag@V?$allocator@UPayload@status_internal@lts_20250814@absl@@@std@@_K@internal_compressed_tuple@container_internal@lts_20250814@absl@@$0A@@internal_compressed_tuple@container_internal@lts_20250814@absl@@QEAA@Uin_place_t@std@@$$QEAI@Z
	??$?0I@?$Storage@_K$00U?$StorageTag@V?$allocator@VFormatArgImpl@str_format_internal@lts_20250814@absl@@@std@@_K@internal_compressed_tuple@container_internal@lts_20250814@absl@@$0A@@internal_compressed_tuple@container_internal@lts_20250814@absl@@QEAA@Uin_place_t@std@@$$QEAI@Z
	??$?0I@?$_Optional_construct_base@I@std@@QEAA@Uin_place_t@1@$$QEAI@Z
	??$?0I@?$_Optional_destruct_base@I$00@std@@QEAA@Uin_place_t@1@$$QEAI@Z
	??$?0I@FormatArgImpl@str_format_internal@lts_20250814@absl@@QEAA@AEBI@Z
	??$?0M@?$_Compressed_pair@U?$equal_to@H@std@@M$00@std@@QEAA@U_Zero_then_variadic_args_t@1@$$QEAM@Z
	??$?0M@?$_Compressed_pair@U?$equal_to@PEBUCordRep@cord_internal@lts_20250814@absl@@@std@@M$00@std@@QEAA@U_Zero_then_variadic_args_t@1@$$QEAM@Z
	??$?0M@?$_Compressed_pair@U?$equal_to@V?$basic_string@DU?$char_traits@D@std@@V?$allocator@D@2@@std@@@std@@M$00@std@@QEAA@U_Zero_then_variadic_args_t@1@$$QEAM@Z
	??$?0NAEA_K$0A@@?$pair@N_K@std@@QEAA@$$QEANAEA_K@Z
	??$?0P6AHPEAU_iobuf@@@Z$0A@@?$unique_ptr@U_iobuf@@P6AHPEAU1@@Z@std@@QEAA@$$QEAV01@@Z
	??$?0P6AHPEAU_iobuf@@@Z$0A@@?$unique_ptr@U_iobuf@@P6AHPEAU1@@Z@std@@QEAA@PEAU_iobuf@@$$QEAP6AH0@Z@Z
	??$?0P6AHPEAU_iobuf@@@ZAEAPEAU0@@?$_Compressed_pair@P6AHPEAU_iobuf@@@ZPEAU1@$0A@@std@@QEAA@U_One_then_variadic_args_t@1@$$QEAP6AHPEAU_iobuf@@@ZAEAPEAU3@@Z
	??$?0P6AHPEAU_iobuf@@@ZPEAU0@@?$_Compressed_pair@P6AHPEAU_iobuf@@@ZPEAU1@$0A@@std@@QEAA@U_One_then_variadic_args_t@1@$$QEAP6AHPEAU_iobuf@@@Z$$QEAPEAU3@@Z
	??$?0P6AXPEAX@Z$0A@@?$unique_ptr@UThreadIdentity@base_internal@lts_20250814@absl@@P6AXPEAX@Z@std@@QEAA@PEAUThreadIdentity@base_internal@lts_20250814@absl@@AEBQ6AXPEAX@Z@Z
	??$?0PEADU?$default_delete@$$BY0A@D@std@@$0A@$0A@@?$unique_ptr@$$BY0A@DU?$default_delete@$$BY0A@D@std@@@std@@QEAA@PEAD@Z
	??$?0PEAI@?$SaltedSeedSeq@Vseed_seq@std@@@random_internal@lts_20250814@absl@@QEAA@PEAI0@Z
	??$?0PEAI@seed_seq@std@@QEAA@PEAI0@Z
	??$?0PEAU?$_List_node@U?$pair@$$CBV?$basic_string@DU?$char_traits@D@std@@V?$allocator@D@2@@std@@PEBVImpl@time_zone@cctz@time_internal@lts_20250814@absl@@@std@@PEAX@std@@_N$0A@@?$pair@PEAU?$_List_node@U?$pair@$$CBV?$basic_string@DU?$char_traits@D@std@@V?$allocator@D@2@@std@@PEBVImpl@time_zone@cctz@time_internal@lts_20250814@absl@@@std@@PEAX@std@@_N@std@@QEAA@$$QEAPEAU?$_List_node@U?$pair@$$CBV?$basic_string@DU?$char_traits@D@std@@V?$allocator@D@2@@std@@PEBVImpl@time_zone@cctz@time_internal@lts_20250814@absl@@@std@@PEAX@1@$$QEA_N@Z
	??$?0PEAV?$btree_node@U?$map_params@_K_KU?$less@_K@std@@V?$allocator@U?$pair@$$CB_K_K@std@@@2@$0BAA@$0A@@container_internal@lts_20250814@absl@@@container_internal@lts_20250814@absl@@@?$Storage@PEAV?$btree_node@U?$map_params@_K_KU?$less@_K@std@@V?$allocator@U?$pair@$$CB_K_K@std@@@2@$0BAA@$0A@@container_internal@lts_20250814@absl@@@container_internal@lts_20250814@absl@@$01U?$StorageTag@Uchecked_compare@?$key_compare_adapter@U?$less@_K@std@@_K@container_internal@lts_20250814@absl@@V?$allocator@U?$pair@$$CB_K_K@std@@@std@@PEAV?$btree_node@U?$map_params@_K_KU?$less@_K@std@@V?$allocator@U?$pair@$$CB_K_K@std@@@2@$0BAA@$0A@@container_internal@lts_20250814@absl@@@345@@internal_compressed_tuple@234@$0A@@internal_compressed_tuple@container_internal@lts_20250814@absl@@QEAA@Uin_place_t@std@@$$QEAPEAV?$btree_node@U?$map_params@_K_KU?$less@_K@std@@V?$allocator@U?$pair@$$CB_K_K@std@@@2@$0BAA@$0A@@container_internal@lts_20250814@absl@@@234@@Z
	??$?0PEAW4ctrl_t@container_internal@lts_20250814@absl@@AEAPEAX$0A@@?$pair@PEAW4ctrl_t@container_internal@lts_20250814@absl@@PEAX@std@@QEAA@$$QEAPEAW4ctrl_t@container_internal@lts_20250814@absl@@AEAPEAX@Z
	??$?0PEAW4ctrl_t@container_internal@lts_20250814@absl@@AEBQEAX$0A@@?$pair@PEAW4ctrl_t@container_internal@lts_20250814@absl@@PEAX@std@@QEAA@$$QEAPEAW4ctrl_t@container_internal@lts_20250814@absl@@AEBQEAX@Z
	??$?0PEAW4ctrl_t@container_internal@lts_20250814@absl@@PEAX$0A@@?$pair@PEAW4ctrl_t@container_internal@lts_20250814@absl@@PEAX@std@@QEAA@$$QEAPEAW4ctrl_t@container_internal@lts_20250814@absl@@$$QEAPEAX@Z
	??$?0PEBD$0A@@?$basic_string@DU?$char_traits@D@std@@V?$allocator@D@2@@std@@QEAA@PEBD0AEBV?$allocator@D@1@@Z
	??$?0PEBD@FormatArgImpl@str_format_internal@lts_20250814@absl@@QEAA@AEBQEBD@Z
	??$?0PEBU?$pair@V?$basic_string@DU?$char_traits@D@std@@V?$allocator@D@2@@std@@W4StringId@debugging_internal@lts_20250814@absl@@@std@@@?$raw_hash_set@U?$FlatHashMapPolicy@V?$basic_string@DU?$char_traits@D@std@@V?$allocator@D@2@@std@@W4StringId@debugging_internal@lts_20250814@absl@@@container_internal@lts_20250814@absl@@UStringHash@234@UStringEq@234@V?$allocator@U?$pair@$$CBV?$basic_string@DU?$char_traits@D@std@@V?$allocator@D@2@@std@@W4StringId@debugging_internal@lts_20250814@absl@@@std@@@std@@@container_internal@lts_20250814@absl@@QEAA@PEBU?$pair@V?$basic_string@DU?$char_traits@D@std@@V?$allocator@D@2@@std@@W4StringId@debugging_internal@lts_20250814@absl@@@std@@0_KAEBUStringHash@123@AEBUStringEq@123@AEBV?$allocator@U?$pair@$$CBV?$basic_string@DU?$char_traits@D@std@@V?$allocator@D@2@@std@@W4StringId@debugging_internal@lts_20250814@absl@@@std@@@5@@Z
	??$?0PEBUCordRep@cord_internal@lts_20250814@absl@@@?$allocator@U?$_List_node@PEBUCordRep@cord_internal@lts_20250814@absl@@PEAX@std@@@std@@QEAA@AEBV?$allocator@PEBUCordRep@cord_internal@lts_20250814@absl@@@1@@Z
	??$?0PEBUCordRep@cord_internal@lts_20250814@absl@@@?$allocator@V?$_List_unchecked_const_iterator@V?$_List_val@U?$_List_simple_types@PEBUCordRep@cord_internal@lts_20250814@absl@@@std@@@std@@U_Iterator_base0@2@@std@@@std@@QEAA@AEBV?$allocator@PEBUCordRep@cord_internal@lts_20250814@absl@@@1@@Z
	??$?0PEBVFormatArgImpl@str_format_internal@lts_20250814@absl@@$0A@@?$InlinedVector@VFormatArgImpl@str_format_internal@lts_20250814@absl@@$03V?$allocator@VFormatArgImpl@str_format_internal@lts_20250814@absl@@@std@@@lts_20250814@absl@@QEAA@PEBVFormatArgImpl@str_format_internal@12@0AEBV?$allocator@VFormatArgImpl@str_format_internal@lts_20250814@absl@@@std@@@Z
	??$?0PEBVImpl@time_zone@cctz@time_internal@lts_20250814@absl@@@?$allocator@PEAPEBVImpl@time_zone@cctz@time_internal@lts_20250814@absl@@@std@@QEAA@AEBV?$allocator@PEBVImpl@time_zone@cctz@time_internal@lts_20250814@absl@@@1@@Z
	??$?0PEBVImpl@time_zone@cctz@time_internal@lts_20250814@absl@@@?$allocator@U_Container_proxy@std@@@std@@QEAA@AEBV?$allocator@PEBVImpl@time_zone@cctz@time_internal@lts_20250814@absl@@@1@@Z
	??$?0U?$Hash@_K@hash_internal@lts_20250814@absl@@@?$Storage@U?$Hash@_K@hash_internal@lts_20250814@absl@@$00U?$StorageTag@VCommonFields@container_internal@lts_20250814@absl@@U?$Hash@_K@hash_internal@34@U?$equal_to@_K@std@@V?$allocator@D@8@@internal_compressed_tuple@container_internal@34@$00@internal_compressed_tuple@container_internal@lts_20250814@absl@@QEAA@Uin_place_t@std@@$$QEAU?$Hash@_K@hash_internal@34@@Z
	??$?0U?$HashKey@U?$Hash@_K@hash_internal@lts_20250814@absl@@_K$00@container_internal@lts_20250814@absl@@X@?$FunctionRef@$$A6A_K_K@Z@lts_20250814@absl@@QEAA@AEBU?$HashKey@U?$Hash@_K@hash_internal@lts_20250814@absl@@_K$00@container_internal@12@@Z
	??$?0U?$HashKey@UStringHash@container_internal@lts_20250814@absl@@V?$basic_string@DU?$char_traits@D@std@@V?$allocator@D@2@@std@@$00@container_internal@lts_20250814@absl@@X@?$FunctionRef@$$A6A_K_K@Z@lts_20250814@absl@@QEAA@AEBU?$HashKey@UStringHash@container_internal@lts_20250814@absl@@V?$basic_string@DU?$char_traits@D@std@@V?$allocator@D@2@@std@@$00@container_internal@12@@Z
	??$?0U?$HashKey@UStringHash@container_internal@lts_20250814@absl@@V?$basic_string_view@DU?$char_traits@D@std@@@std@@$00@container_internal@lts_20250814@absl@@X@?$FunctionRef@$$A6A_K_K@Z@lts_20250814@absl@@QEAA@AEBU?$HashKey@UStringHash@container_internal@lts_20250814@absl@@V?$basic_string_view@DU?$char_traits@D@std@@@std@@$00@container_internal@12@@Z
	??$?0U?$default_delete@$$CBVImpl@time_zone@cctz@time_internal@lts_20250814@absl@@@std@@$0A@@?$unique_ptr@$$CBVImpl@time_zone@cctz@time_internal@lts_20250814@absl@@U?$default_delete@$$CBVImpl@time_zone@cctz@time_internal@lts_20250814@absl@@@std@@@std@@QEAA@PEBVImpl@time_zone@cctz@time_internal@lts_20250814@absl@@@Z
	??$?0U?$default_delete@ULogMessageData@LogMessage@log_internal@lts_20250814@absl@@@std@@$0A@@?$unique_ptr@ULogMessageData@LogMessage@log_internal@lts_20250814@absl@@U?$default_delete@ULogMessageData@LogMessage@log_internal@lts_20250814@absl@@@std@@@std@@QEAA@PEAULogMessageData@LogMessage@log_internal@lts_20250814@absl@@@Z
	??$?0U?$default_delete@V?$InlinedVector@UPayload@status_internal@lts_20250814@absl@@$00V?$allocator@UPayload@status_internal@lts_20250814@absl@@@std@@@lts_20250814@absl@@@std@@$0A@@?$unique_ptr@V?$InlinedVector@UPayload@status_internal@lts_20250814@absl@@$00V?$allocator@UPayload@status_internal@lts_20250814@absl@@@std@@@lts_20250814@absl@@U?$default_delete@V?$InlinedVector@UPayload@status_internal@lts_20250814@absl@@$00V?$allocator@UPayload@status_internal@lts_20250814@absl@@@std@@@lts_20250814@absl@@@std@@@std@@QEAA@$$QEAV01@@Z
	??$?0U?$default_delete@V?$InlinedVector@UPayload@status_internal@lts_20250814@absl@@$00V?$allocator@UPayload@status_internal@lts_20250814@absl@@@std@@@lts_20250814@absl@@@std@@$0A@@?$unique_ptr@V?$InlinedVector@UPayload@status_internal@lts_20250814@absl@@$00V?$allocator@UPayload@status_internal@lts_20250814@absl@@@std@@@lts_20250814@absl@@U?$default_delete@V?$InlinedVector@UPayload@status_internal@lts_20250814@absl@@$00V?$allocator@UPayload@status_internal@lts_20250814@absl@@@std@@@lts_20250814@absl@@@std@@@std@@QEAA@$$T@Z
	??$?0U?$default_delete@V?$InlinedVector@UPayload@status_internal@lts_20250814@absl@@$00V?$allocator@UPayload@status_internal@lts_20250814@absl@@@std@@@lts_20250814@absl@@@std@@$0A@@?$unique_ptr@V?$InlinedVector@UPayload@status_internal@lts_20250814@absl@@$00V?$allocator@UPayload@status_internal@lts_20250814@absl@@@std@@@lts_20250814@absl@@U?$default_delete@V?$InlinedVector@UPayload@status_internal@lts_20250814@absl@@$00V?$allocator@UPayload@status_internal@lts_20250814@absl@@@std@@@lts_20250814@absl@@@std@@@std@@QEAA@PEAV?$InlinedVector@UPayload@status_internal@lts_20250814@absl@@$00V?$allocator@UPayload@status_internal@lts_20250814@absl@@@std@@@lts_20250814@absl@@@Z
	??$?0U?$default_delete@V?$InlinedVector@UPayload@status_internal@lts_20250814@absl@@$00V?$allocator@UPayload@status_internal@lts_20250814@absl@@@std@@@lts_20250814@absl@@@std@@$0A@@?$unique_ptr@V?$InlinedVector@UPayload@status_internal@lts_20250814@absl@@$00V?$allocator@UPayload@status_internal@lts_20250814@absl@@@std@@@lts_20250814@absl@@U?$default_delete@V?$InlinedVector@UPayload@status_internal@lts_20250814@absl@@$00V?$allocator@UPayload@status_internal@lts_20250814@absl@@@std@@@lts_20250814@absl@@@std@@@std@@QEAA@XZ
	??$?0U?$default_delete@V?$InlinedVector@UPayload@status_internal@lts_20250814@absl@@$00V?$allocator@UPayload@status_internal@lts_20250814@absl@@@std@@@lts_20250814@absl@@@std@@PEAV?$InlinedVector@UPayload@status_internal@lts_20250814@absl@@$00V?$allocator@UPayload@status_internal@lts_20250814@absl@@@std@@@lts_20250814@absl@@@?$_Compressed_pair@U?$default_delete@V?$InlinedVector@UPayload@status_internal@lts_20250814@absl@@$00V?$allocator@UPayload@status_internal@lts_20250814@absl@@@std@@@lts_20250814@absl@@@std@@PEAV?$InlinedVector@UPayload@status_internal@lts_20250814@absl@@$00V?$allocator@UPayload@status_internal@lts_20250814@absl@@@std@@@lts_20250814@absl@@$00@std@@QEAA@U_One_then_variadic_args_t@1@$$QEAU?$default_delete@V?$InlinedVector@UPayload@status_internal@lts_20250814@absl@@$00V?$allocator@UPayload@status_internal@lts_20250814@absl@@@std@@@lts_20250814@absl@@@1@$$QEAPEAV?$InlinedVector@UPayload@status_internal@lts_20250814@absl@@$00V?$allocator@UPayload@status_internal@lts_20250814@absl@@@std@@@lts_20250814@absl@@@Z
	??$?0U?$default_delete@VFallbackCrcMemcpyEngine@crc_internal@lts_20250814@absl@@@std@@$0A@@?$unique_ptr@VFallbackCrcMemcpyEngine@crc_internal@lts_20250814@absl@@U?$default_delete@VFallbackCrcMemcpyEngine@crc_internal@lts_20250814@absl@@@std@@@std@@QEAA@PEAVFallbackCrcMemcpyEngine@crc_internal@lts_20250814@absl@@@Z
	??$?0U?$default_delete@VFallbackCrcMemcpyEngine@crc_internal@lts_20250814@absl@@@std@@PEAVFallbackCrcMemcpyEngine@crc_internal@lts_20250814@absl@@@?$_Compressed_pair@U?$default_delete@VCrcMemcpyEngine@crc_internal@lts_20250814@absl@@@std@@PEAVCrcMemcpyEngine@crc_internal@lts_20250814@absl@@$00@std@@QEAA@U_One_then_variadic_args_t@1@$$QEAU?$default_delete@VFallbackCrcMemcpyEngine@crc_internal@lts_20250814@absl@@@1@$$QEAPEAVFallbackCrcMemcpyEngine@crc_internal@lts_20250814@absl@@@Z
	??$?0U?$default_delete@VTimeZoneInfo@cctz@time_internal@lts_20250814@absl@@@std@@$0A@@?$unique_ptr@VTimeZoneInfo@cctz@time_internal@lts_20250814@absl@@U?$default_delete@VTimeZoneInfo@cctz@time_internal@lts_20250814@absl@@@std@@@std@@QEAA@$$QEAV01@@Z
	??$?0U?$default_delete@VTimeZoneInfo@cctz@time_internal@lts_20250814@absl@@@std@@$0A@@?$unique_ptr@VTimeZoneInfo@cctz@time_internal@lts_20250814@absl@@U?$default_delete@VTimeZoneInfo@cctz@time_internal@lts_20250814@absl@@@std@@@std@@QEAA@PEAVTimeZoneInfo@cctz@time_internal@lts_20250814@absl@@@Z
	??$?0U?$default_delete@VTimeZoneInfo@cctz@time_internal@lts_20250814@absl@@@std@@PEAVTimeZoneInfo@cctz@time_internal@lts_20250814@absl@@@?$_Compressed_pair@U?$default_delete@VTimeZoneIf@cctz@time_internal@lts_20250814@absl@@@std@@PEAVTimeZoneIf@cctz@time_internal@lts_20250814@absl@@$00@std@@QEAA@U_One_then_variadic_args_t@1@$$QEAU?$default_delete@VTimeZoneInfo@cctz@time_internal@lts_20250814@absl@@@1@$$QEAPEAVTimeZoneInfo@cctz@time_internal@lts_20250814@absl@@@Z
	??$?0U?$default_delete@VTimeZoneInfo@cctz@time_internal@lts_20250814@absl@@@std@@PEAVTimeZoneInfo@cctz@time_internal@lts_20250814@absl@@@?$_Compressed_pair@U?$default_delete@VTimeZoneInfo@cctz@time_internal@lts_20250814@absl@@@std@@PEAVTimeZoneInfo@cctz@time_internal@lts_20250814@absl@@$00@std@@QEAA@U_One_then_variadic_args_t@1@$$QEAU?$default_delete@VTimeZoneInfo@cctz@time_internal@lts_20250814@absl@@@1@$$QEAPEAVTimeZoneInfo@cctz@time_internal@lts_20250814@absl@@@Z
	??$?0U?$default_delete@VTimeZoneLibC@cctz@time_internal@lts_20250814@absl@@@std@@$0A@@?$unique_ptr@VTimeZoneLibC@cctz@time_internal@lts_20250814@absl@@U?$default_delete@VTimeZoneLibC@cctz@time_internal@lts_20250814@absl@@@std@@@std@@QEAA@PEAVTimeZoneLibC@cctz@time_internal@lts_20250814@absl@@@Z
	??$?0U?$default_delete@VTimeZoneLibC@cctz@time_internal@lts_20250814@absl@@@std@@PEAVTimeZoneLibC@cctz@time_internal@lts_20250814@absl@@@?$_Compressed_pair@U?$default_delete@VTimeZoneIf@cctz@time_internal@lts_20250814@absl@@@std@@PEAVTimeZoneIf@cctz@time_internal@lts_20250814@absl@@$00@std@@QEAA@U_One_then_variadic_args_t@1@$$QEAU?$default_delete@VTimeZoneLibC@cctz@time_internal@lts_20250814@absl@@@1@$$QEAPEAVTimeZoneLibC@cctz@time_internal@lts_20250814@absl@@@Z
	??$?0U?$default_delete@VZoneInfoSource@cctz@time_internal@lts_20250814@absl@@@std@@$0A@@?$unique_ptr@VZoneInfoSource@cctz@time_internal@lts_20250814@absl@@U?$default_delete@VZoneInfoSource@cctz@time_internal@lts_20250814@absl@@@std@@@std@@QEAA@$$QEAV01@@Z
	??$?0U?$default_delete@VZoneInfoSource@cctz@time_internal@lts_20250814@absl@@@std@@$0A@@?$unique_ptr@VZoneInfoSource@cctz@time_internal@lts_20250814@absl@@U?$default_delete@VZoneInfoSource@cctz@time_internal@lts_20250814@absl@@@std@@@std@@QEAA@$$T@Z
	??$?0U?$default_delete@VZoneInfoSource@cctz@time_internal@lts_20250814@absl@@@std@@$0A@@?$unique_ptr@VZoneInfoSource@cctz@time_internal@lts_20250814@absl@@U?$default_delete@VZoneInfoSource@cctz@time_internal@lts_20250814@absl@@@std@@@std@@QEAA@PEAVZoneInfoSource@cctz@time_internal@lts_20250814@absl@@@Z
	??$?0U?$default_delete@VZoneInfoSource@cctz@time_internal@lts_20250814@absl@@@std@@PEAVZoneInfoSource@cctz@time_internal@lts_20250814@absl@@@?$_Compressed_pair@U?$default_delete@VZoneInfoSource@cctz@time_internal@lts_20250814@absl@@@std@@PEAVZoneInfoSource@cctz@time_internal@lts_20250814@absl@@$00@std@@QEAA@U_One_then_variadic_args_t@1@$$QEAU?$default_delete@VZoneInfoSource@cctz@time_internal@lts_20250814@absl@@@1@$$QEAPEAVZoneInfoSource@cctz@time_internal@lts_20250814@absl@@@Z
	??$?0U?$default_delete@V_Facet_base@std@@@std@@$0A@@?$unique_ptr@V_Facet_base@std@@U?$default_delete@V_Facet_base@std@@@2@@std@@QEAA@PEAV_Facet_base@1@@Z
	??$?0U?$default_delete@Vseed_seq@std@@@std@@$0A@@?$unique_ptr@Vseed_seq@std@@U?$default_delete@Vseed_seq@std@@@2@@std@@QEAA@PEAVseed_seq@1@@Z
	??$?0U?$equal_to@_K@std@@@?$Storage@U?$equal_to@_K@std@@$01U?$StorageTag@VCommonFields@container_internal@lts_20250814@absl@@U?$Hash@_K@hash_internal@34@U?$equal_to@_K@std@@V?$allocator@D@8@@internal_compressed_tuple@container_internal@lts_20250814@absl@@$00@internal_compressed_tuple@container_internal@lts_20250814@absl@@QEAA@Uin_place_t@std@@$$QEAU?$equal_to@_K@6@@Z
	??$?0U?$pair@$$CBV?$basic_string@DU?$char_traits@D@std@@V?$allocator@D@2@@std@@PEBVImpl@time_zone@cctz@time_internal@lts_20250814@absl@@@std@@@?$allocator@U?$_List_node@U?$pair@$$CBV?$basic_string@DU?$char_traits@D@std@@V?$allocator@D@2@@std@@PEBVImpl@time_zone@cctz@time_internal@lts_20250814@absl@@@std@@PEAX@std@@@std@@QEAA@AEBV?$allocator@U?$pair@$$CBV?$basic_string@DU?$char_traits@D@std@@V?$allocator@D@2@@std@@PEBVImpl@time_zone@cctz@time_internal@lts_20250814@absl@@@std@@@1@@Z
	??$?0U?$pair@$$CBV?$basic_string@DU?$char_traits@D@std@@V?$allocator@D@2@@std@@PEBVImpl@time_zone@cctz@time_internal@lts_20250814@absl@@@std@@@?$allocator@V?$_List_unchecked_iterator@V?$_List_val@U?$_List_simple_types@U?$pair@$$CBV?$basic_string@DU?$char_traits@D@std@@V?$allocator@D@2@@std@@PEBVImpl@time_zone@cctz@time_internal@lts_20250814@absl@@@std@@@std@@@std@@@std@@@std@@QEAA@AEBV?$allocator@U?$pair@$$CBV?$basic_string@DU?$char_traits@D@std@@V?$allocator@D@2@@std@@PEBVImpl@time_zone@cctz@time_internal@lts_20250814@absl@@@std@@@1@@Z
	??$?0U?$pair@$$CBV?$basic_string@DU?$char_traits@D@std@@V?$allocator@D@2@@std@@W4StringId@debugging_internal@lts_20250814@absl@@@std@@@?$allocator@D@std@@QEAA@AEBV?$allocator@U?$pair@$$CBV?$basic_string@DU?$char_traits@D@std@@V?$allocator@D@2@@std@@W4StringId@debugging_internal@lts_20250814@absl@@@std@@@1@@Z
	??$?0U?$pair@$$CB_K_K@std@@@?$allocator@U?$AlignedType@$07@container_internal@lts_20250814@absl@@@std@@QEAA@AEBV?$allocator@U?$pair@$$CB_K_K@std@@@1@@Z
	??$?0UHex@lts_20250814@absl@@X@AlphaNum@lts_20250814@absl@@QEAA@AEBUHex@12@$$QEAVStringifySink@strings_internal@12@@Z
	??$?0UPrefixCrc@CrcCordState@crc_internal@lts_20250814@absl@@@?$allocator@PEAUPrefixCrc@CrcCordState@crc_internal@lts_20250814@absl@@@std@@QEAA@AEBV?$allocator@UPrefixCrc@CrcCordState@crc_internal@lts_20250814@absl@@@1@@Z
	??$?0UPrefixCrc@CrcCordState@crc_internal@lts_20250814@absl@@@?$allocator@U_Container_proxy@std@@@std@@QEAA@AEBV?$allocator@UPrefixCrc@CrcCordState@crc_internal@lts_20250814@absl@@@1@@Z
	??$?0USynchEvent@lts_20250814@absl@@@Condition@lts_20250814@absl@@QEAA@P6A_NPEAUSynchEvent@12@@Z0@Z
	??$?0U_Exact_args_t@std@@$0A@@?$tuple@$$V@std@@QEAA@U_Exact_args_t@1@@Z
	??$?0U_Exact_args_t@std@@AEAV?$basic_string_view@DU?$char_traits@D@std@@@1@$$V$0A@@?$tuple@AEAV?$basic_string_view@DU?$char_traits@D@std@@@std@@@std@@QEAA@U_Exact_args_t@1@AEAV?$basic_string_view@DU?$char_traits@D@std@@@1@@Z
	??$?0U_Exact_args_t@std@@AEBH$$V$0A@@?$tuple@AEBH@std@@QEAA@U_Exact_args_t@1@AEBH@Z
	??$?0U_Exact_args_t@std@@AEBV?$basic_string@DU?$char_traits@D@std@@V?$allocator@D@2@@1@$$V$0A@@?$tuple@AEBV?$basic_string@DU?$char_traits@D@std@@V?$allocator@D@2@@std@@@std@@QEAA@U_Exact_args_t@1@AEBV?$basic_string@DU?$char_traits@D@std@@V?$allocator@D@2@@1@@Z
	??$?0U_Exact_args_t@std@@AEBV?$basic_string_view@DU?$char_traits@D@std@@@1@AEBH$0A@@?$tuple@AEBV?$basic_string_view@DU?$char_traits@D@std@@@std@@AEBH@std@@QEAA@U_Exact_args_t@1@AEBV?$basic_string_view@DU?$char_traits@D@std@@@1@AEBH@Z
	??$?0U_Exact_args_t@std@@AEBW4LocationId@debugging_internal@lts_20250814@absl@@$$V$0A@@?$tuple@AEBW4LocationId@debugging_internal@lts_20250814@absl@@@std@@QEAA@U_Exact_args_t@1@AEBW4LocationId@debugging_internal@lts_20250814@absl@@@Z
	??$?0U_Exact_args_t@std@@AEBW4StringId@debugging_internal@lts_20250814@absl@@$$V$0A@@?$tuple@AEBW4StringId@debugging_internal@lts_20250814@absl@@@std@@QEAA@U_Exact_args_t@1@AEBW4StringId@debugging_internal@lts_20250814@absl@@@Z
	??$?0U_Exact_args_t@std@@AEB_K$$V$0A@@?$tuple@AEB_K@std@@QEAA@U_Exact_args_t@1@AEB_K@Z
	??$?0U_Exact_args_t@std@@W4LocationId@debugging_internal@lts_20250814@absl@@$$V$0A@@?$tuple@$$QEAW4LocationId@debugging_internal@lts_20250814@absl@@@std@@QEAA@U_Exact_args_t@1@$$QEAW4LocationId@debugging_internal@lts_20250814@absl@@@Z
	??$?0U_Exact_args_t@std@@W4StringId@debugging_internal@lts_20250814@absl@@$$V$0A@@?$tuple@$$QEAW4StringId@debugging_internal@lts_20250814@absl@@@std@@QEAA@U_Exact_args_t@1@$$QEAW4StringId@debugging_internal@lts_20250814@absl@@@Z
	??$?0U_Exact_args_t@std@@_K$$V$0A@@?$tuple@$$QEA_K@std@@QEAA@U_Exact_args_t@1@$$QEA_K@Z
	??$?0U_Zero_then_variadic_args_t@std@@M@?$_Compressed_pair@U?$hash@H@std@@V?$_Compressed_pair@U?$equal_to@H@std@@M$00@2@$00@std@@QEAA@U_Zero_then_variadic_args_t@1@$$QEAU21@$$QEAM@Z
	??$?0U_Zero_then_variadic_args_t@std@@M@?$_Compressed_pair@U?$hash@PEBUCordRep@cord_internal@lts_20250814@absl@@@std@@V?$_Compressed_pair@U?$equal_to@PEBUCordRep@cord_internal@lts_20250814@absl@@@std@@M$00@2@$00@std@@QEAA@U_Zero_then_variadic_args_t@1@$$QEAU21@$$QEAM@Z
	??$?0U_Zero_then_variadic_args_t@std@@M@?$_Compressed_pair@U?$hash@V?$basic_string@DU?$char_traits@D@std@@V?$allocator@D@2@@std@@@std@@V?$_Compressed_pair@U?$equal_to@V?$basic_string@DU?$char_traits@D@std@@V?$allocator@D@2@@std@@@std@@M$00@2@$00@std@@QEAA@U_Zero_then_variadic_args_t@1@$$QEAU21@$$QEAM@Z
	??$?0Uday_tag@detail@cctz@time_internal@lts_20250814@absl@@@?$civil_time@Umonth_tag@detail@cctz@time_internal@lts_20250814@absl@@@detail@cctz@time_internal@lts_20250814@absl@@QEAA@AEBV?$civil_time@Uday_tag@detail@cctz@time_internal@lts_20250814@absl@@@12345@PEAX@Z
	??$?0Uday_tag@detail@cctz@time_internal@lts_20250814@absl@@@?$civil_time@Usecond_tag@detail@cctz@time_internal@lts_20250814@absl@@@detail@cctz@time_internal@lts_20250814@absl@@QEAA@AEBV?$civil_time@Uday_tag@detail@cctz@time_internal@lts_20250814@absl@@@12345@PEAX@Z
	??$?0Uday_tag@detail@cctz@time_internal@lts_20250814@absl@@@?$civil_time@Uyear_tag@detail@cctz@time_internal@lts_20250814@absl@@@detail@cctz@time_internal@lts_20250814@absl@@QEAA@AEBV?$civil_time@Uday_tag@detail@cctz@time_internal@lts_20250814@absl@@@12345@PEAX@Z
	??$?0Uday_tag@time_internal@lts_20250814@absl@@@?$civil_time@Uhour_tag@time_internal@lts_20250814@absl@@@detail@cctz@time_internal@lts_20250814@absl@@QEAA@AEBV?$civil_time@Uday_tag@time_internal@lts_20250814@absl@@@12345@PEAX@Z
	??$?0Uday_tag@time_internal@lts_20250814@absl@@@?$civil_time@Uminute_tag@time_internal@lts_20250814@absl@@@detail@cctz@time_internal@lts_20250814@absl@@QEAA@AEBV?$civil_time@Uday_tag@time_internal@lts_20250814@absl@@@12345@PEAX@Z
	??$?0Uday_tag@time_internal@lts_20250814@absl@@@?$civil_time@Umonth_tag@time_internal@lts_20250814@absl@@@detail@cctz@time_internal@lts_20250814@absl@@QEAA@AEBV?$civil_time@Uday_tag@time_internal@lts_20250814@absl@@@12345@PEAX@Z
	??$?0Uday_tag@time_internal@lts_20250814@absl@@@?$civil_time@Usecond_tag@time_internal@lts_20250814@absl@@@detail@cctz@time_internal@lts_20250814@absl@@QEAA@AEBV?$civil_time@Uday_tag@time_internal@lts_20250814@absl@@@12345@PEAX@Z
	??$?0Uday_tag@time_internal@lts_20250814@absl@@@?$civil_time@Uyear_tag@time_internal@lts_20250814@absl@@@detail@cctz@time_internal@lts_20250814@absl@@QEAA@AEBV?$civil_time@Uday_tag@time_internal@lts_20250814@absl@@@12345@PEAX@Z
	??$?0Uhour_tag@detail@cctz@time_internal@lts_20250814@absl@@@?$civil_time@Uday_tag@detail@cctz@time_internal@lts_20250814@absl@@@detail@cctz@time_internal@lts_20250814@absl@@QEAA@AEBV?$civil_time@Uhour_tag@detail@cctz@time_internal@lts_20250814@absl@@@12345@PEAX@Z
	??$?0Uhour_tag@time_internal@lts_20250814@absl@@@?$civil_time@Uday_tag@time_internal@lts_20250814@absl@@@detail@cctz@time_internal@lts_20250814@absl@@QEAA@AEBV?$civil_time@Uhour_tag@time_internal@lts_20250814@absl@@@12345@PEAX@Z
	??$?0Uhour_tag@time_internal@lts_20250814@absl@@@?$civil_time@Uminute_tag@time_internal@lts_20250814@absl@@@detail@cctz@time_internal@lts_20250814@absl@@QEAA@AEBV?$civil_time@Uhour_tag@time_internal@lts_20250814@absl@@@12345@PEAX@Z
	??$?0Uhour_tag@time_internal@lts_20250814@absl@@@?$civil_time@Umonth_tag@time_internal@lts_20250814@absl@@@detail@cctz@time_internal@lts_20250814@absl@@QEAA@AEBV?$civil_time@Uhour_tag@time_internal@lts_20250814@absl@@@12345@PEAX@Z
	??$?0Uhour_tag@time_internal@lts_20250814@absl@@@?$civil_time@Usecond_tag@time_internal@lts_20250814@absl@@@detail@cctz@time_internal@lts_20250814@absl@@QEAA@AEBV?$civil_time@Uhour_tag@time_internal@lts_20250814@absl@@@12345@PEAX@Z
	??$?0Uhour_tag@time_internal@lts_20250814@absl@@@?$civil_time@Uyear_tag@time_internal@lts_20250814@absl@@@detail@cctz@time_internal@lts_20250814@absl@@QEAA@AEBV?$civil_time@Uhour_tag@time_internal@lts_20250814@absl@@@12345@PEAX@Z
	??$?0Uminute_tag@detail@cctz@time_internal@lts_20250814@absl@@@?$civil_time@Uhour_tag@detail@cctz@time_internal@lts_20250814@absl@@@detail@cctz@time_internal@lts_20250814@absl@@QEAA@AEBV?$civil_time@Uminute_tag@detail@cctz@time_internal@lts_20250814@absl@@@12345@PEAX@Z
	??$?0Uminute_tag@time_internal@lts_20250814@absl@@@?$civil_time@Uday_tag@time_internal@lts_20250814@absl@@@detail@cctz@time_internal@lts_20250814@absl@@QEAA@AEBV?$civil_time@Uminute_tag@time_internal@lts_20250814@absl@@@12345@PEAX@Z
	??$?0Uminute_tag@time_internal@lts_20250814@absl@@@?$civil_time@Uhour_tag@time_internal@lts_20250814@absl@@@detail@cctz@time_internal@lts_20250814@absl@@QEAA@AEBV?$civil_time@Uminute_tag@time_internal@lts_20250814@absl@@@12345@PEAX@Z
	??$?0Uminute_tag@time_internal@lts_20250814@absl@@@?$civil_time@Umonth_tag@time_internal@lts_20250814@absl@@@detail@cctz@time_internal@lts_20250814@absl@@QEAA@AEBV?$civil_time@Uminute_tag@time_internal@lts_20250814@absl@@@12345@PEAX@Z
	??$?0Uminute_tag@time_internal@lts_20250814@absl@@@?$civil_time@Usecond_tag@time_internal@lts_20250814@absl@@@detail@cctz@time_internal@lts_20250814@absl@@QEAA@AEBV?$civil_time@Uminute_tag@time_internal@lts_20250814@absl@@@12345@PEAX@Z
	??$?0Uminute_tag@time_internal@lts_20250814@absl@@@?$civil_time@Uyear_tag@time_internal@lts_20250814@absl@@@detail@cctz@time_internal@lts_20250814@absl@@QEAA@AEBV?$civil_time@Uminute_tag@time_internal@lts_20250814@absl@@@12345@PEAX@Z
	??$?0Umonth_tag@detail@cctz@time_internal@lts_20250814@absl@@@?$civil_time@Uyear_tag@detail@cctz@time_internal@lts_20250814@absl@@@detail@cctz@time_internal@lts_20250814@absl@@QEAA@AEBV?$civil_time@Umonth_tag@detail@cctz@time_internal@lts_20250814@absl@@@12345@PEAX@Z
	??$?0Umonth_tag@time_internal@lts_20250814@absl@@@?$civil_time@Uday_tag@time_internal@lts_20250814@absl@@@detail@cctz@time_internal@lts_20250814@absl@@QEAA@AEBV?$civil_time@Umonth_tag@time_internal@lts_20250814@absl@@@12345@PEAX@Z
	??$?0Umonth_tag@time_internal@lts_20250814@absl@@@?$civil_time@Uhour_tag@time_internal@lts_20250814@absl@@@detail@cctz@time_internal@lts_20250814@absl@@QEAA@AEBV?$civil_time@Umonth_tag@time_internal@lts_20250814@absl@@@12345@PEAX@Z
	??$?0Umonth_tag@time_internal@lts_20250814@absl@@@?$civil_time@Uminute_tag@time_internal@lts_20250814@absl@@@detail@cctz@time_internal@lts_20250814@absl@@QEAA@AEBV?$civil_time@Umonth_tag@time_internal@lts_20250814@absl@@@12345@PEAX@Z
	??$?0Umonth_tag@time_internal@lts_20250814@absl@@@?$civil_time@Usecond_tag@time_internal@lts_20250814@absl@@@detail@cctz@time_internal@lts_20250814@absl@@QEAA@AEBV?$civil_time@Umonth_tag@time_internal@lts_20250814@absl@@@12345@PEAX@Z
	??$?0Umonth_tag@time_internal@lts_20250814@absl@@@?$civil_time@Uyear_tag@time_internal@lts_20250814@absl@@@detail@cctz@time_internal@lts_20250814@absl@@QEAA@AEBV?$civil_time@Umonth_tag@time_internal@lts_20250814@absl@@@12345@PEAX@Z
	??$?0Usecond_tag@detail@cctz@time_internal@lts_20250814@absl@@@?$civil_time@Uday_tag@detail@cctz@time_internal@lts_20250814@absl@@@detail@cctz@time_internal@lts_20250814@absl@@QEAA@AEBV?$civil_time@Usecond_tag@detail@cctz@time_internal@lts_20250814@absl@@@12345@PEAX@Z
	??$?0Usecond_tag@detail@cctz@time_internal@lts_20250814@absl@@@?$civil_time@Uminute_tag@detail@cctz@time_internal@lts_20250814@absl@@@detail@cctz@time_internal@lts_20250814@absl@@QEAA@AEBV?$civil_time@Usecond_tag@detail@cctz@time_internal@lts_20250814@absl@@@12345@PEAX@Z
	??$?0Usecond_tag@detail@cctz@time_internal@lts_20250814@absl@@@?$civil_time@Usecond_tag@time_internal@lts_20250814@absl@@@detail@cctz@time_internal@lts_20250814@absl@@QEAA@AEBV?$civil_time@Usecond_tag@detail@cctz@time_internal@lts_20250814@absl@@@12345@PEAX@Z
	??$?0Usecond_tag@time_internal@lts_20250814@absl@@@?$civil_time@Uday_tag@time_internal@lts_20250814@absl@@@detail@cctz@time_internal@lts_20250814@absl@@QEAA@AEBV?$civil_time@Usecond_tag@time_internal@lts_20250814@absl@@@12345@PEAX@Z
	??$?0Usecond_tag@time_internal@lts_20250814@absl@@@?$civil_time@Uhour_tag@time_internal@lts_20250814@absl@@@detail@cctz@time_internal@lts_20250814@absl@@QEAA@AEBV?$civil_time@Usecond_tag@time_internal@lts_20250814@absl@@@12345@PEAX@Z
	??$?0Usecond_tag@time_internal@lts_20250814@absl@@@?$civil_time@Uminute_tag@time_internal@lts_20250814@absl@@@detail@cctz@time_internal@lts_20250814@absl@@QEAA@AEBV?$civil_time@Usecond_tag@time_internal@lts_20250814@absl@@@12345@PEAX@Z
	??$?0Usecond_tag@time_internal@lts_20250814@absl@@@?$civil_time@Umonth_tag@time_internal@lts_20250814@absl@@@detail@cctz@time_internal@lts_20250814@absl@@QEAA@AEBV?$civil_time@Usecond_tag@time_internal@lts_20250814@absl@@@12345@PEAX@Z
	??$?0Usecond_tag@time_internal@lts_20250814@absl@@@?$civil_time@Usecond_tag@detail@cctz@time_internal@lts_20250814@absl@@@detail@cctz@time_internal@lts_20250814@absl@@QEAA@AEBV?$civil_time@Usecond_tag@time_internal@lts_20250814@absl@@@12345@PEAX@Z
	??$?0Usecond_tag@time_internal@lts_20250814@absl@@@?$civil_time@Uyear_tag@time_internal@lts_20250814@absl@@@detail@cctz@time_internal@lts_20250814@absl@@QEAA@AEBV?$civil_time@Usecond_tag@time_internal@lts_20250814@absl@@@12345@PEAX@Z
	??$?0Uyear_tag@detail@cctz@time_internal@lts_20250814@absl@@@?$civil_time@Uday_tag@detail@cctz@time_internal@lts_20250814@absl@@@detail@cctz@time_internal@lts_20250814@absl@@QEAA@AEBV?$civil_time@Uyear_tag@detail@cctz@time_internal@lts_20250814@absl@@@12345@PEAX@Z
	??$?0Uyear_tag@time_internal@lts_20250814@absl@@@?$civil_time@Uday_tag@time_internal@lts_20250814@absl@@@detail@cctz@time_internal@lts_20250814@absl@@QEAA@AEBV?$civil_time@Uyear_tag@time_internal@lts_20250814@absl@@@12345@PEAX@Z
	??$?0Uyear_tag@time_internal@lts_20250814@absl@@@?$civil_time@Uhour_tag@time_internal@lts_20250814@absl@@@detail@cctz@time_internal@lts_20250814@absl@@QEAA@AEBV?$civil_time@Uyear_tag@time_internal@lts_20250814@absl@@@12345@PEAX@Z
	??$?0Uyear_tag@time_internal@lts_20250814@absl@@@?$civil_time@Uminute_tag@time_internal@lts_20250814@absl@@@detail@cctz@time_internal@lts_20250814@absl@@QEAA@AEBV?$civil_time@Uyear_tag@time_internal@lts_20250814@absl@@@12345@PEAX@Z
	??$?0Uyear_tag@time_internal@lts_20250814@absl@@@?$civil_time@Umonth_tag@time_internal@lts_20250814@absl@@@detail@cctz@time_internal@lts_20250814@absl@@QEAA@AEBV?$civil_time@Uyear_tag@time_internal@lts_20250814@absl@@@12345@PEAX@Z
	??$?0Uyear_tag@time_internal@lts_20250814@absl@@@?$civil_time@Usecond_tag@time_internal@lts_20250814@absl@@@detail@cctz@time_internal@lts_20250814@absl@@QEAA@AEBV?$civil_time@Uyear_tag@time_internal@lts_20250814@absl@@@12345@PEAX@Z
	??$?0V<lambda_17cdf8ef4ee8f7f2e0a955d26fb7d5be>@@X@?$FunctionRef@$$A6AXPEBW4ctrl_t@container_internal@lts_20250814@absl@@PEAX@Z@lts_20250814@absl@@QEAA@AEBV<lambda_17cdf8ef4ee8f7f2e0a955d26fb7d5be>@@@Z
	??$?0V<lambda_bc50e1e2b0efe80036ecdb03cfc5f386>@@X@?$FunctionRef@$$A6AXPEBW4ctrl_t@container_internal@lts_20250814@absl@@PEAX@Z@lts_20250814@absl@@QEAA@AEBV<lambda_bc50e1e2b0efe80036ecdb03cfc5f386>@@@Z
	??$?0V<lambda_c884bfc8408f1d3d05393c9ea419951e>@@X@?$FunctionRef@$$A6AXPEBW4ctrl_t@container_internal@lts_20250814@absl@@PEAX@Z@lts_20250814@absl@@QEAA@AEBV<lambda_c884bfc8408f1d3d05393c9ea419951e>@@@Z
	??$?0V<lambda_dc9c81c998fd861b1d3d53f3180a1638>@@X@?$FunctionRef@$$A6AXPEBW4ctrl_t@container_internal@lts_20250814@absl@@PEAX@Z@lts_20250814@absl@@QEAA@AEBV<lambda_dc9c81c998fd861b1d3d53f3180a1638>@@@Z
	??$?0V<lambda_fc901c4f23cd8a4588bfa54a62041efc>@@X@?$FunctionRef@$$A6AXPEBW4ctrl_t@container_internal@lts_20250814@absl@@PEAX@Z@lts_20250814@absl@@QEAA@AEBV<lambda_fc901c4f23cd8a4588bfa54a62041efc>@@@Z
	??$?0V?$InlinedVector@VFormatArgImpl@str_format_internal@lts_20250814@absl@@$03V?$allocator@VFormatArgImpl@str_format_internal@lts_20250814@absl@@@std@@@lts_20250814@absl@@XV012@H@?$Span@$$CBVFormatArgImpl@str_format_internal@lts_20250814@absl@@@lts_20250814@absl@@QEAA@AEBV?$InlinedVector@VFormatArgImpl@str_format_internal@lts_20250814@absl@@$03V?$allocator@VFormatArgImpl@str_format_internal@lts_20250814@absl@@@std@@@12@@Z
	??$?0V?$Span@D@lts_20250814@absl@@XV012@$0A@@?$Span@$$CBD@lts_20250814@absl@@QEAA@AEBV?$Span@D@12@@Z
	??$?0V?$Span@I@lts_20250814@absl@@XV012@$0A@@?$Span@$$CBI@lts_20250814@absl@@QEAA@AEBV?$Span@I@12@@Z
	??$?0V?$Span@QEAX@lts_20250814@absl@@XV012@$0A@@?$Span@QEBX@lts_20250814@absl@@QEAA@AEBV?$Span@QEAX@12@@Z
	??$?0V?$_List_iterator@V?$_List_val@U?$_List_simple_types@H@std@@@std@@@std@@_N$0A@@?$pair@V?$_List_const_iterator@V?$_List_val@U?$_List_simple_types@H@std@@@std@@@std@@_N@std@@QEAA@$$QEAV?$_List_iterator@V?$_List_val@U?$_List_simple_types@H@std@@@std@@@1@$$QEA_N@Z
	??$?0V?$_List_iterator@V?$_List_val@U?$_List_simple_types@PEBUCordRep@cord_internal@lts_20250814@absl@@@std@@@std@@@std@@_N$0A@@?$pair@V?$_List_const_iterator@V?$_List_val@U?$_List_simple_types@PEBUCordRep@cord_internal@lts_20250814@absl@@@std@@@std@@@std@@_N@std@@QEAA@$$QEAV?$_List_iterator@V?$_List_val@U?$_List_simple_types@PEBUCordRep@cord_internal@lts_20250814@absl@@@std@@@std@@@1@$$QEA_N@Z
	??$?0V?$allocator@D@std@@$$V@?$_Compressed_pair@V?$allocator@D@std@@V?$_String_val@U?$_Simple_types@D@std@@@2@$00@std@@QEAA@U_One_then_variadic_args_t@1@$$QEAV?$allocator@D@1@@Z
	??$?0V?$allocator@D@std@@@?$Storage@V?$allocator@D@std@@$02U?$StorageTag@VCommonFields@container_internal@lts_20250814@absl@@U?$Hash@_K@hash_internal@34@U?$equal_to@_K@std@@V?$allocator@D@8@@internal_compressed_tuple@container_internal@lts_20250814@absl@@$00@internal_compressed_tuple@container_internal@lts_20250814@absl@@QEAA@Uin_place_t@std@@$$QEAV?$allocator@D@6@@Z
	??$?0V?$allocator@D@std@@@AlphaNum@lts_20250814@absl@@QEAA@AEBV?$basic_string@DU?$char_traits@D@std@@V?$allocator@D@2@@std@@@Z
	??$?0V?$allocator@PEAUCordRep@cord_internal@lts_20250814@absl@@@std@@@?$Storage@V?$allocator@PEAUCordRep@cord_internal@lts_20250814@absl@@@std@@$0A@U?$StorageTag@V?$allocator@PEAUCordRep@cord_internal@lts_20250814@absl@@@std@@_K@internal_compressed_tuple@container_internal@lts_20250814@absl@@$00@internal_compressed_tuple@container_internal@lts_20250814@absl@@QEAA@Uin_place_t@std@@$$QEAV?$allocator@PEAUCordRep@cord_internal@lts_20250814@absl@@@6@@Z
	??$?0V?$allocator@PEAUCordRep@cord_internal@lts_20250814@absl@@@std@@I$00@?$CompressedTuple@V?$allocator@PEAUCordRep@cord_internal@lts_20250814@absl@@@std@@_K@container_internal@lts_20250814@absl@@QEAA@$$QEAV?$allocator@PEAUCordRep@cord_internal@lts_20250814@absl@@@std@@$$QEAI@Z
	??$?0V?$allocator@PEAUCordRep@cord_internal@lts_20250814@absl@@@std@@I@?$CompressedTupleImpl@V?$CompressedTuple@V?$allocator@PEAUCordRep@cord_internal@lts_20250814@absl@@@std@@_K@container_internal@lts_20250814@absl@@U?$integer_sequence@_K$0A@$00@std@@$00@internal_compressed_tuple@container_internal@lts_20250814@absl@@QEAA@Uin_place_t@std@@$$QEAV?$allocator@PEAUCordRep@cord_internal@lts_20250814@absl@@@6@$$QEAI@Z
	??$?0V?$allocator@PEAVLogSink@lts_20250814@absl@@@std@@@?$Storage@V?$allocator@PEAVLogSink@lts_20250814@absl@@@std@@$0A@U?$StorageTag@V?$allocator@PEAVLogSink@lts_20250814@absl@@@std@@_K@internal_compressed_tuple@container_internal@lts_20250814@absl@@$00@internal_compressed_tuple@container_internal@lts_20250814@absl@@QEAA@Uin_place_t@std@@$$QEAV?$allocator@PEAVLogSink@lts_20250814@absl@@@6@@Z
	??$?0V?$allocator@PEAVLogSink@lts_20250814@absl@@@std@@I$00@?$CompressedTuple@V?$allocator@PEAVLogSink@lts_20250814@absl@@@std@@_K@container_internal@lts_20250814@absl@@QEAA@$$QEAV?$allocator@PEAVLogSink@lts_20250814@absl@@@std@@$$QEAI@Z
	??$?0V?$allocator@PEAVLogSink@lts_20250814@absl@@@std@@I@?$CompressedTupleImpl@V?$CompressedTuple@V?$allocator@PEAVLogSink@lts_20250814@absl@@@std@@_K@container_internal@lts_20250814@absl@@U?$integer_sequence@_K$0A@$00@std@@$00@internal_compressed_tuple@container_internal@lts_20250814@absl@@QEAA@Uin_place_t@std@@$$QEAV?$allocator@PEAVLogSink@lts_20250814@absl@@@6@$$QEAI@Z
	??$?0V?$allocator@PEBVCordzHandle@cord_internal@lts_20250814@absl@@@std@@PEAPEBVCordzHandle@cord_internal@lts_20250814@absl@@PEAPEBV2345@PEAPEBV2345@@?$_Compressed_pair@V?$allocator@PEBVCordzHandle@cord_internal@lts_20250814@absl@@@std@@V?$_Vector_val@U?$_Simple_types@PEBVCordzHandle@cord_internal@lts_20250814@absl@@@std@@@2@$00@std@@QEAA@U_One_then_variadic_args_t@1@$$QEAV?$allocator@PEBVCordzHandle@cord_internal@lts_20250814@absl@@@1@$$QEAPEAPEBVCordzHandle@cord_internal@lts_20250814@absl@@22@Z
	??$?0V?$allocator@U?$pair@N_K@std@@@std@@PEAU?$pair@N_K@1@PEAU21@PEAU21@@?$_Compressed_pair@V?$allocator@U?$pair@N_K@std@@@std@@V?$_Vector_val@U?$_Simple_types@U?$pair@N_K@std@@@std@@@2@$00@std@@QEAA@U_One_then_variadic_args_t@1@$$QEAV?$allocator@U?$pair@N_K@std@@@1@$$QEAPEAU?$pair@N_K@1@22@Z
	??$?0V?$allocator@UPayload@status_internal@lts_20250814@absl@@@std@@@?$Storage@V?$allocator@UPayload@status_internal@lts_20250814@absl@@@std@@$0A@U?$StorageTag@V?$allocator@UPayload@status_internal@lts_20250814@absl@@@std@@_K@internal_compressed_tuple@container_internal@lts_20250814@absl@@$00@internal_compressed_tuple@container_internal@lts_20250814@absl@@QEAA@Uin_place_t@std@@$$QEAV?$allocator@UPayload@status_internal@lts_20250814@absl@@@6@@Z
	??$?0V?$allocator@UPayload@status_internal@lts_20250814@absl@@@std@@I$00@?$CompressedTuple@V?$allocator@UPayload@status_internal@lts_20250814@absl@@@std@@_K@container_internal@lts_20250814@absl@@QEAA@$$QEAV?$allocator@UPayload@status_internal@lts_20250814@absl@@@std@@$$QEAI@Z
	??$?0V?$allocator@UPayload@status_internal@lts_20250814@absl@@@std@@I@?$CompressedTupleImpl@V?$CompressedTuple@V?$allocator@UPayload@status_internal@lts_20250814@absl@@@std@@_K@container_internal@lts_20250814@absl@@U?$integer_sequence@_K$0A@$00@std@@$00@internal_compressed_tuple@container_internal@lts_20250814@absl@@QEAA@Uin_place_t@std@@$$QEAV?$allocator@UPayload@status_internal@lts_20250814@absl@@@6@$$QEAI@Z
	??$?0V?$allocator@UViableSubstitution@strings_internal@lts_20250814@absl@@@std@@PEAUViableSubstitution@strings_internal@lts_20250814@absl@@PEAU2345@PEAU2345@@?$_Compressed_pair@V?$allocator@UViableSubstitution@strings_internal@lts_20250814@absl@@@std@@V?$_Vector_val@U?$_Simple_types@UViableSubstitution@strings_internal@lts_20250814@absl@@@std@@@2@$00@std@@QEAA@U_One_then_variadic_args_t@1@$$QEAV?$allocator@UViableSubstitution@strings_internal@lts_20250814@absl@@@1@$$QEAPEAUViableSubstitution@strings_internal@lts_20250814@absl@@22@Z
	??$?0V?$array@D$0DKJI@@std@@XV01@H@?$Span@D@lts_20250814@absl@@QEAA@AEAV?$array@D$0DKJI@@std@@@Z
	??$?0V?$basic_ostream@DU?$char_traits@D@std@@@std@@$0A@@FormatRawSinkImpl@str_format_internal@lts_20250814@absl@@QEAA@PEAV?$basic_ostream@DU?$char_traits@D@std@@@std@@@Z
	??$?0V?$basic_string@DU?$char_traits@D@std@@V?$allocator@D@2@@std@@$0A@@?$StatusOr@V?$basic_string@DU?$char_traits@D@std@@V?$allocator@D@2@@std@@@lts_20250814@absl@@QEAA@$$QEAV?$basic_string@DU?$char_traits@D@std@@V?$allocator@D@2@@std@@@Z
	??$?0V?$basic_string@DU?$char_traits@D@std@@V?$allocator@D@2@@std@@$0A@@Cord@lts_20250814@absl@@QEAA@$$QEAV?$basic_string@DU?$char_traits@D@std@@V?$allocator@D@2@@std@@@Z
	??$?0V?$basic_string@DU?$char_traits@D@std@@V?$allocator@D@2@@std@@$0A@@FormatRawSinkImpl@str_format_internal@lts_20250814@absl@@QEAA@PEAV?$basic_string@DU?$char_traits@D@std@@V?$allocator@D@2@@std@@@Z
	??$?0V?$basic_string@DU?$char_traits@D@std@@V?$allocator@D@2@@std@@@?$StatusOr@V?$basic_string@DU?$char_traits@D@std@@V?$allocator@D@2@@std@@@lts_20250814@absl@@QEAA@Uin_place_t@std@@$$QEAV?$basic_string@DU?$char_traits@D@std@@V?$allocator@D@2@@4@@Z
	??$?0V?$basic_string@DU?$char_traits@D@std@@V?$allocator@D@2@@std@@@?$StatusOrData@V?$basic_string@DU?$char_traits@D@std@@V?$allocator@D@2@@std@@@internal_statusor@lts_20250814@absl@@QEAA@Uin_place_t@std@@$$QEAV?$basic_string@DU?$char_traits@D@std@@V?$allocator@D@2@@5@@Z
	??$?0V?$basic_string_view@DU?$char_traits@D@std@@@std@@$0A@@?$basic_string@DU?$char_traits@D@std@@V?$allocator@D@2@@std@@QEAA@AEBV?$basic_string_view@DU?$char_traits@D@std@@@1@AEBV?$allocator@D@1@@Z
	??$?0V?$basic_string_view@DU?$char_traits@D@std@@@std@@@FormatArgImpl@str_format_internal@lts_20250814@absl@@QEAA@AEBV?$basic_string_view@DU?$char_traits@D@std@@@std@@@Z
	??$?0V?$basic_string_view@DU?$char_traits@D@std@@@std@@XV01@$0A@@?$Span@$$CBD@lts_20250814@absl@@QEAA@AEBV?$basic_string_view@DU?$char_traits@D@std@@@std@@@Z
	??$?0V?$btree_iterator@V?$btree_node@U?$map_params@_K_KU?$less@_K@std@@V?$allocator@U?$pair@$$CB_K_K@std@@@2@$0BAA@$0A@@container_internal@lts_20250814@absl@@@container_internal@lts_20250814@absl@@AEAU?$pair@$$CB_K_K@std@@PEAU56@@container_internal@lts_20250814@absl@@_N$0A@@?$pair@V?$btree_iterator@V?$btree_node@U?$map_params@_K_KU?$less@_K@std@@V?$allocator@U?$pair@$$CB_K_K@std@@@2@$0BAA@$0A@@container_internal@lts_20250814@absl@@@container_internal@lts_20250814@absl@@AEAU?$pair@$$CB_K_K@std@@PEAU56@@container_internal@lts_20250814@absl@@_N@std@@QEAA@$$QEAV?$btree_iterator@V?$btree_node@U?$map_params@_K_KU?$less@_K@std@@V?$allocator@U?$pair@$$CB_K_K@std@@@2@$0BAA@$0A@@container_internal@lts_20250814@absl@@@container_internal@lts_20250814@absl@@AEAU?$pair@$$CB_K_K@std@@PEAU56@@container_internal@lts_20250814@absl@@$$QEA_N@Z
	??$?0V?$btree_node@U?$map_params@_K_KU?$less@_K@std@@V?$allocator@U?$pair@$$CB_K_K@std@@@2@$0BAA@$0A@@container_internal@lts_20250814@absl@@@container_internal@lts_20250814@absl@@AEAU?$pair@$$CB_K_K@std@@PEAU45@$0A@@?$btree_iterator@$$CBV?$btree_node@U?$map_params@_K_KU?$less@_K@std@@V?$allocator@U?$pair@$$CB_K_K@std@@@2@$0BAA@$0A@@container_internal@lts_20250814@absl@@@container_internal@lts_20250814@absl@@AEBU?$pair@$$CB_K_K@std@@PEBU56@@container_internal@lts_20250814@absl@@QEAA@V?$btree_iterator@V?$btree_node@U?$map_params@_K_KU?$less@_K@std@@V?$allocator@U?$pair@$$CB_K_K@std@@@2@$0BAA@$0A@@container_internal@lts_20250814@absl@@@container_internal@lts_20250814@absl@@AEAU?$pair@$$CB_K_K@std@@PEAU56@@123@@Z
	??$?0V?$tuple@$$QEA_K@std@@V?$tuple@$$QEAW4LocationId@debugging_internal@lts_20250814@absl@@@1@$0A@$$Z$0A@@?$pair@$$CB_KW4LocationId@debugging_internal@lts_20250814@absl@@@std@@AEAA@AEAV?$tuple@$$QEA_K@1@AEAV?$tuple@$$QEAW4LocationId@debugging_internal@lts_20250814@absl@@@1@U?$integer_sequence@_K$0A@@1@2@Z
	??$?0V?$tuple@$$QEA_K@std@@V?$tuple@$$QEAW4LocationId@debugging_internal@lts_20250814@absl@@@1@$0A@$$Z$0A@@?$pair@V?$tuple@$$QEA_K@std@@V?$tuple@$$QEAW4LocationId@debugging_internal@lts_20250814@absl@@@2@@std@@AEAA@AEAV?$tuple@$$QEA_K@1@AEAV?$tuple@$$QEAW4LocationId@debugging_internal@lts_20250814@absl@@@1@U?$integer_sequence@_K$0A@@1@2@Z
	??$?0V?$tuple@$$QEA_K@std@@V?$tuple@$$QEAW4LocationId@debugging_internal@lts_20250814@absl@@@1@$0A@$$Z$0A@@?$pair@_KW4LocationId@debugging_internal@lts_20250814@absl@@@std@@AEAA@AEAV?$tuple@$$QEA_K@1@AEAV?$tuple@$$QEAW4LocationId@debugging_internal@lts_20250814@absl@@@1@U?$integer_sequence@_K$0A@@1@2@Z
	??$?0V?$tuple@AEAV?$basic_string_view@DU?$char_traits@D@std@@@std@@@std@@V?$tuple@$$QEAW4StringId@debugging_internal@lts_20250814@absl@@@1@$0A@$$Z$0A@@?$pair@$$CBV?$basic_string@DU?$char_traits@D@std@@V?$allocator@D@2@@std@@W4StringId@debugging_internal@lts_20250814@absl@@@std@@AEAA@AEAV?$tuple@AEAV?$basic_string_view@DU?$char_traits@D@std@@@std@@@1@AEAV?$tuple@$$QEAW4StringId@debugging_internal@lts_20250814@absl@@@1@U?$integer_sequence@_K$0A@@1@2@Z
	??$?0V?$tuple@AEAV?$basic_string_view@DU?$char_traits@D@std@@@std@@@std@@V?$tuple@$$QEAW4StringId@debugging_internal@lts_20250814@absl@@@1@$0A@$$Z$0A@@?$pair@V?$basic_string@DU?$char_traits@D@std@@V?$allocator@D@2@@std@@W4StringId@debugging_internal@lts_20250814@absl@@@std@@AEAA@AEAV?$tuple@AEAV?$basic_string_view@DU?$char_traits@D@std@@@std@@@1@AEAV?$tuple@$$QEAW4StringId@debugging_internal@lts_20250814@absl@@@1@U?$integer_sequence@_K$0A@@1@2@Z
	??$?0V?$tuple@AEAV?$basic_string_view@DU?$char_traits@D@std@@@std@@@std@@V?$tuple@$$QEAW4StringId@debugging_internal@lts_20250814@absl@@@1@$0A@$$Z$0A@@?$pair@V?$tuple@AEAV?$basic_string_view@DU?$char_traits@D@std@@@std@@@std@@V?$tuple@$$QEAW4StringId@debugging_internal@lts_20250814@absl@@@2@@std@@AEAA@AEAV?$tuple@AEAV?$basic_string_view@DU?$char_traits@D@std@@@std@@@1@AEAV?$tuple@$$QEAW4StringId@debugging_internal@lts_20250814@absl@@@1@U?$integer_sequence@_K$0A@@1@2@Z
	??$?0V?$tuple@AEBV?$basic_string@DU?$char_traits@D@std@@V?$allocator@D@2@@std@@@std@@V?$tuple@$$V@1@$0A@$$Z$S@?$pair@$$CBV?$basic_string@DU?$char_traits@D@std@@V?$allocator@D@2@@std@@PEBVImpl@time_zone@cctz@time_internal@lts_20250814@absl@@@std@@AEAA@AEAV?$tuple@AEBV?$basic_string@DU?$char_traits@D@std@@V?$allocator@D@2@@std@@@1@AEAV?$tuple@$$V@1@U?$integer_sequence@_K$0A@@1@U?$integer_sequence@_K$S@1@@Z
	??$?0V?$tuple@AEBV?$basic_string@DU?$char_traits@D@std@@V?$allocator@D@2@@std@@@std@@V?$tuple@AEBW4StringId@debugging_internal@lts_20250814@absl@@@1@$0A@$$Z$0A@@?$pair@$$CBV?$basic_string@DU?$char_traits@D@std@@V?$allocator@D@2@@std@@W4StringId@debugging_internal@lts_20250814@absl@@@std@@AEAA@AEAV?$tuple@AEBV?$basic_string@DU?$char_traits@D@std@@V?$allocator@D@2@@std@@@1@AEAV?$tuple@AEBW4StringId@debugging_internal@lts_20250814@absl@@@1@U?$integer_sequence@_K$0A@@1@2@Z
	??$?0V?$tuple@AEBV?$basic_string@DU?$char_traits@D@std@@V?$allocator@D@2@@std@@@std@@V?$tuple@AEBW4StringId@debugging_internal@lts_20250814@absl@@@1@$0A@$$Z$0A@@?$pair@V?$basic_string@DU?$char_traits@D@std@@V?$allocator@D@2@@std@@W4StringId@debugging_internal@lts_20250814@absl@@@std@@AEAA@AEAV?$tuple@AEBV?$basic_string@DU?$char_traits@D@std@@V?$allocator@D@2@@std@@@1@AEAV?$tuple@AEBW4StringId@debugging_internal@lts_20250814@absl@@@1@U?$integer_sequence@_K$0A@@1@2@Z
	??$?0V?$tuple@AEBV?$basic_string@DU?$char_traits@D@std@@V?$allocator@D@2@@std@@@std@@V?$tuple@AEBW4StringId@debugging_internal@lts_20250814@absl@@@1@$0A@$$Z$0A@@?$pair@V?$tuple@AEBV?$basic_string@DU?$char_traits@D@std@@V?$allocator@D@2@@std@@@std@@V?$tuple@AEBW4StringId@debugging_internal@lts_20250814@absl@@@2@@std@@AEAA@AEAV?$tuple@AEBV?$basic_string@DU?$char_traits@D@std@@V?$allocator@D@2@@std@@@1@AEAV?$tuple@AEBW4StringId@debugging_internal@lts_20250814@absl@@@1@U?$integer_sequence@_K$0A@@1@2@Z
	??$?0V?$tuple@AEB_K@std@@V?$tuple@AEBW4LocationId@debugging_internal@lts_20250814@absl@@@1@$0A@$$Z$0A@@?$pair@V?$tuple@AEB_K@std@@V?$tuple@AEBW4LocationId@debugging_internal@lts_20250814@absl@@@2@@std@@AEAA@AEAV?$tuple@AEB_K@1@AEAV?$tuple@AEBW4LocationId@debugging_internal@lts_20250814@absl@@@1@U?$integer_sequence@_K$0A@@1@2@Z
	??$?0V?$vector@U?$pair@W4StringId@debugging_internal@lts_20250814@absl@@_J@std@@V?$allocator@U?$pair@W4StringId@debugging_internal@lts_20250814@absl@@_J@std@@@2@@std@@XV01@H@?$Span@$$CBU?$pair@W4StringId@debugging_internal@lts_20250814@absl@@_J@std@@@lts_20250814@absl@@QEAA@AEBV?$vector@U?$pair@W4StringId@debugging_internal@lts_20250814@absl@@_J@std@@V?$allocator@U?$pair@W4StringId@debugging_internal@lts_20250814@absl@@_J@std@@@2@@std@@@Z
	??$?0VBufferRawSink@str_format_internal@lts_20250814@absl@@$0A@@FormatRawSinkImpl@str_format_internal@lts_20250814@absl@@QEAA@PEAVBufferRawSink@123@@Z
	??$?0VCommonFields@container_internal@lts_20250814@absl@@@?$Storage@VCommonFields@container_internal@lts_20250814@absl@@$0A@U?$StorageTag@VCommonFields@container_internal@lts_20250814@absl@@U?$Hash@_K@hash_internal@34@U?$equal_to@_K@std@@V?$allocator@D@8@@internal_compressed_tuple@234@$0A@@internal_compressed_tuple@container_internal@lts_20250814@absl@@QEAA@Uin_place_t@std@@$$QEAVCommonFields@234@@Z
	??$?0VCommonFields@container_internal@lts_20250814@absl@@@?$Storage@VCommonFields@container_internal@lts_20250814@absl@@$0A@U?$StorageTag@VCommonFields@container_internal@lts_20250814@absl@@UStringHash@234@UStringEq@234@V?$allocator@D@std@@@internal_compressed_tuple@234@$0A@@internal_compressed_tuple@container_internal@lts_20250814@absl@@QEAA@Uin_place_t@std@@$$QEAVCommonFields@234@@Z
	??$?0VCommonFields@container_internal@lts_20250814@absl@@AEBUStringHash@123@AEBUStringEq@123@AEBV?$allocator@U?$pair@$$CBV?$basic_string@DU?$char_traits@D@std@@V?$allocator@D@2@@std@@W4StringId@debugging_internal@lts_20250814@absl@@@std@@@std@@$00@?$CompressedTuple@VCommonFields@container_internal@lts_20250814@absl@@UStringHash@234@UStringEq@234@V?$allocator@D@std@@@container_internal@lts_20250814@absl@@QEAA@$$QEAVCommonFields@123@AEBUStringHash@123@AEBUStringEq@123@AEBV?$allocator@U?$pair@$$CBV?$basic_string@DU?$char_traits@D@std@@V?$allocator@D@2@@std@@W4StringId@debugging_internal@lts_20250814@absl@@@std@@@std@@@Z
	??$?0VCommonFields@container_internal@lts_20250814@absl@@AEBUStringHash@123@AEBUStringEq@123@AEBV?$allocator@U?$pair@$$CBV?$basic_string@DU?$char_traits@D@std@@V?$allocator@D@2@@std@@W4StringId@debugging_internal@lts_20250814@absl@@@std@@@std@@@?$CompressedTupleImpl@V?$CompressedTuple@VCommonFields@container_internal@lts_20250814@absl@@UStringHash@234@UStringEq@234@V?$allocator@D@std@@@container_internal@lts_20250814@absl@@U?$integer_sequence@_K$0A@$00$01$02@std@@$00@internal_compressed_tuple@container_internal@lts_20250814@absl@@QEAA@Uin_place_t@std@@$$QEAVCommonFields@234@AEBUStringHash@234@AEBUStringEq@234@AEBV?$allocator@U?$pair@$$CBV?$basic_string@DU?$char_traits@D@std@@V?$allocator@D@2@@std@@W4StringId@debugging_internal@lts_20250814@absl@@@std@@@6@@Z
	??$?0VCommonFields@container_internal@lts_20250814@absl@@U?$Hash@_K@hash_internal@23@U?$equal_to@_K@std@@V?$allocator@D@7@$00@?$CompressedTuple@VCommonFields@container_internal@lts_20250814@absl@@U?$Hash@_K@hash_internal@34@U?$equal_to@_K@std@@V?$allocator@D@8@@container_internal@lts_20250814@absl@@QEAA@$$QEAVCommonFields@123@$$QEAU?$Hash@_K@hash_internal@23@$$QEAU?$equal_to@_K@std@@$$QEAV?$allocator@D@8@@Z
	??$?0VCommonFields@container_internal@lts_20250814@absl@@U?$Hash@_K@hash_internal@23@U?$equal_to@_K@std@@V?$allocator@D@7@@?$CompressedTupleImpl@V?$CompressedTuple@VCommonFields@container_internal@lts_20250814@absl@@U?$Hash@_K@hash_internal@34@U?$equal_to@_K@std@@V?$allocator@D@8@@container_internal@lts_20250814@absl@@U?$integer_sequence@_K$0A@$00$01$02@std@@$00@internal_compressed_tuple@container_internal@lts_20250814@absl@@QEAA@Uin_place_t@std@@$$QEAVCommonFields@234@$$QEAU?$Hash@_K@hash_internal@34@$$QEAU?$equal_to@_K@6@$$QEAV?$allocator@D@6@@Z
	??$?0VFILERawSink@str_format_internal@lts_20250814@absl@@$0A@@FormatRawSinkImpl@str_format_internal@lts_20250814@absl@@QEAA@PEAVFILERawSink@123@@Z
	??$?0VFallbackCrcMemcpyEngine@crc_internal@lts_20250814@absl@@$0A@@?$default_delete@VCrcMemcpyEngine@crc_internal@lts_20250814@absl@@@std@@QEAA@AEBU?$default_delete@VFallbackCrcMemcpyEngine@crc_internal@lts_20250814@absl@@@1@@Z
	??$?0VFallbackCrcMemcpyEngine@crc_internal@lts_20250814@absl@@U?$default_delete@VFallbackCrcMemcpyEngine@crc_internal@lts_20250814@absl@@@std@@$0A@@?$unique_ptr@VCrcMemcpyEngine@crc_internal@lts_20250814@absl@@U?$default_delete@VCrcMemcpyEngine@crc_internal@lts_20250814@absl@@@std@@@std@@QEAA@$$QEAV?$unique_ptr@VFallbackCrcMemcpyEngine@crc_internal@lts_20250814@absl@@U?$default_delete@VFallbackCrcMemcpyEngine@crc_internal@lts_20250814@absl@@@std@@@1@@Z
	??$?0VFormatSink@lts_20250814@absl@@$0A@@FormatRawSinkImpl@str_format_internal@lts_20250814@absl@@QEAA@PEAVFormatSink@23@@Z
	??$?0VFormatSink@lts_20250814@absl@@X@FormatRawSink@lts_20250814@absl@@QEAA@PEAVFormatSink@12@@Z
	??$?0VStringifySink@strings_internal@lts_20250814@absl@@$0A@@FormatRawSinkImpl@str_format_internal@lts_20250814@absl@@QEAA@PEAVStringifySink@strings_internal@23@@Z
	??$?0VStringifySink@strings_internal@lts_20250814@absl@@X@FormatRawSink@lts_20250814@absl@@QEAA@PEAVStringifySink@strings_internal@12@@Z
	??$?0VTimeZoneInfo@cctz@time_internal@lts_20250814@absl@@$0A@@?$default_delete@VTimeZoneIf@cctz@time_internal@lts_20250814@absl@@@std@@QEAA@AEBU?$default_delete@VTimeZoneInfo@cctz@time_internal@lts_20250814@absl@@@1@@Z
	??$?0VTimeZoneInfo@cctz@time_internal@lts_20250814@absl@@U?$default_delete@VTimeZoneInfo@cctz@time_internal@lts_20250814@absl@@@std@@$0A@@?$unique_ptr@VTimeZoneIf@cctz@time_internal@lts_20250814@absl@@U?$default_delete@VTimeZoneIf@cctz@time_internal@lts_20250814@absl@@@std@@@std@@QEAA@$$QEAV?$unique_ptr@VTimeZoneInfo@cctz@time_internal@lts_20250814@absl@@U?$default_delete@VTimeZoneInfo@cctz@time_internal@lts_20250814@absl@@@std@@@1@@Z
	??$?0VTimeZoneLibC@cctz@time_internal@lts_20250814@absl@@$0A@@?$default_delete@VTimeZoneIf@cctz@time_internal@lts_20250814@absl@@@std@@QEAA@AEBU?$default_delete@VTimeZoneLibC@cctz@time_internal@lts_20250814@absl@@@1@@Z
	??$?0VTimeZoneLibC@cctz@time_internal@lts_20250814@absl@@U?$default_delete@VTimeZoneLibC@cctz@time_internal@lts_20250814@absl@@@std@@$0A@@?$unique_ptr@VTimeZoneIf@cctz@time_internal@lts_20250814@absl@@U?$default_delete@VTimeZoneIf@cctz@time_internal@lts_20250814@absl@@@std@@@std@@QEAA@$$QEAV?$unique_ptr@VTimeZoneLibC@cctz@time_internal@lts_20250814@absl@@U?$default_delete@VTimeZoneLibC@cctz@time_internal@lts_20250814@absl@@@std@@@1@@Z
	??$?0Viterator@?$raw_hash_set@U?$FlatHashMapPolicy@V?$basic_string@DU?$char_traits@D@std@@V?$allocator@D@2@@std@@W4StringId@debugging_internal@lts_20250814@absl@@@container_internal@lts_20250814@absl@@UStringHash@234@UStringEq@234@V?$allocator@U?$pair@$$CBV?$basic_string@DU?$char_traits@D@std@@V?$allocator@D@2@@std@@W4StringId@debugging_internal@lts_20250814@absl@@@std@@@std@@@container_internal@lts_20250814@absl@@_N$0A@@?$pair@Viterator@?$raw_hash_set@U?$FlatHashMapPolicy@V?$basic_string@DU?$char_traits@D@std@@V?$allocator@D@2@@std@@W4StringId@debugging_internal@lts_20250814@absl@@@container_internal@lts_20250814@absl@@UStringHash@234@UStringEq@234@V?$allocator@U?$pair@$$CBV?$basic_string@DU?$char_traits@D@std@@V?$allocator@D@2@@std@@W4StringId@debugging_internal@lts_20250814@absl@@@std@@@std@@@container_internal@lts_20250814@absl@@_N@std@@QEAA@$$QEAViterator@?$raw_hash_set@U?$FlatHashMapPolicy@V?$basic_string@DU?$char_traits@D@std@@V?$allocator@D@2@@std@@W4StringId@debugging_internal@lts_20250814@absl@@@container_internal@lts_20250814@absl@@UStringHash@234@UStringEq@234@V?$allocator@U?$pair@$$CBV?$basic_string@DU?$char_traits@D@std@@V?$allocator@D@2@@std@@W4StringId@debugging_internal@lts_20250814@absl@@@std@@@std@@@container_internal@lts_20250814@absl@@$$QEA_N@Z
	??$?0Viterator@?$raw_hash_set@U?$FlatHashMapPolicy@_KW4LocationId@debugging_internal@lts_20250814@absl@@@container_internal@lts_20250814@absl@@U?$Hash@_K@hash_internal@34@U?$equal_to@_K@std@@V?$allocator@U?$pair@$$CB_KW4LocationId@debugging_internal@lts_20250814@absl@@@std@@@8@@container_internal@lts_20250814@absl@@_N$0A@@?$pair@Viterator@?$raw_hash_set@U?$FlatHashMapPolicy@_KW4LocationId@debugging_internal@lts_20250814@absl@@@container_internal@lts_20250814@absl@@U?$Hash@_K@hash_internal@34@U?$equal_to@_K@std@@V?$allocator@U?$pair@$$CB_KW4LocationId@debugging_internal@lts_20250814@absl@@@std@@@8@@container_internal@lts_20250814@absl@@_N@std@@QEAA@$$QEAViterator@?$raw_hash_set@U?$FlatHashMapPolicy@_KW4LocationId@debugging_internal@lts_20250814@absl@@@container_internal@lts_20250814@absl@@U?$Hash@_K@hash_internal@34@U?$equal_to@_K@std@@V?$allocator@U?$pair@$$CB_KW4LocationId@debugging_internal@lts_20250814@absl@@@std@@@8@@container_internal@lts_20250814@absl@@$$QEA_N@Z
	??$?0W4LocationId@debugging_internal@lts_20250814@absl@@$$V$0A@@?$tuple@$$QEAW4LocationId@debugging_internal@lts_20250814@absl@@@std@@QEAA@$$QEAW4LocationId@debugging_internal@lts_20250814@absl@@@Z
	??$?0W4LocationId@debugging_internal@lts_20250814@absl@@@?$_Tuple_val@$$QEAW4LocationId@debugging_internal@lts_20250814@absl@@@std@@QEAA@$$QEAW4LocationId@debugging_internal@lts_20250814@absl@@@Z
	??$?0W4StringId@debugging_internal@lts_20250814@absl@@$$V$0A@@?$tuple@$$QEAW4StringId@debugging_internal@lts_20250814@absl@@@std@@QEAA@$$QEAW4StringId@debugging_internal@lts_20250814@absl@@@Z
	??$?0W4StringId@debugging_internal@lts_20250814@absl@@@?$_Tuple_val@$$QEAW4StringId@debugging_internal@lts_20250814@absl@@@std@@QEAA@$$QEAW4StringId@debugging_internal@lts_20250814@absl@@@Z
	??$?0_J$0A@@?$duration@HU?$ratio@$0DM@$00@std@@@chrono@std@@QEAA@AEB_J@Z
	??$?0_J$0A@@?$duration@HU?$ratio@$0OBA@$00@std@@@chrono@std@@QEAA@AEB_J@Z
	??$?0_J$0A@@?$duration@_JU?$ratio@$00$00@std@@@chrono@std@@QEAA@AEB_J@Z
	??$?0_J$0A@@?$duration@_JU?$ratio@$00$0DINHOKEMGIAAA@@std@@@chrono@std@@QEAA@AEB_J@Z
	??$?0_J$0A@@?$duration@_JU?$ratio@$00$0DLJKMKAA@@std@@@chrono@std@@QEAA@AEB_J@Z
	??$?0_J$0A@@?$duration@_JU?$ratio@$00$0DOI@@std@@@chrono@std@@QEAA@AEB_J@Z
	??$?0_J$0A@@?$duration@_JU?$ratio@$00$0JIJGIA@@std@@@chrono@std@@QEAA@AEB_J@Z
	??$?0_J$0A@@?$duration@_JU?$ratio@$00$0PECEA@@std@@@chrono@std@@QEAA@AEB_J@Z
	??$?0_J@FormatArgImpl@str_format_internal@lts_20250814@absl@@QEAA@AEB_J@Z
	??$?0_JU?$ratio@$00$00@std@@$0A@@?$duration@_JU?$ratio@$00$0JIJGIA@@std@@@chrono@std@@QEAA@AEBV?$duration@_JU?$ratio@$00$00@std@@@12@@Z
	??$?0_JU?$ratio@$00$0DOI@@std@@$0A@@?$duration@_JU?$ratio@$00$0DLJKMKAA@@std@@@chrono@std@@QEAA@AEBV?$duration@_JU?$ratio@$00$0DOI@@std@@@12@@Z
	??$?0_JU?$ratio@$00$0DOI@@std@@$0A@@?$duration@_JU?$ratio@$00$0JIJGIA@@std@@@chrono@std@@QEAA@AEBV?$duration@_JU?$ratio@$00$0DOI@@std@@@12@@Z
	??$?0_JU?$ratio@$00$0JIJGIA@@std@@$0A@@?$duration@_JU?$ratio@$00$0DLJKMKAA@@std@@@chrono@std@@QEAA@AEBV?$duration@_JU?$ratio@$00$0JIJGIA@@std@@@12@@Z
	??$?0_JU?$ratio@$00$0PECEA@@std@@$0A@@?$duration@_JU?$ratio@$00$0JIJGIA@@std@@@chrono@std@@QEAA@AEBV?$duration@_JU?$ratio@$00$0PECEA@@std@@@12@@Z
	??$?0_K$$V$0A@@?$tuple@$$QEA_K@std@@QEAA@$$QEA_K@Z
	??$?0_K$0A@@?$atomic@_K@std@@QEAA@XZ
	??$?0_K$0A@@?$optional@_K@std@@QEAA@$$QEA_K@Z
	??$?0_K@?$_Optional_construct_base@_K@std@@QEAA@Uin_place_t@1@$$QEA_K@Z
	??$?0_K@?$_Optional_destruct_base@_K$00@std@@QEAA@Uin_place_t@1@$$QEA_K@Z
	??$?0_K@?$_Tuple_val@$$QEA_K@std@@QEAA@$$QEA_K@Z
	??$?0_K_K$0A@@?$pair@_K_K@std@@QEAA@$$QEA_K0@Z
	??$?0_K_K$0A@@?$pair@_K_K@std@@QEAA@XZ
	??$?4U?$default_delete@V?$InlinedVector@UPayload@status_internal@lts_20250814@absl@@$00V?$allocator@UPayload@status_internal@lts_20250814@absl@@@std@@@lts_20250814@absl@@@std@@$0A@@?$unique_ptr@V?$InlinedVector@UPayload@status_internal@lts_20250814@absl@@$00V?$allocator@UPayload@status_internal@lts_20250814@absl@@@std@@@lts_20250814@absl@@U?$default_delete@V?$InlinedVector@UPayload@status_internal@lts_20250814@absl@@$00V?$allocator@UPayload@status_internal@lts_20250814@absl@@@std@@@lts_20250814@absl@@@std@@@std@@QEAAAEAV01@$$QEAV01@@Z
	??$?4U?$pair@N_K@std@@$0A@@?$pair@N_K@std@@QEAAAEAU01@$$QEAU01@@Z
	??$?4U?$pair@_K_K@std@@$0A@@?$pair@_K_K@std@@QEAAAEAU01@$$QEAU01@@Z
	??$?5DU?$char_traits@D@std@@@std@@YAAEAV?$basic_istream@DU?$char_traits@D@std@@@0@AEAV10@AEBU?$_Timeobj@DPEAUtm@@@0@@Z
	??$?6$01@LogMessage@log_internal@lts_20250814@absl@@QEAAAEAV0123@AEAY01$$CBD@Z
	??$?6$02@LogMessage@log_internal@lts_20250814@absl@@QEAAAEAV0123@AEAY02$$CBD@Z
	??$?6$0P@@LogMessage@log_internal@lts_20250814@absl@@QEAAAEAV0123@AEAY0P@$$CBD@Z
	??$?6C@LogMessage@log_internal@lts_20250814@absl@@QEAAAEAV0123@AEBC@Z
	??$?6D@LogMessage@log_internal@lts_20250814@absl@@QEAAAEAV0123@AEBD@Z
	??$?6DU?$char_traits@D@std@@@std@@YAAEAV?$basic_ostream@DU?$char_traits@D@std@@@0@AEAV10@AEBU?$_Fillobj@D@0@@Z
	??$?6DU?$char_traits@D@std@@@std@@YAAEAV?$basic_ostream@DU?$char_traits@D@std@@@0@AEAV10@AEBU?$_Smanip@_J@0@@Z
	??$?6DU?$char_traits@D@std@@@std@@YAAEAV?$basic_ostream@DU?$char_traits@D@std@@@0@AEAV10@V?$basic_string_view@DU?$char_traits@D@std@@@0@@Z
	??$?6DU?$char_traits@D@std@@V?$allocator@D@1@@std@@YAAEAV?$basic_ostream@DU?$char_traits@D@std@@@0@AEAV10@AEBV?$basic_string@DU?$char_traits@D@std@@V?$allocator@D@2@@0@@Z
	??$?6E@LogMessage@log_internal@lts_20250814@absl@@QEAAAEAV0123@AEBE@Z
	??$?6F@LogMessage@log_internal@lts_20250814@absl@@QEAAAEAV0123@AEBF@Z
	??$?6G@LogMessage@log_internal@lts_20250814@absl@@QEAAAEAV0123@AEBG@Z
	??$?6H@LogMessage@log_internal@lts_20250814@absl@@QEAAAEAV0123@AEBH@Z
	??$?6I@LogMessage@log_internal@lts_20250814@absl@@QEAAAEAV0123@AEBI@Z
	??$?6J@LogMessage@log_internal@lts_20250814@absl@@QEAAAEAV0123@AEBJ@Z
	??$?6K@LogMessage@log_internal@lts_20250814@absl@@QEAAAEAV0123@AEBK@Z
	??$?6M@LogMessage@log_internal@lts_20250814@absl@@QEAAAEAV0123@AEBM@Z
	??$?6N@LogMessage@log_internal@lts_20250814@absl@@QEAAAEAV0123@AEBN@Z
	??$?6PEAX@LogMessage@log_internal@lts_20250814@absl@@QEAAAEAV0123@AEBQEAX@Z
	??$?6PEBD@LogMessage@log_internal@lts_20250814@absl@@QEAAAEAV0123@AEBQEBD@Z
	??$?6PEBX@LogMessage@log_internal@lts_20250814@absl@@QEAAAEAV0123@AEBQEBX@Z
	??$?6PEB_W@LogMessage@log_internal@lts_20250814@absl@@QEAAAEAV0123@AEBQEB_W@Z
	??$?6U?$char_traits@D@std@@@std@@YAAEAV?$basic_ostream@DU?$char_traits@D@std@@@0@AEAV10@C@Z
	??$?6U?$char_traits@D@std@@@std@@YAAEAV?$basic_ostream@DU?$char_traits@D@std@@@0@AEAV10@D@Z
	??$?6U?$char_traits@D@std@@@std@@YAAEAV?$basic_ostream@DU?$char_traits@D@std@@@0@AEAV10@E@Z
	??$?6U?$char_traits@D@std@@@std@@YAAEAV?$basic_ostream@DU?$char_traits@D@std@@@0@AEAV10@PEBC@Z
	??$?6U?$char_traits@D@std@@@std@@YAAEAV?$basic_ostream@DU?$char_traits@D@std@@@0@AEAV10@PEBD@Z
	??$?6U?$char_traits@D@std@@@std@@YAAEAV?$basic_ostream@DU?$char_traits@D@std@@@0@AEAV10@PEBE@Z
	??$?6_J@LogMessage@log_internal@lts_20250814@absl@@QEAAAEAV0123@AEB_J@Z
	??$?6_K@LogMessage@log_internal@lts_20250814@absl@@QEAAAEAV0123@AEB_K@Z
	??$?6_N@LogMessage@log_internal@lts_20250814@absl@@QEAAAEAV0123@AEB_N@Z
	??$?8DU?$char_traits@D@std@@$00@std@@YA_NV?$basic_string_view@DU?$char_traits@D@std@@@0@0@Z
	??$?8DU?$char_traits@D@std@@$01@std@@YA_NV?$basic_string_view@DU?$char_traits@D@std@@@0@0@Z
	??$?8DU?$char_traits@D@std@@@std@@YA_NV?$basic_string_view@DU?$char_traits@D@std@@@0@0@Z
	??$?8DU?$char_traits@D@std@@V?$allocator@D@1@@std@@YA_NAEBV?$basic_string@DU?$char_traits@D@std@@V?$allocator@D@2@@0@0@Z
	??$?8DU?$char_traits@D@std@@V?$allocator@D@1@@std@@YA_NAEBV?$basic_string@DU?$char_traits@D@std@@V?$allocator@D@2@@0@QEBD@Z
	??$?8DU?$char_traits@D@std@@V?$allocator@D@1@@std@@YA_NQEBDAEBV?$basic_string@DU?$char_traits@D@std@@V?$allocator@D@2@@0@@Z
	??$?8U_iobuf@@P6AHPEAU0@@Z@std@@YA_NAEBV?$unique_ptr@U_iobuf@@P6AHPEAU1@@Z@0@$$T@Z
	??$?8Usystem_clock@chrono@std@@V?$duration@_JU?$ratio@$00$00@std@@@12@V312@@chrono@std@@YA_NAEBV?$time_point@Usystem_clock@chrono@std@@V?$duration@_JU?$ratio@$00$00@std@@@23@@01@0@Z
	??$?8V?$InlinedVector@UPayload@status_internal@lts_20250814@absl@@$00V?$allocator@UPayload@status_internal@lts_20250814@absl@@@std@@@lts_20250814@absl@@U?$default_delete@V?$InlinedVector@UPayload@status_internal@lts_20250814@absl@@$00V?$allocator@UPayload@status_internal@lts_20250814@absl@@@std@@@lts_20250814@absl@@@std@@@std@@YA_NAEBV?$unique_ptr@V?$InlinedVector@UPayload@status_internal@lts_20250814@absl@@$00V?$allocator@UPayload@status_internal@lts_20250814@absl@@@std@@@lts_20250814@absl@@U?$default_delete@V?$InlinedVector@UPayload@status_internal@lts_20250814@absl@@$00V?$allocator@UPayload@status_internal@lts_20250814@absl@@@std@@@lts_20250814@absl@@@std@@@0@$$T@Z
	??$?8VZoneInfoSource@cctz@time_internal@lts_20250814@absl@@U?$default_delete@VZoneInfoSource@cctz@time_internal@lts_20250814@absl@@@std@@@std@@YA_NAEBV?$unique_ptr@VZoneInfoSource@cctz@time_internal@lts_20250814@absl@@U?$default_delete@VZoneInfoSource@cctz@time_internal@lts_20250814@absl@@@std@@@0@$$T@Z
	??$?8_JU?$ratio@$00$00@std@@_JU01@@chrono@std@@YA_NAEBV?$duration@_JU?$ratio@$00$00@std@@@01@0@Z
	??$?8_K_K_K_K@std@@YA_NAEBU?$pair@_K_K@0@0@Z
	??$?9DU?$char_traits@D@std@@@std@@YA_NV?$basic_string_view@DU?$char_traits@D@std@@@0@0@Z
	??$?9DU?$char_traits@D@std@@V?$allocator@D@1@@std@@YA_NAEBV?$basic_string@DU?$char_traits@D@std@@V?$allocator@D@2@@0@0@Z
	??$?9PEBDPEBD@std@@YA_NAEBV?$reverse_iterator@PEBD@0@0@Z
	??$?9Usystem_clock@chrono@std@@V?$duration@_JU?$ratio@$00$00@std@@@12@V312@@chrono@std@@YA_NAEBV?$time_point@Usystem_clock@chrono@std@@V?$duration@_JU?$ratio@$00$00@std@@@23@@01@0@Z
	??$?9VZoneInfoSource@cctz@time_internal@lts_20250814@absl@@U?$default_delete@VZoneInfoSource@cctz@time_internal@lts_20250814@absl@@@std@@@std@@YA_NAEBV?$unique_ptr@VZoneInfoSource@cctz@time_internal@lts_20250814@absl@@U?$default_delete@VZoneInfoSource@cctz@time_internal@lts_20250814@absl@@@std@@@0@$$T@Z
	??$?DH@lts_20250814@absl@@YA?AVDuration@01@HV201@@Z
	??$?DH@lts_20250814@absl@@YA?AVDuration@01@V201@H@Z
	??$?DN@lts_20250814@absl@@YA?AVDuration@01@NV201@@Z
	??$?D_J@lts_20250814@absl@@YA?AVDuration@01@V201@_J@Z
	??$?D_J@lts_20250814@absl@@YA?AVDuration@01@_JV201@@Z
	??$?GUsteady_clock@chrono@std@@V?$duration@_JU?$ratio@$00$0DLJKMKAA@@std@@@12@V312@@chrono@std@@YA?AV?$duration@_JU?$ratio@$00$0DLJKMKAA@@std@@@01@AEBV?$time_point@Usteady_clock@chrono@std@@V?$duration@_JU?$ratio@$00$0DLJKMKAA@@std@@@23@@01@0@Z
	??$?GUsteady_clock@chrono@std@@V?$duration@_JU?$ratio@$00$0DLJKMKAA@@std@@@12@_JU?$ratio@$00$0DLJKMKAA@@2@@chrono@std@@YA?AV?$time_point@Usteady_clock@chrono@std@@V?$duration@_JU?$ratio@$00$0DLJKMKAA@@std@@@23@@01@AEBV201@AEBV?$duration@_JU?$ratio@$00$0DLJKMKAA@@std@@@01@@Z
	??$?GUsystem_clock@chrono@std@@V?$duration@_JU?$ratio@$00$00@std@@@12@V312@@chrono@std@@YA?AV?$duration@_JU?$ratio@$00$00@std@@@01@AEBV?$time_point@Usystem_clock@chrono@std@@V?$duration@_JU?$ratio@$00$00@std@@@23@@01@0@Z
	??$?GUsystem_clock@chrono@std@@V?$duration@_JU?$ratio@$00$00@std@@@12@_JU?$ratio@$00$00@2@@chrono@std@@YA?AV?$time_point@Usystem_clock@chrono@std@@V?$duration@_JU?$ratio@$00$00@std@@@23@@01@AEBV201@AEBV?$duration@_JU?$ratio@$00$00@std@@@01@@Z
	??$?GUsystem_clock@chrono@std@@V?$duration@_JU?$ratio@$00$0JIJGIA@@std@@@12@V312@@chrono@std@@YA?AV?$duration@_JU?$ratio@$00$0JIJGIA@@std@@@01@AEBV?$time_point@Usystem_clock@chrono@std@@V?$duration@_JU?$ratio@$00$0JIJGIA@@std@@@23@@01@0@Z
	??$?GV?$_String_view_iterator@U?$char_traits@D@std@@@std@@V01@@std@@YA_JAEBV?$reverse_iterator@V?$_String_view_iterator@U?$char_traits@D@std@@@std@@@0@0@Z
	??$?G_JU?$ratio@$00$00@std@@_JU01@@chrono@std@@YA?AV?$duration@_JU?$ratio@$00$00@std@@@01@AEBV201@0@Z
	??$?G_JU?$ratio@$00$0DLJKMKAA@@std@@_JU01@@chrono@std@@YA?AV?$duration@_JU?$ratio@$00$0DLJKMKAA@@std@@@01@AEBV201@0@Z
	??$?G_JU?$ratio@$00$0JIJGIA@@std@@_JU01@@chrono@std@@YA?AV?$duration@_JU?$ratio@$00$0JIJGIA@@std@@@01@AEBV201@0@Z
	??$?HDU?$char_traits@D@std@@V?$allocator@D@1@@std@@YA?AV?$basic_string@DU?$char_traits@D@std@@V?$allocator@D@2@@0@$$QEAV10@D@Z
	??$?HDU?$char_traits@D@std@@V?$allocator@D@1@@std@@YA?AV?$basic_string@DU?$char_traits@D@std@@V?$allocator@D@2@@0@$$QEAV10@QEBD@Z
	??$?HDU?$char_traits@D@std@@V?$allocator@D@1@@std@@YA?AV?$basic_string@DU?$char_traits@D@std@@V?$allocator@D@2@@0@AEBV10@QEBD@Z
	??$?HDU?$char_traits@D@std@@V?$allocator@D@1@@std@@YA?AV?$basic_string@DU?$char_traits@D@std@@V?$allocator@D@2@@0@QEBD$$QEAV10@@Z
	??$?HUsystem_clock@chrono@std@@V?$duration@_JU?$ratio@$00$00@std@@@12@_JU?$ratio@$00$00@2@@chrono@std@@YA?AV?$time_point@Usystem_clock@chrono@std@@V?$duration@_JU?$ratio@$00$00@std@@@23@@01@AEBV201@AEBV?$duration@_JU?$ratio@$00$00@std@@@01@@Z
	??$?HUsystem_clock@chrono@std@@V?$duration@_JU?$ratio@$00$0JIJGIA@@std@@@12@_JU?$ratio@$00$0JIJGIA@@2@@chrono@std@@YA?AV?$time_point@Usystem_clock@chrono@std@@V?$duration@_JU?$ratio@$00$0JIJGIA@@std@@@23@@01@AEBV201@AEBV?$duration@_JU?$ratio@$00$0JIJGIA@@std@@@01@@Z
	??$?HUsystem_clock@chrono@std@@V?$duration@_JU?$ratio@$00$0JIJGIA@@std@@@12@_JU?$ratio@$00$0PECEA@@2@@chrono@std@@YA?AV?$time_point@Usystem_clock@chrono@std@@V?$duration@_JU?$ratio@$00$0JIJGIA@@std@@@23@@01@AEBV201@AEBV?$duration@_JU?$ratio@$00$0PECEA@@std@@@01@@Z
	??$?H_JU?$ratio@$00$00@std@@_JU01@@chrono@std@@YA?AV?$duration@_JU?$ratio@$00$00@std@@@01@AEBV201@0@Z
	??$?H_JU?$ratio@$00$0JIJGIA@@std@@_JU01@@chrono@std@@YA?AV?$duration@_JU?$ratio@$00$0JIJGIA@@std@@@01@AEBV201@0@Z
	??$?H_JU?$ratio@$00$0JIJGIA@@std@@_JU?$ratio@$00$0PECEA@@1@@chrono@std@@YA?AV?$duration@_JU?$ratio@$00$0JIJGIA@@std@@@01@AEBV201@AEBV?$duration@_JU?$ratio@$00$0PECEA@@std@@@01@@Z
	??$?K_J@lts_20250814@absl@@YA?AVDuration@01@V201@_J@Z
	??$?MHU?$ratio@$0OBA@$00@std@@_JU?$ratio@$00$00@1@@chrono@std@@YA_NAEBV?$duration@HU?$ratio@$0OBA@$00@std@@@01@AEBV?$duration@_JU?$ratio@$00$00@std@@@01@@Z
	??$?MUsecond_tag@detail@cctz@time_internal@lts_20250814@absl@@U012345@@detail@cctz@time_internal@lts_20250814@absl@@YA_NAEBV?$civil_time@Usecond_tag@detail@cctz@time_internal@lts_20250814@absl@@@01234@0@Z
	??$?MUsteady_clock@chrono@std@@V?$duration@_JU?$ratio@$00$0DLJKMKAA@@std@@@12@V312@@chrono@std@@YA_NAEBV?$time_point@Usteady_clock@chrono@std@@V?$duration@_JU?$ratio@$00$0DLJKMKAA@@std@@@23@@01@0@Z
	??$?MUsystem_clock@chrono@std@@V?$duration@_JU?$ratio@$00$00@std@@@12@V312@@chrono@std@@YA_NAEBV?$time_point@Usystem_clock@chrono@std@@V?$duration@_JU?$ratio@$00$00@std@@@23@@01@0@Z
	??$?MUsystem_clock@chrono@std@@V?$duration@_JU?$ratio@$00$0JIJGIA@@std@@@12@V312@@chrono@std@@YA_NAEBV?$time_point@Usystem_clock@chrono@std@@V?$duration@_JU?$ratio@$00$0JIJGIA@@std@@@23@@01@0@Z
	??$?M_JU?$ratio@$00$00@std@@HU?$ratio@$0OBA@$00@1@@chrono@std@@YA_NAEBV?$duration@_JU?$ratio@$00$00@std@@@01@AEBV?$duration@HU?$ratio@$0OBA@$00@std@@@01@@Z
	??$?M_JU?$ratio@$00$00@std@@_JU01@@chrono@std@@YA_NAEBV?$duration@_JU?$ratio@$00$00@std@@@01@0@Z
	??$?M_JU?$ratio@$00$0DLJKMKAA@@std@@_JU01@@chrono@std@@YA_NAEBV?$duration@_JU?$ratio@$00$0DLJKMKAA@@std@@@01@0@Z
	??$?M_JU?$ratio@$00$0DOI@@std@@_JU?$ratio@$00$0DLJKMKAA@@1@@chrono@std@@YA_NAEBV?$duration@_JU?$ratio@$00$0DOI@@std@@@01@AEBV?$duration@_JU?$ratio@$00$0DLJKMKAA@@std@@@01@@Z
	??$?M_JU?$ratio@$00$0DOI@@std@@_JU?$ratio@$00$0JIJGIA@@1@@chrono@std@@YA_NAEBV?$duration@_JU?$ratio@$00$0DOI@@std@@@01@AEBV?$duration@_JU?$ratio@$00$0JIJGIA@@std@@@01@@Z
	??$?M_JU?$ratio@$00$0JIJGIA@@std@@_JU01@@chrono@std@@YA_NAEBV?$duration@_JU?$ratio@$00$0JIJGIA@@std@@@01@0@Z
	??$?M_K_K_K_K@std@@YA_NAEBU?$pair@_K_K@0@0@Z
	??$?NUsecond_tag@detail@cctz@time_internal@lts_20250814@absl@@U012345@@detail@cctz@time_internal@lts_20250814@absl@@YA_NAEBV?$civil_time@Usecond_tag@detail@cctz@time_internal@lts_20250814@absl@@@01234@0@Z
	??$?NUsteady_clock@chrono@std@@V?$duration@_JU?$ratio@$00$0DLJKMKAA@@std@@@12@V312@@chrono@std@@YA_NAEBV?$time_point@Usteady_clock@chrono@std@@V?$duration@_JU?$ratio@$00$0DLJKMKAA@@std@@@23@@01@0@Z
	??$?NUsystem_clock@chrono@std@@V?$duration@_JU?$ratio@$00$0JIJGIA@@std@@@12@V312@@chrono@std@@YA_NAEBV?$time_point@Usystem_clock@chrono@std@@V?$duration@_JU?$ratio@$00$0JIJGIA@@std@@@23@@01@0@Z
	??$?N_JU?$ratio@$00$0DLJKMKAA@@std@@_JU01@@chrono@std@@YA_NAEBV?$duration@_JU?$ratio@$00$0DLJKMKAA@@std@@@01@0@Z
	??$?OUsecond_tag@detail@cctz@time_internal@lts_20250814@absl@@U012345@@detail@cctz@time_internal@lts_20250814@absl@@YA_NAEBV?$civil_time@Usecond_tag@detail@cctz@time_internal@lts_20250814@absl@@@01234@0@Z
	??$?OUsystem_clock@chrono@std@@V?$duration@_JU?$ratio@$00$00@std@@@12@V312@@chrono@std@@YA_NAEBV?$time_point@Usystem_clock@chrono@std@@V?$duration@_JU?$ratio@$00$00@std@@@23@@01@0@Z
	??$?O_JU?$ratio@$00$00@std@@HU?$ratio@$0OBA@$00@1@@chrono@std@@YA_NAEBV?$duration@_JU?$ratio@$00$00@std@@@01@AEBV?$duration@HU?$ratio@$0OBA@$00@std@@@01@@Z
	??$?O_JU?$ratio@$00$0DLJKMKAA@@std@@_JU01@@chrono@std@@YA_NAEBV?$duration@_JU?$ratio@$00$0DLJKMKAA@@std@@@01@0@Z
	??$?O_JU?$ratio@$00$0DLJKMKAA@@std@@_JU?$ratio@$00$0DOI@@1@@chrono@std@@YA_NAEBV?$duration@_JU?$ratio@$00$0DLJKMKAA@@std@@@01@AEBV?$duration@_JU?$ratio@$00$0DOI@@std@@@01@@Z
	??$?O_JU?$ratio@$00$0JIJGIA@@std@@_JU?$ratio@$00$0DOI@@1@@chrono@std@@YA_NAEBV?$duration@_JU?$ratio@$00$0JIJGIA@@std@@@01@AEBV?$duration@_JU?$ratio@$00$0DOI@@std@@@01@@Z
	??$?O_K_K_K_K@std@@YA_NAEBU?$pair@_K_K@0@0@Z
	??$?PUsecond_tag@detail@cctz@time_internal@lts_20250814@absl@@U012345@@detail@cctz@time_internal@lts_20250814@absl@@YA_NAEBV?$civil_time@Usecond_tag@detail@cctz@time_internal@lts_20250814@absl@@@01234@0@Z
	??$?RAEAHAEAH@?$less@X@std@@QEBA_NAEAH0@Z
	??$?RAEANAEAN@?$plus@X@std@@QEBANAEAN0@Z
	??$?RAEAPEBDAEAHAEAY0LLI@DAEBQEBDPEAD@?$AtomicHook@P6AXPEBDH000@Z@base_internal@lts_20250814@absl@@QEBAXAEAPEBDAEAHAEAY0LLI@DAEBQEBD$$QEAPEAD@Z
	??$?RAEAW4LogSeverity@lts_20250814@absl@@AEAPEBDAEAHPEAPEADPEAH@?$AtomicHook@P6A_NW4LogSeverity@lts_20250814@absl@@PEBDHPEAPEADPEAH@Z@base_internal@lts_20250814@absl@@QEBA_NAEAW4LogSeverity@23@AEAPEBDAEAH$$QEAPEAPEAD$$QEAPEAH@Z
	??$?RAEAY04$$CBDPEAVCondVar@lts_20250814@absl@@@?$AtomicHook@P6AXPEBDPEBX@Z@base_internal@lts_20250814@absl@@QEBAXAEAY04$$CBD$$QEAPEAVCondVar@23@@Z
	??$?RAEAY06$$CBDPEAVCondVar@lts_20250814@absl@@@?$AtomicHook@P6AXPEBDPEBX@Z@base_internal@lts_20250814@absl@@QEBAXAEAY06$$CBD$$QEAPEAVCondVar@23@@Z
	??$?RAEAY0BB@$$CBDPEAVCondVar@lts_20250814@absl@@@?$AtomicHook@P6AXPEBDPEBX@Z@base_internal@lts_20250814@absl@@QEBAXAEAY0BB@$$CBD$$QEAPEAVCondVar@23@@Z
	??$?RAEAY0N@$$CBDPEAVMutex@lts_20250814@absl@@AEA_J@?$AtomicHook@P6AXPEBDPEBX_J@Z@base_internal@lts_20250814@absl@@QEBAXAEAY0N@$$CBD$$QEAPEAVMutex@23@AEA_J@Z
	??$?RAEAY0O@$$CBDPEAVCondVar@lts_20250814@absl@@@?$AtomicHook@P6AXPEBDPEBX@Z@base_internal@lts_20250814@absl@@QEBAXAEAY0O@$$CBD$$QEAPEAVCondVar@23@@Z
	??$?RAEA_J@?$AtomicHook@P6AX_J@Z@base_internal@lts_20250814@absl@@QEBAXAEA_J@Z
	??$?RAEBDAEBD@?$equal_to@X@std@@QEBA_NAEBD0@Z
	??$?RAEBEAEBE@?$less@X@std@@QEBA_NAEBE0@Z
	??$?RD$0A@@?$default_delete@$$BY0A@D@std@@QEBAXPEAD@Z
	??$?RH@?$_Uhash_compare@HU?$hash@H@std@@U?$equal_to@H@2@@std@@QEBA_KAEBH@Z
	??$?RHH@?$_Uhash_compare@HU?$hash@H@std@@U?$equal_to@H@2@@std@@QEBA_NAEBH0@Z
	??$?RPEAVSpinLock@base_internal@lts_20250814@absl@@AEB_J@?$AtomicHook@P6AXPEBX_J@Z@base_internal@lts_20250814@absl@@QEBAX$$QEAPEAVSpinLock@123@AEB_J@Z
	??$?RPEBUCordRep@cord_internal@lts_20250814@absl@@@?$_Uhash_compare@PEBUCordRep@cord_internal@lts_20250814@absl@@U?$hash@PEBUCordRep@cord_internal@lts_20250814@absl@@@std@@U?$equal_to@PEBUCordRep@cord_internal@lts_20250814@absl@@@6@@std@@QEBA_KAEBQEBUCordRep@cord_internal@lts_20250814@absl@@@Z
	??$?RPEBUCordRep@cord_internal@lts_20250814@absl@@PEBU0123@@?$_Uhash_compare@PEBUCordRep@cord_internal@lts_20250814@absl@@U?$hash@PEBUCordRep@cord_internal@lts_20250814@absl@@@std@@U?$equal_to@PEBUCordRep@cord_internal@lts_20250814@absl@@@6@@std@@QEBA_NAEBQEBUCordRep@cord_internal@lts_20250814@absl@@0@Z
	??$?RV?$basic_string@DU?$char_traits@D@std@@V?$allocator@D@2@@std@@$$V@?$HashElement@UStringHash@container_internal@lts_20250814@absl@@$00@container_internal@lts_20250814@absl@@QEBA_KAEBV?$basic_string@DU?$char_traits@D@std@@V?$allocator@D@2@@std@@@Z
	??$?RV?$basic_string@DU?$char_traits@D@std@@V?$allocator@D@2@@std@@@?$_Uhash_compare@V?$basic_string@DU?$char_traits@D@std@@V?$allocator@D@2@@std@@U?$hash@V?$basic_string@DU?$char_traits@D@std@@V?$allocator@D@2@@std@@@2@U?$equal_to@V?$basic_string@DU?$char_traits@D@std@@V?$allocator@D@2@@std@@@2@@std@@QEBA_KAEBV?$basic_string@DU?$char_traits@D@std@@V?$allocator@D@2@@1@@Z
	??$?RV?$basic_string@DU?$char_traits@D@std@@V?$allocator@D@2@@std@@AEBUpiecewise_construct_t@1@V?$tuple@AEBV?$basic_string@DU?$char_traits@D@std@@V?$allocator@D@2@@std@@@1@V?$tuple@AEBW4StringId@debugging_internal@lts_20250814@absl@@@1@@?$EqualElement@V?$basic_string@DU?$char_traits@D@std@@V?$allocator@D@2@@std@@UStringEq@container_internal@lts_20250814@absl@@@container_internal@lts_20250814@absl@@QEBA_NAEBV?$basic_string@DU?$char_traits@D@std@@V?$allocator@D@2@@std@@AEBUpiecewise_construct_t@5@$$QEAV?$tuple@AEBV?$basic_string@DU?$char_traits@D@std@@V?$allocator@D@2@@std@@@5@$$QEAV?$tuple@AEBW4StringId@debugging_internal@lts_20250814@absl@@@5@@Z
	??$?RV?$basic_string@DU?$char_traits@D@std@@V?$allocator@D@2@@std@@AEBUpiecewise_construct_t@1@V?$tuple@AEBV?$basic_string@DU?$char_traits@D@std@@V?$allocator@D@2@@std@@@1@V?$tuple@AEBW4StringId@debugging_internal@lts_20250814@absl@@@1@@?$EqualElement@V?$basic_string_view@DU?$char_traits@D@std@@@std@@UStringEq@container_internal@lts_20250814@absl@@@container_internal@lts_20250814@absl@@QEBA_NAEBV?$basic_string@DU?$char_traits@D@std@@V?$allocator@D@2@@std@@AEBUpiecewise_construct_t@5@$$QEAV?$tuple@AEBV?$basic_string@DU?$char_traits@D@std@@V?$allocator@D@2@@std@@@5@$$QEAV?$tuple@AEBW4StringId@debugging_internal@lts_20250814@absl@@@5@@Z
	??$?RV?$basic_string@DU?$char_traits@D@std@@V?$allocator@D@2@@std@@AEBUpiecewise_construct_t@1@V?$tuple@AEBV?$basic_string@DU?$char_traits@D@std@@V?$allocator@D@2@@std@@@1@V?$tuple@AEBW4StringId@debugging_internal@lts_20250814@absl@@@1@@?$HashElement@UStringHash@container_internal@lts_20250814@absl@@$00@container_internal@lts_20250814@absl@@QEBA_KAEBV?$basic_string@DU?$char_traits@D@std@@V?$allocator@D@2@@std@@AEBUpiecewise_construct_t@5@$$QEAV?$tuple@AEBV?$basic_string@DU?$char_traits@D@std@@V?$allocator@D@2@@std@@@5@$$QEAV?$tuple@AEBW4StringId@debugging_internal@lts_20250814@absl@@@5@@Z
	??$?RV?$basic_string@DU?$char_traits@D@std@@V?$allocator@D@2@@std@@AEBUpiecewise_construct_t@1@V?$tuple@AEBV?$basic_string@DU?$char_traits@D@std@@V?$allocator@D@2@@std@@@1@V?$tuple@AEBW4StringId@debugging_internal@lts_20250814@absl@@@1@@EmplaceDecomposable@?$raw_hash_set@U?$FlatHashMapPolicy@V?$basic_string@DU?$char_traits@D@std@@V?$allocator@D@2@@std@@W4StringId@debugging_internal@lts_20250814@absl@@@container_internal@lts_20250814@absl@@UStringHash@234@UStringEq@234@V?$allocator@U?$pair@$$CBV?$basic_string@DU?$char_traits@D@std@@V?$allocator@D@2@@std@@W4StringId@debugging_internal@lts_20250814@absl@@@std@@@std@@@container_internal@lts_20250814@absl@@QEBA?AU?$pair@Viterator@?$raw_hash_set@U?$FlatHashMapPolicy@V?$basic_string@DU?$char_traits@D@std@@V?$allocator@D@2@@std@@W4StringId@debugging_internal@lts_20250814@absl@@@container_internal@lts_20250814@absl@@UStringHash@234@UStringEq@234@V?$allocator@U?$pair@$$CBV?$basic_string@DU?$char_traits@D@std@@V?$allocator@D@2@@std@@W4StringId@debugging_internal@lts_20250814@absl@@@std@@@std@@@container_internal@lts_20250814@absl@@_N@std@@AEBV?$basic_string@DU?$char_traits@D@std@@V?$allocator@D@2@@6@AEBUpiecewise_construct_t@6@$$QEAV?$tuple@AEBV?$basic_string@DU?$char_traits@D@std@@V?$allocator@D@2@@std@@@6@$$QEAV?$tuple@AEBW4StringId@debugging_internal@lts_20250814@absl@@@6@@Z
	??$?RV?$basic_string@DU?$char_traits@D@std@@V?$allocator@D@2@@std@@V01@@?$_Uhash_compare@V?$basic_string@DU?$char_traits@D@std@@V?$allocator@D@2@@std@@U?$hash@V?$basic_string@DU?$char_traits@D@std@@V?$allocator@D@2@@std@@@2@U?$equal_to@V?$basic_string@DU?$char_traits@D@std@@V?$allocator@D@2@@std@@@2@@std@@QEBA_NAEBV?$basic_string@DU?$char_traits@D@std@@V?$allocator@D@2@@1@0@Z
	??$?RV?$basic_string_view@DU?$char_traits@D@std@@@std@@$$V@?$HashElement@UStringHash@container_internal@lts_20250814@absl@@$00@container_internal@lts_20250814@absl@@QEBA_KAEBV?$basic_string_view@DU?$char_traits@D@std@@@std@@@Z
	??$?RV?$basic_string_view@DU?$char_traits@D@std@@@std@@AEBUpiecewise_construct_t@1@V?$tuple@AEAV?$basic_string_view@DU?$char_traits@D@std@@@std@@@1@V?$tuple@$$QEAW4StringId@debugging_internal@lts_20250814@absl@@@1@@EmplaceDecomposable@?$raw_hash_set@U?$FlatHashMapPolicy@V?$basic_string@DU?$char_traits@D@std@@V?$allocator@D@2@@std@@W4StringId@debugging_internal@lts_20250814@absl@@@container_internal@lts_20250814@absl@@UStringHash@234@UStringEq@234@V?$allocator@U?$pair@$$CBV?$basic_string@DU?$char_traits@D@std@@V?$allocator@D@2@@std@@W4StringId@debugging_internal@lts_20250814@absl@@@std@@@std@@@container_internal@lts_20250814@absl@@QEBA?AU?$pair@Viterator@?$raw_hash_set@U?$FlatHashMapPolicy@V?$basic_string@DU?$char_traits@D@std@@V?$allocator@D@2@@std@@W4StringId@debugging_internal@lts_20250814@absl@@@container_internal@lts_20250814@absl@@UStringHash@234@UStringEq@234@V?$allocator@U?$pair@$$CBV?$basic_string@DU?$char_traits@D@std@@V?$allocator@D@2@@std@@W4StringId@debugging_internal@lts_20250814@absl@@@std@@@std@@@container_internal@lts_20250814@absl@@_N@std@@AEBV?$basic_string_view@DU?$char_traits@D@std@@@6@AEBUpiecewise_construct_t@6@$$QEAV?$tuple@AEAV?$basic_string_view@DU?$char_traits@D@std@@@std@@@6@$$QEAV?$tuple@$$QEAW4StringId@debugging_internal@lts_20250814@absl@@@6@@Z
	??$?RVMixingHashState@hash_internal@lts_20250814@absl@@@CombineRaw@hash_internal@lts_20250814@absl@@QEBA?AVMixingHashState@123@V4123@_K@Z
	??$?RW4LogSeverity@lts_20250814@absl@@AEBQEBDHAEAPEBD@?$AtomicHook@P6AXW4LogSeverity@lts_20250814@absl@@PEBDHAEBV?$basic_string@DU?$char_traits@D@std@@V?$allocator@D@2@@std@@@Z@base_internal@lts_20250814@absl@@QEBAX$$QEAW4LogSeverity@23@AEBQEBD$$QEAHAEAPEBD@Z
	??$?RW4LogSeverity@lts_20250814@absl@@AEBQEBDHAEAV?$basic_string@DU?$char_traits@D@std@@V?$allocator@D@2@@std@@@?$AtomicHook@P6AXW4LogSeverity@lts_20250814@absl@@PEBDHAEBV?$basic_string@DU?$char_traits@D@std@@V?$allocator@D@2@@std@@@Z@base_internal@lts_20250814@absl@@QEBAX$$QEAW4LogSeverity@23@AEBQEBD$$QEAHAEAV?$basic_string@DU?$char_traits@D@std@@V?$allocator@D@2@@std@@@Z
	??$?RW4LogSeverity@lts_20250814@absl@@AEBQEBDHAEAY0CC@$$CBD@?$AtomicHook@P6AXW4LogSeverity@lts_20250814@absl@@PEBDHAEBV?$basic_string@DU?$char_traits@D@std@@V?$allocator@D@2@@std@@@Z@base_internal@lts_20250814@absl@@QEBAX$$QEAW4LogSeverity@23@AEBQEBD$$QEAHAEAY0CC@$$CBD@Z
	??$?RW4LogSeverity@lts_20250814@absl@@AEBQEBDHAEAY0CG@$$CBD@?$AtomicHook@P6AXW4LogSeverity@lts_20250814@absl@@PEBDHAEBV?$basic_string@DU?$char_traits@D@std@@V?$allocator@D@2@@std@@@Z@base_internal@lts_20250814@absl@@QEBAX$$QEAW4LogSeverity@23@AEBQEBD$$QEAHAEAY0CG@$$CBD@Z
	??$?RW4LogSeverity@lts_20250814@absl@@AEBQEBDHV?$basic_string@DU?$char_traits@D@std@@V?$allocator@D@2@@std@@@?$AtomicHook@P6AXW4LogSeverity@lts_20250814@absl@@PEBDHAEBV?$basic_string@DU?$char_traits@D@std@@V?$allocator@D@2@@std@@@Z@base_internal@lts_20250814@absl@@QEBAX$$QEAW4LogSeverity@23@AEBQEBD$$QEAH$$QEAV?$basic_string@DU?$char_traits@D@std@@V?$allocator@D@2@@std@@@Z
	??$?R_K$$V@?$HashElement@U?$Hash@_K@hash_internal@lts_20250814@absl@@$00@container_internal@lts_20250814@absl@@QEBA_KAEB_K@Z
	??$?R_KAEBUpiecewise_construct_t@std@@V?$tuple@$$QEA_K@1@V?$tuple@$$QEAW4LocationId@debugging_internal@lts_20250814@absl@@@1@@EmplaceDecomposable@?$raw_hash_set@U?$FlatHashMapPolicy@_KW4LocationId@debugging_internal@lts_20250814@absl@@@container_internal@lts_20250814@absl@@U?$Hash@_K@hash_internal@34@U?$equal_to@_K@std@@V?$allocator@U?$pair@$$CB_KW4LocationId@debugging_internal@lts_20250814@absl@@@std@@@8@@container_internal@lts_20250814@absl@@QEBA?AU?$pair@Viterator@?$raw_hash_set@U?$FlatHashMapPolicy@_KW4LocationId@debugging_internal@lts_20250814@absl@@@container_internal@lts_20250814@absl@@U?$Hash@_K@hash_internal@34@U?$equal_to@_K@std@@V?$allocator@U?$pair@$$CB_KW4LocationId@debugging_internal@lts_20250814@absl@@@std@@@8@@container_internal@lts_20250814@absl@@_N@std@@AEB_KAEBUpiecewise_construct_t@6@$$QEAV?$tuple@$$QEA_K@6@$$QEAV?$tuple@$$QEAW4LocationId@debugging_internal@lts_20250814@absl@@@6@@Z
	??$?R_KAEBUpiecewise_construct_t@std@@V?$tuple@AEB_K@1@V?$tuple@AEBW4LocationId@debugging_internal@lts_20250814@absl@@@1@@?$EqualElement@_KU?$equal_to@_K@std@@@container_internal@lts_20250814@absl@@QEBA_NAEB_KAEBUpiecewise_construct_t@std@@$$QEAV?$tuple@AEB_K@5@$$QEAV?$tuple@AEBW4LocationId@debugging_internal@lts_20250814@absl@@@5@@Z
	??$?R_KAEBUpiecewise_construct_t@std@@V?$tuple@AEB_K@1@V?$tuple@AEBW4LocationId@debugging_internal@lts_20250814@absl@@@1@@?$HashElement@U?$Hash@_K@hash_internal@lts_20250814@absl@@$00@container_internal@lts_20250814@absl@@QEBA_KAEB_KAEBUpiecewise_construct_t@std@@$$QEAV?$tuple@AEB_K@5@$$QEAV?$tuple@AEBW4LocationId@debugging_internal@lts_20250814@absl@@@5@@Z
	??$?R_K_K$0A@@checked_compare@?$key_compare_adapter@U?$less@_K@std@@_K@container_internal@lts_20250814@absl@@QEBA_NAEB_K0@Z
	??$?R_K_K@?$upper_bound_adapter@Uchecked_compare@?$key_compare_adapter@U?$less@_K@std@@_K@container_internal@lts_20250814@absl@@@container_internal@lts_20250814@absl@@QEBA_NAEB_K0@Z
	??$?VAEAVLogMessage@log_internal@lts_20250814@absl@@@Voidify@log_internal@lts_20250814@absl@@QEHBAXAEAVLogMessage@123@@Z
	??$?XH$0A@@Duration@lts_20250814@absl@@QEAAAEAV012@H@Z
	??$AbslHashValue@VMixingHashState@hash_internal@lts_20250814@absl@@@hash_internal@lts_20250814@absl@@YA?AVMixingHashState@012@V3012@V?$basic_string_view@DU?$char_traits@D@std@@@std@@@Z
	??$AbslHashValue@VMixingHashState@hash_internal@lts_20250814@absl@@AEBV?$basic_string_view@DU?$char_traits@D@std@@@std@@AEBH@hash_internal@lts_20250814@absl@@YA?AVMixingHashState@012@V3012@AEBV?$tuple@AEBV?$basic_string_view@DU?$char_traits@D@std@@@std@@AEBH@std@@@Z
	??$AbslHashValue@VMixingHashState@hash_internal@lts_20250814@absl@@AEB_K@hash_internal@lts_20250814@absl@@YA?AVMixingHashState@012@V3012@AEBV?$tuple@AEB_K@std@@@Z
	??$AbslStringify@VStringifySink@strings_internal@lts_20250814@absl@@@lts_20250814@absl@@YAXAEAVStringifySink@strings_internal@01@UHex@01@@Z
	??$Add@$00@CordRepBtree@cord_internal@lts_20250814@absl@@AEAAXPEAUCordRep@123@@Z
	??$Add@$00@CordRepBtree@cord_internal@lts_20250814@absl@@AEAAXV?$Span@QEAUCordRep@cord_internal@lts_20250814@absl@@@23@@Z
	??$Add@$0A@@CordRepBtree@cord_internal@lts_20250814@absl@@AEAAXPEAUCordRep@123@@Z
	??$Add@$0A@@CordRepBtree@cord_internal@lts_20250814@absl@@AEAAXV?$Span@QEAUCordRep@cord_internal@lts_20250814@absl@@@23@@Z
	??$AddCordRep@$00@CordRepBtree@cord_internal@lts_20250814@absl@@CAPEAV0123@PEAV0123@PEAUCordRep@123@@Z
	??$AddCordRep@$0A@@CordRepBtree@cord_internal@lts_20250814@absl@@CAPEAV0123@PEAV0123@PEAUCordRep@123@@Z
	??$AddData@$00@CordRepBtree@cord_internal@lts_20250814@absl@@AEAA?AV?$basic_string_view@DU?$char_traits@D@std@@@std@@V45@_K@Z
	??$AddData@$00@CordRepBtree@cord_internal@lts_20250814@absl@@CAPEAV0123@PEAV0123@V?$basic_string_view@DU?$char_traits@D@std@@@std@@_K@Z
	??$AddData@$0A@@CordRepBtree@cord_internal@lts_20250814@absl@@AEAA?AV?$basic_string_view@DU?$char_traits@D@std@@@std@@V45@_K@Z
	??$AddData@$0A@@CordRepBtree@cord_internal@lts_20250814@absl@@CAPEAV0123@PEAV0123@V?$basic_string_view@DU?$char_traits@D@std@@@std@@_K@Z
	??$AddEdge@$00@CordRepBtree@cord_internal@lts_20250814@absl@@QEAA?AUOpResult@0123@_NPEAUCordRep@123@_K@Z
	??$AddEdge@$0A@@CordRepBtree@cord_internal@lts_20250814@absl@@QEAA?AUOpResult@0123@_NPEAUCordRep@123@_K@Z
	??$Allocate@$07V?$allocator@D@std@@@container_internal@lts_20250814@absl@@YAPEAXPEAV?$allocator@D@std@@_K@Z
	??$Allocate@$07V?$allocator@U?$pair@$$CB_K_K@std@@@std@@@container_internal@lts_20250814@absl@@YAPEAXPEAV?$allocator@U?$pair@$$CB_K_K@std@@@std@@_K@Z
	??$AllocateBackingArray@$07V?$allocator@D@std@@@container_internal@lts_20250814@absl@@YAPEAXPEAX_K@Z
	??$Append@V?$basic_string@DU?$char_traits@D@std@@V?$allocator@D@2@@std@@$0A@@Cord@lts_20250814@absl@@QEAAX$$QEAV?$basic_string@DU?$char_traits@D@std@@V?$allocator@D@2@@std@@@Z
	??$AppendImpl@AEBVCord@lts_20250814@absl@@@Cord@lts_20250814@absl@@AEAAXAEBV012@@Z
	??$AppendImpl@VCord@lts_20250814@absl@@@Cord@lts_20250814@absl@@AEAAX$$QEAV012@@Z
	??$ArgumentToConv@C@str_format_internal@lts_20250814@absl@@YA?AW4FormatConversionCharSet@12@XZ
	??$ArgumentToConv@D@str_format_internal@lts_20250814@absl@@YA?AW4FormatConversionCharSet@12@XZ
	??$ArgumentToConv@E@str_format_internal@lts_20250814@absl@@YA?AW4FormatConversionCharSet@12@XZ
	??$ArgumentToConv@F@str_format_internal@lts_20250814@absl@@YA?AW4FormatConversionCharSet@12@XZ
	??$ArgumentToConv@G@str_format_internal@lts_20250814@absl@@YA?AW4FormatConversionCharSet@12@XZ
	??$ArgumentToConv@H@str_format_internal@lts_20250814@absl@@YA?AW4FormatConversionCharSet@12@XZ
	??$ArgumentToConv@I@str_format_internal@lts_20250814@absl@@YA?AW4FormatConversionCharSet@12@XZ
	??$ArgumentToConv@J@str_format_internal@lts_20250814@absl@@YA?AW4FormatConversionCharSet@12@XZ
	??$ArgumentToConv@K@str_format_internal@lts_20250814@absl@@YA?AW4FormatConversionCharSet@12@XZ
	??$ArgumentToConv@M@str_format_internal@lts_20250814@absl@@YA?AW4FormatConversionCharSet@12@XZ
	??$ArgumentToConv@N@str_format_internal@lts_20250814@absl@@YA?AW4FormatConversionCharSet@12@XZ
	??$ArgumentToConv@O@str_format_internal@lts_20250814@absl@@YA?AW4FormatConversionCharSet@12@XZ
	??$ArgumentToConv@PEBD@str_format_internal@lts_20250814@absl@@YA?AW4FormatConversionCharSet@12@XZ
	??$ArgumentToConv@PEB_W@str_format_internal@lts_20250814@absl@@YA?AW4FormatConversionCharSet@12@XZ
	??$ArgumentToConv@UVoidPtr@str_format_internal@lts_20250814@absl@@@str_format_internal@lts_20250814@absl@@YA?AW4FormatConversionCharSet@12@XZ
	??$ArgumentToConv@V?$basic_string@DU?$char_traits@D@std@@V?$allocator@D@2@@std@@@str_format_internal@lts_20250814@absl@@YA?AW4FormatConversionCharSet@12@XZ
	??$ArgumentToConv@V?$basic_string@_WU?$char_traits@_W@std@@V?$allocator@_W@2@@std@@@str_format_internal@lts_20250814@absl@@YA?AW4FormatConversionCharSet@12@XZ
	??$ArgumentToConv@V?$basic_string_view@DU?$char_traits@D@std@@@std@@@str_format_internal@lts_20250814@absl@@YA?AW4FormatConversionCharSet@12@XZ
	??$ArgumentToConv@V?$basic_string_view@_WU?$char_traits@_W@std@@@std@@@str_format_internal@lts_20250814@absl@@YA?AW4FormatConversionCharSet@12@XZ
	??$ArgumentToConv@Vint128@lts_20250814@absl@@@str_format_internal@lts_20250814@absl@@YA?AW4FormatConversionCharSet@12@XZ
	??$ArgumentToConv@Vuint128@lts_20250814@absl@@@str_format_internal@lts_20250814@absl@@YA?AW4FormatConversionCharSet@12@XZ
	??$ArgumentToConv@_J@str_format_internal@lts_20250814@absl@@YA?AW4FormatConversionCharSet@12@XZ
	??$ArgumentToConv@_K@str_format_internal@lts_20250814@absl@@YA?AW4FormatConversionCharSet@12@XZ
	??$ArgumentToConv@_N@str_format_internal@lts_20250814@absl@@YA?AW4FormatConversionCharSet@12@XZ
	??$AsciiInAZRange@$00@ascii_internal@lts_20250814@absl@@YA_NE@Z
	??$AsciiInAZRange@$0A@@ascii_internal@lts_20250814@absl@@YA_NE@Z
	??$AsciiInAZRangeNaive@$00@ascii_internal@lts_20250814@absl@@YA_NE@Z
	??$AsciiInAZRangeNaive@$0A@@ascii_internal@lts_20250814@absl@@YA_NE@Z
	??$AsciiStrCaseFold@$00@ascii_internal@lts_20250814@absl@@YAXPEADPEBD_K@Z
	??$AsciiStrCaseFold@$0A@@ascii_internal@lts_20250814@absl@@YAXPEADPEBD_K@Z
	??$AsciiStrCaseFoldImpl@$00$00@ascii_internal@lts_20250814@absl@@YAXPEADPEBD_K@Z
	??$AsciiStrCaseFoldImpl@$00$0A@@ascii_internal@lts_20250814@absl@@YAXPEADPEBD_K@Z
	??$AsciiStrCaseFoldImpl@$0A@$00@ascii_internal@lts_20250814@absl@@YAXPEADPEBD_K@Z
	??$AsciiStrCaseFoldImpl@$0A@$0A@@ascii_internal@lts_20250814@absl@@YAXPEADPEBD_K@Z
	??$AssertHashEqConsistent@V?$basic_string@DU?$char_traits@D@std@@V?$allocator@D@2@@std@@@?$raw_hash_set@U?$FlatHashMapPolicy@V?$basic_string@DU?$char_traits@D@std@@V?$allocator@D@2@@std@@W4StringId@debugging_internal@lts_20250814@absl@@@container_internal@lts_20250814@absl@@UStringHash@234@UStringEq@234@V?$allocator@U?$pair@$$CBV?$basic_string@DU?$char_traits@D@std@@V?$allocator@D@2@@std@@W4StringId@debugging_internal@lts_20250814@absl@@@std@@@std@@@container_internal@lts_20250814@absl@@IEAAXAEBV?$basic_string@DU?$char_traits@D@std@@V?$allocator@D@2@@std@@@Z
	??$AssertHashEqConsistent@V?$basic_string_view@DU?$char_traits@D@std@@@std@@@?$raw_hash_set@U?$FlatHashMapPolicy@V?$basic_string@DU?$char_traits@D@std@@V?$allocator@D@2@@std@@W4StringId@debugging_internal@lts_20250814@absl@@@container_internal@lts_20250814@absl@@UStringHash@234@UStringEq@234@V?$allocator@U?$pair@$$CBV?$basic_string@DU?$char_traits@D@std@@V?$allocator@D@2@@std@@W4StringId@debugging_internal@lts_20250814@absl@@@std@@@std@@@container_internal@lts_20250814@absl@@IEAAXAEBV?$basic_string_view@DU?$char_traits@D@std@@@std@@@Z
	??$AssertHashEqConsistent@_K@?$raw_hash_set@U?$FlatHashMapPolicy@_KW4LocationId@debugging_internal@lts_20250814@absl@@@container_internal@lts_20250814@absl@@U?$Hash@_K@hash_internal@34@U?$equal_to@_K@std@@V?$allocator@U?$pair@$$CB_KW4LocationId@debugging_internal@lts_20250814@absl@@@std@@@8@@container_internal@lts_20250814@absl@@IEAAXAEB_K@Z
	??$AssertNonNull@U?$HashKey@U?$Hash@_K@hash_internal@lts_20250814@absl@@_K$00@container_internal@lts_20250814@absl@@@functional_internal@lts_20250814@absl@@YAXAEBU?$HashKey@U?$Hash@_K@hash_internal@lts_20250814@absl@@_K$00@container_internal@12@@Z
	??$AssertNonNull@U?$HashKey@UStringHash@container_internal@lts_20250814@absl@@V?$basic_string@DU?$char_traits@D@std@@V?$allocator@D@2@@std@@$00@container_internal@lts_20250814@absl@@@functional_internal@lts_20250814@absl@@YAXAEBU?$HashKey@UStringHash@container_internal@lts_20250814@absl@@V?$basic_string@DU?$char_traits@D@std@@V?$allocator@D@2@@std@@$00@container_internal@12@@Z
	??$AssertNonNull@U?$HashKey@UStringHash@container_internal@lts_20250814@absl@@V?$basic_string_view@DU?$char_traits@D@std@@@std@@$00@container_internal@lts_20250814@absl@@@functional_internal@lts_20250814@absl@@YAXAEBU?$HashKey@UStringHash@container_internal@lts_20250814@absl@@V?$basic_string_view@DU?$char_traits@D@std@@@std@@$00@container_internal@12@@Z
	??$AssertNonNull@V<lambda_17cdf8ef4ee8f7f2e0a955d26fb7d5be>@@@functional_internal@lts_20250814@absl@@YAXAEBV<lambda_17cdf8ef4ee8f7f2e0a955d26fb7d5be>@@@Z
	??$AssertNonNull@V<lambda_bc50e1e2b0efe80036ecdb03cfc5f386>@@@functional_internal@lts_20250814@absl@@YAXAEBV<lambda_bc50e1e2b0efe80036ecdb03cfc5f386>@@@Z
	??$AssertNonNull@V<lambda_c884bfc8408f1d3d05393c9ea419951e>@@@functional_internal@lts_20250814@absl@@YAXAEBV<lambda_c884bfc8408f1d3d05393c9ea419951e>@@@Z
	??$AssertNonNull@V<lambda_dc9c81c998fd861b1d3d53f3180a1638>@@@functional_internal@lts_20250814@absl@@YAXAEBV<lambda_dc9c81c998fd861b1d3d53f3180a1638>@@@Z
	??$AssertNonNull@V<lambda_fc901c4f23cd8a4588bfa54a62041efc>@@@functional_internal@lts_20250814@absl@@YAXAEBV<lambda_fc901c4f23cd8a4588bfa54a62041efc>@@@Z
	??$AssertOnFind@V?$basic_string@DU?$char_traits@D@std@@V?$allocator@D@2@@std@@@?$raw_hash_set@U?$FlatHashMapPolicy@V?$basic_string@DU?$char_traits@D@std@@V?$allocator@D@2@@std@@W4StringId@debugging_internal@lts_20250814@absl@@@container_internal@lts_20250814@absl@@UStringHash@234@UStringEq@234@V?$allocator@U?$pair@$$CBV?$basic_string@DU?$char_traits@D@std@@V?$allocator@D@2@@std@@W4StringId@debugging_internal@lts_20250814@absl@@@std@@@std@@@container_internal@lts_20250814@absl@@IEAAXAEBV?$basic_string@DU?$char_traits@D@std@@V?$allocator@D@2@@std@@@Z
	??$AssertOnFind@V?$basic_string_view@DU?$char_traits@D@std@@@std@@@?$raw_hash_set@U?$FlatHashMapPolicy@V?$basic_string@DU?$char_traits@D@std@@V?$allocator@D@2@@std@@W4StringId@debugging_internal@lts_20250814@absl@@@container_internal@lts_20250814@absl@@UStringHash@234@UStringEq@234@V?$allocator@U?$pair@$$CBV?$basic_string@DU?$char_traits@D@std@@V?$allocator@D@2@@std@@W4StringId@debugging_internal@lts_20250814@absl@@@std@@@std@@@container_internal@lts_20250814@absl@@IEAAXAEBV?$basic_string_view@DU?$char_traits@D@std@@@std@@@Z
	??$AssertOnFind@_K@?$raw_hash_set@U?$FlatHashMapPolicy@_KW4LocationId@debugging_internal@lts_20250814@absl@@@container_internal@lts_20250814@absl@@U?$Hash@_K@hash_internal@34@U?$equal_to@_K@std@@V?$allocator@U?$pair@$$CB_KW4LocationId@debugging_internal@lts_20250814@absl@@@std@@@8@@container_internal@lts_20250814@absl@@IEAAXAEB_K@Z
	??$AssignElements@V?$allocator@UPayload@status_internal@lts_20250814@absl@@@std@@V?$IteratorValueAdapter@V?$allocator@UPayload@status_internal@lts_20250814@absl@@@std@@V?$move_iterator@PEAUPayload@status_internal@lts_20250814@absl@@@2@@inlined_vector_internal@lts_20250814@absl@@@inlined_vector_internal@lts_20250814@absl@@YAXPEAUPayload@status_internal@12@AEAV?$IteratorValueAdapter@V?$allocator@UPayload@status_internal@lts_20250814@absl@@@std@@V?$move_iterator@PEAUPayload@status_internal@lts_20250814@absl@@@2@@012@_K@Z
	??$Base64EscapeInternal@V?$basic_string@DU?$char_traits@D@std@@V?$allocator@D@2@@std@@@strings_internal@lts_20250814@absl@@YAXPEBE_KPEAV?$basic_string@DU?$char_traits@D@std@@V?$allocator@D@2@@std@@_NPEBD@Z
	??$CallOnceImpl@A6AXXZ$$V@base_internal@lts_20250814@absl@@YAXPEAU?$atomic@I@std@@W4SchedulingMode@012@A6AXXZ@Z
	??$CastAndCallFunction@$$CBU?$atomic@_N@std@@@Condition@lts_20250814@absl@@CA_NPEBV012@@Z
	??$CastAndCallFunction@USynchEvent@lts_20250814@absl@@@Condition@lts_20250814@absl@@CA_NPEBV012@@Z
	??$Compare@$0FE@$0FE@@strings_internal@lts_20250814@absl@@YAHAEBV?$BigUnsigned@$0FE@@012@0@Z
	??$Construct@V?$node_handle@U?$map_params@_K_KU?$less@_K@std@@V?$allocator@U?$pair@$$CB_K_K@std@@@2@$0BAA@$0A@@container_internal@lts_20250814@absl@@U1234@V?$allocator@U?$pair@$$CB_K_K@std@@@std@@X@container_internal@lts_20250814@absl@@V?$allocator@U?$pair@$$CB_K_K@std@@@std@@AEA_KAEA_K@CommonAccess@container_internal@lts_20250814@absl@@SA?AV?$node_handle@U?$map_params@_K_KU?$less@_K@std@@V?$allocator@U?$pair@$$CB_K_K@std@@@2@$0BAA@$0A@@container_internal@lts_20250814@absl@@U1234@V?$allocator@U?$pair@$$CB_K_K@std@@@std@@X@123@$$QEAV?$allocator@U?$pair@$$CB_K_K@std@@@std@@AEA_K1@Z
	??$ConstructElements@V?$allocator@PEAUCordRep@cord_internal@lts_20250814@absl@@@std@@V?$IteratorValueAdapter@V?$allocator@PEAUCordRep@cord_internal@lts_20250814@absl@@@std@@V?$move_iterator@PEAPEAUCordRep@cord_internal@lts_20250814@absl@@@2@@inlined_vector_internal@lts_20250814@absl@@@inlined_vector_internal@lts_20250814@absl@@YAXAEAV?$allocator@PEAUCordRep@cord_internal@lts_20250814@absl@@@std@@PEAPEAUCordRep@cord_internal@12@AEAV?$IteratorValueAdapter@V?$allocator@PEAUCordRep@cord_internal@lts_20250814@absl@@@std@@V?$move_iterator@PEAPEAUCordRep@cord_internal@lts_20250814@absl@@@2@@012@_K@Z
	??$ConstructElements@V?$allocator@PEAVLogSink@lts_20250814@absl@@@std@@V?$IteratorValueAdapter@V?$allocator@PEAVLogSink@lts_20250814@absl@@@std@@V?$move_iterator@PEAPEAVLogSink@lts_20250814@absl@@@2@@inlined_vector_internal@lts_20250814@absl@@@inlined_vector_internal@lts_20250814@absl@@YAXAEAV?$allocator@PEAVLogSink@lts_20250814@absl@@@std@@PEAPEAVLogSink@12@AEAV?$IteratorValueAdapter@V?$allocator@PEAVLogSink@lts_20250814@absl@@@std@@V?$move_iterator@PEAPEAVLogSink@lts_20250814@absl@@@2@@012@_K@Z
	??$ConstructElements@V?$allocator@UPayload@status_internal@lts_20250814@absl@@@std@@V?$IteratorValueAdapter@V?$allocator@UPayload@status_internal@lts_20250814@absl@@@std@@PEBUPayload@status_internal@lts_20250814@absl@@@inlined_vector_internal@lts_20250814@absl@@@inlined_vector_internal@lts_20250814@absl@@YAXAEAV?$allocator@UPayload@status_internal@lts_20250814@absl@@@std@@PEAUPayload@status_internal@12@AEAV?$IteratorValueAdapter@V?$allocator@UPayload@status_internal@lts_20250814@absl@@@std@@PEBUPayload@status_internal@lts_20250814@absl@@@012@_K@Z
	??$ConstructElements@V?$allocator@UPayload@status_internal@lts_20250814@absl@@@std@@V?$IteratorValueAdapter@V?$allocator@UPayload@status_internal@lts_20250814@absl@@@std@@V?$move_iterator@PEAUPayload@status_internal@lts_20250814@absl@@@2@@inlined_vector_internal@lts_20250814@absl@@@inlined_vector_internal@lts_20250814@absl@@YAXAEAV?$allocator@UPayload@status_internal@lts_20250814@absl@@@std@@PEAUPayload@status_internal@12@AEAV?$IteratorValueAdapter@V?$allocator@UPayload@status_internal@lts_20250814@absl@@@std@@V?$move_iterator@PEAUPayload@status_internal@lts_20250814@absl@@@2@@012@_K@Z
	??$ConstructElements@V?$allocator@VFormatArgImpl@str_format_internal@lts_20250814@absl@@@std@@V?$IteratorValueAdapter@V?$allocator@VFormatArgImpl@str_format_internal@lts_20250814@absl@@@std@@PEBVFormatArgImpl@str_format_internal@lts_20250814@absl@@@inlined_vector_internal@lts_20250814@absl@@@inlined_vector_internal@lts_20250814@absl@@YAXAEAV?$allocator@VFormatArgImpl@str_format_internal@lts_20250814@absl@@@std@@PEAVFormatArgImpl@str_format_internal@12@AEAV?$IteratorValueAdapter@V?$allocator@VFormatArgImpl@str_format_internal@lts_20250814@absl@@@std@@PEBVFormatArgImpl@str_format_internal@lts_20250814@absl@@@012@_K@Z
	??$ConstructRange@V?$allocator@D@std@@PEAD$$V@memory_internal@lts_20250814@absl@@YAXAEAV?$allocator@D@std@@PEAD1@Z
	??$ConsumeConversion@$00@str_format_internal@lts_20250814@absl@@YAPEBDPEBDQEBDPEAUUnboundConversion@012@PEAH@Z
	??$ConsumeConversion@$0A@@str_format_internal@lts_20250814@absl@@YAPEBDPEBDQEBDPEAUUnboundConversion@012@PEAH@Z
	??$Convert@VFormatArgImpl@str_format_internal@lts_20250814@absl@@@FormatArgImplFriend@str_format_internal@lts_20250814@absl@@SA_NVFormatArgImpl@123@VFormatConversionSpecImpl@123@PEAVFormatSinkImpl@123@@Z
	??$ConvertIntArg@C@str_format_internal@lts_20250814@absl@@YA_NCVFormatConversionSpecImpl@012@PEAVFormatSinkImpl@012@@Z
	??$ConvertIntArg@D@str_format_internal@lts_20250814@absl@@YA_NDVFormatConversionSpecImpl@012@PEAVFormatSinkImpl@012@@Z
	??$ConvertIntArg@E@str_format_internal@lts_20250814@absl@@YA_NEVFormatConversionSpecImpl@012@PEAVFormatSinkImpl@012@@Z
	??$ConvertIntArg@F@str_format_internal@lts_20250814@absl@@YA_NFVFormatConversionSpecImpl@012@PEAVFormatSinkImpl@012@@Z
	??$ConvertIntArg@G@str_format_internal@lts_20250814@absl@@YA_NGVFormatConversionSpecImpl@012@PEAVFormatSinkImpl@012@@Z
	??$ConvertIntArg@H@str_format_internal@lts_20250814@absl@@YA_NHVFormatConversionSpecImpl@012@PEAVFormatSinkImpl@012@@Z
	??$ConvertIntArg@I@str_format_internal@lts_20250814@absl@@YA_NIVFormatConversionSpecImpl@012@PEAVFormatSinkImpl@012@@Z
	??$ConvertIntArg@J@str_format_internal@lts_20250814@absl@@YA_NJVFormatConversionSpecImpl@012@PEAVFormatSinkImpl@012@@Z
	??$ConvertIntArg@K@str_format_internal@lts_20250814@absl@@YA_NKVFormatConversionSpecImpl@012@PEAVFormatSinkImpl@012@@Z
	??$ConvertIntArg@Vint128@lts_20250814@absl@@@str_format_internal@lts_20250814@absl@@YA_NVint128@12@VFormatConversionSpecImpl@012@PEAVFormatSinkImpl@012@@Z
	??$ConvertIntArg@Vuint128@lts_20250814@absl@@@str_format_internal@lts_20250814@absl@@YA_NVuint128@12@VFormatConversionSpecImpl@012@PEAVFormatSinkImpl@012@@Z
	??$ConvertIntArg@_J@str_format_internal@lts_20250814@absl@@YA_N_JVFormatConversionSpecImpl@012@PEAVFormatSinkImpl@012@@Z
	??$ConvertIntArg@_K@str_format_internal@lts_20250814@absl@@YA_N_KVFormatConversionSpecImpl@012@PEAVFormatSinkImpl@012@@Z
	??$ConvertIntArg@_W@str_format_internal@lts_20250814@absl@@YA_N_WVFormatConversionSpecImpl@012@PEAVFormatSinkImpl@012@@Z
	??$CopyToEncodedBuffer@$00@LogMessage@log_internal@lts_20250814@absl@@AEAAXD_K@Z
	??$CopyToEncodedBuffer@$00@LogMessage@log_internal@lts_20250814@absl@@AEAAXV?$basic_string_view@DU?$char_traits@D@std@@@std@@@Z
	??$CopyToEncodedBuffer@$00@LogMessage@log_internal@lts_20250814@absl@@AEAAXV?$basic_string_view@_WU?$char_traits@_W@std@@@std@@@Z
	??$CopyToEncodedBuffer@$0A@@LogMessage@log_internal@lts_20250814@absl@@AEAAXD_K@Z
	??$CopyToEncodedBuffer@$0A@@LogMessage@log_internal@lts_20250814@absl@@AEAAXV?$basic_string_view@DU?$char_traits@D@std@@@std@@@Z
	??$CopyToEncodedBuffer@$0A@@LogMessage@log_internal@lts_20250814@absl@@AEAAXV?$basic_string_view@_WU?$char_traits@_W@std@@@std@@@Z
	??$CopyToEncodedBufferWithStructuredProtoField@$00@LogMessage@log_internal@lts_20250814@absl@@AEAAXUStructuredProtoField@123@V?$basic_string_view@DU?$char_traits@D@std@@@std@@@Z
	??$CopyToEncodedBufferWithStructuredProtoField@$0A@@LogMessage@log_internal@lts_20250814@absl@@AEAAXUStructuredProtoField@123@V?$basic_string_view@DU?$char_traits@D@std@@@std@@@Z
	??$CountLeadingZeroes@G@numeric_internal@lts_20250814@absl@@YAHG@Z
	??$CountLeadingZeroes@_K@numeric_internal@lts_20250814@absl@@YAH_K@Z
	??$CountTrailingZeroes@G@numeric_internal@lts_20250814@absl@@YAHG@Z
	??$CountTrailingZeroes@I@numeric_internal@lts_20250814@absl@@YAHI@Z
	??$CountTrailingZeroes@_K@numeric_internal@lts_20250814@absl@@YAH_K@Z
	??$CreateDefault@$00@CommonFields@container_internal@lts_20250814@absl@@SA?AV0123@XZ
	??$CreateDefault@$0A@@CommonFields@container_internal@lts_20250814@absl@@SA?AV0123@XZ
	??$CreateWithCustomLimitImpl@$$V@CordBuffer@lts_20250814@absl@@CA?AV012@_K0@Z
	??$Deallocate@$07V?$allocator@D@std@@@container_internal@lts_20250814@absl@@YAXPEAV?$allocator@D@std@@PEAX_K@Z
	??$Deallocate@$07V?$allocator@U?$pair@$$CB_K_K@std@@@std@@@container_internal@lts_20250814@absl@@YAXPEAV?$allocator@U?$pair@$$CB_K_K@std@@@std@@PEAX_K@Z
	??$DeallocateBackingArray@$07V?$allocator@D@std@@@container_internal@lts_20250814@absl@@YAXPEAX_KPEAW4ctrl_t@012@11_N@Z
	??$DecomposePair@U?$EqualElement@V?$basic_string@DU?$char_traits@D@std@@V?$allocator@D@2@@std@@UStringEq@container_internal@lts_20250814@absl@@@container_internal@lts_20250814@absl@@AEAU?$pair@$$CBV?$basic_string@DU?$char_traits@D@std@@V?$allocator@D@2@@std@@W4StringId@debugging_internal@lts_20250814@absl@@@std@@@container_internal@lts_20250814@absl@@YA_N$$QEAU?$EqualElement@V?$basic_string@DU?$char_traits@D@std@@V?$allocator@D@2@@std@@UStringEq@container_internal@lts_20250814@absl@@@012@AEAU?$pair@$$CBV?$basic_string@DU?$char_traits@D@std@@V?$allocator@D@2@@std@@W4StringId@debugging_internal@lts_20250814@absl@@@std@@@Z
	??$DecomposePair@U?$EqualElement@V?$basic_string_view@DU?$char_traits@D@std@@@std@@UStringEq@container_internal@lts_20250814@absl@@@container_internal@lts_20250814@absl@@AEAU?$pair@$$CBV?$basic_string@DU?$char_traits@D@std@@V?$allocator@D@2@@std@@W4StringId@debugging_internal@lts_20250814@absl@@@std@@@container_internal@lts_20250814@absl@@YA_N$$QEAU?$EqualElement@V?$basic_string_view@DU?$char_traits@D@std@@@std@@UStringEq@container_internal@lts_20250814@absl@@@012@AEAU?$pair@$$CBV?$basic_string@DU?$char_traits@D@std@@V?$allocator@D@2@@std@@W4StringId@debugging_internal@lts_20250814@absl@@@std@@@Z
	??$DecomposePair@U?$EqualElement@_KU?$equal_to@_K@std@@@container_internal@lts_20250814@absl@@AEAU?$pair@$$CB_KW4LocationId@debugging_internal@lts_20250814@absl@@@std@@@container_internal@lts_20250814@absl@@YA_N$$QEAU?$EqualElement@_KU?$equal_to@_K@std@@@012@AEAU?$pair@$$CB_KW4LocationId@debugging_internal@lts_20250814@absl@@@std@@@Z
	??$DecomposePair@U?$HashElement@U?$Hash@_K@hash_internal@lts_20250814@absl@@$00@container_internal@lts_20250814@absl@@AEAU?$pair@$$CB_KW4LocationId@debugging_internal@lts_20250814@absl@@@std@@@container_internal@lts_20250814@absl@@YA_K$$QEAU?$HashElement@U?$Hash@_K@hash_internal@lts_20250814@absl@@$00@012@AEAU?$pair@$$CB_KW4LocationId@debugging_internal@lts_20250814@absl@@@std@@@Z
	??$DecomposePair@U?$HashElement@UStringHash@container_internal@lts_20250814@absl@@$00@container_internal@lts_20250814@absl@@AEAU?$pair@$$CBV?$basic_string@DU?$char_traits@D@std@@V?$allocator@D@2@@std@@W4StringId@debugging_internal@lts_20250814@absl@@@std@@@container_internal@lts_20250814@absl@@YA_K$$QEAU?$HashElement@UStringHash@container_internal@lts_20250814@absl@@$00@012@AEAU?$pair@$$CBV?$basic_string@DU?$char_traits@D@std@@V?$allocator@D@2@@std@@W4StringId@debugging_internal@lts_20250814@absl@@@std@@@Z
	??$DecomposePair@UEmplaceDecomposable@?$raw_hash_set@U?$FlatHashMapPolicy@V?$basic_string@DU?$char_traits@D@std@@V?$allocator@D@2@@std@@W4StringId@debugging_internal@lts_20250814@absl@@@container_internal@lts_20250814@absl@@UStringHash@234@UStringEq@234@V?$allocator@U?$pair@$$CBV?$basic_string@DU?$char_traits@D@std@@V?$allocator@D@2@@std@@W4StringId@debugging_internal@lts_20250814@absl@@@std@@@std@@@container_internal@lts_20250814@absl@@AEAV?$basic_string_view@DU?$char_traits@D@std@@@std@@W4StringId@debugging_internal@45@@container_internal@lts_20250814@absl@@YA?AU?$pair@Viterator@?$raw_hash_set@U?$FlatHashMapPolicy@V?$basic_string@DU?$char_traits@D@std@@V?$allocator@D@2@@std@@W4StringId@debugging_internal@lts_20250814@absl@@@container_internal@lts_20250814@absl@@UStringHash@234@UStringEq@234@V?$allocator@U?$pair@$$CBV?$basic_string@DU?$char_traits@D@std@@V?$allocator@D@2@@std@@W4StringId@debugging_internal@lts_20250814@absl@@@std@@@std@@@container_internal@lts_20250814@absl@@_N@std@@$$QEAUEmplaceDecomposable@?$raw_hash_set@U?$FlatHashMapPolicy@V?$basic_string@DU?$char_traits@D@std@@V?$allocator@D@2@@std@@W4StringId@debugging_internal@lts_20250814@absl@@@container_internal@lts_20250814@absl@@UStringHash@234@UStringEq@234@V?$allocator@U?$pair@$$CBV?$basic_string@DU?$char_traits@D@std@@V?$allocator@D@2@@std@@W4StringId@debugging_internal@lts_20250814@absl@@@std@@@std@@@012@AEAV?$basic_string_view@DU?$char_traits@D@std@@@4@$$QEAW4StringId@debugging_internal@12@@Z
	??$DecomposePair@UEmplaceDecomposable@?$raw_hash_set@U?$FlatHashMapPolicy@V?$basic_string@DU?$char_traits@D@std@@V?$allocator@D@2@@std@@W4StringId@debugging_internal@lts_20250814@absl@@@container_internal@lts_20250814@absl@@UStringHash@234@UStringEq@234@V?$allocator@U?$pair@$$CBV?$basic_string@DU?$char_traits@D@std@@V?$allocator@D@2@@std@@W4StringId@debugging_internal@lts_20250814@absl@@@std@@@std@@@container_internal@lts_20250814@absl@@AEBU?$pair@V?$basic_string@DU?$char_traits@D@std@@V?$allocator@D@2@@std@@W4StringId@debugging_internal@lts_20250814@absl@@@std@@@container_internal@lts_20250814@absl@@YA?AU?$pair@Viterator@?$raw_hash_set@U?$FlatHashMapPolicy@V?$basic_string@DU?$char_traits@D@std@@V?$allocator@D@2@@std@@W4StringId@debugging_internal@lts_20250814@absl@@@container_internal@lts_20250814@absl@@UStringHash@234@UStringEq@234@V?$allocator@U?$pair@$$CBV?$basic_string@DU?$char_traits@D@std@@V?$allocator@D@2@@std@@W4StringId@debugging_internal@lts_20250814@absl@@@std@@@std@@@container_internal@lts_20250814@absl@@_N@std@@$$QEAUEmplaceDecomposable@?$raw_hash_set@U?$FlatHashMapPolicy@V?$basic_string@DU?$char_traits@D@std@@V?$allocator@D@2@@std@@W4StringId@debugging_internal@lts_20250814@absl@@@container_internal@lts_20250814@absl@@UStringHash@234@UStringEq@234@V?$allocator@U?$pair@$$CBV?$basic_string@DU?$char_traits@D@std@@V?$allocator@D@2@@std@@W4StringId@debugging_internal@lts_20250814@absl@@@std@@@std@@@012@AEBU?$pair@V?$basic_string@DU?$char_traits@D@std@@V?$allocator@D@2@@std@@W4StringId@debugging_internal@lts_20250814@absl@@@4@@Z
	??$DecomposePair@UEmplaceDecomposable@?$raw_hash_set@U?$FlatHashMapPolicy@_KW4LocationId@debugging_internal@lts_20250814@absl@@@container_internal@lts_20250814@absl@@U?$Hash@_K@hash_internal@34@U?$equal_to@_K@std@@V?$allocator@U?$pair@$$CB_KW4LocationId@debugging_internal@lts_20250814@absl@@@std@@@8@@container_internal@lts_20250814@absl@@_KW4LocationId@debugging_internal@45@@container_internal@lts_20250814@absl@@YA?AU?$pair@Viterator@?$raw_hash_set@U?$FlatHashMapPolicy@_KW4LocationId@debugging_internal@lts_20250814@absl@@@container_internal@lts_20250814@absl@@U?$Hash@_K@hash_internal@34@U?$equal_to@_K@std@@V?$allocator@U?$pair@$$CB_KW4LocationId@debugging_internal@lts_20250814@absl@@@std@@@8@@container_internal@lts_20250814@absl@@_N@std@@$$QEAUEmplaceDecomposable@?$raw_hash_set@U?$FlatHashMapPolicy@_KW4LocationId@debugging_internal@lts_20250814@absl@@@container_internal@lts_20250814@absl@@U?$Hash@_K@hash_internal@34@U?$equal_to@_K@std@@V?$allocator@U?$pair@$$CB_KW4LocationId@debugging_internal@lts_20250814@absl@@@std@@@8@@012@$$QEA_K$$QEAW4LocationId@debugging_internal@12@@Z
	??$DecomposePairImpl@U?$EqualElement@V?$basic_string@DU?$char_traits@D@std@@V?$allocator@D@2@@std@@UStringEq@container_internal@lts_20250814@absl@@@container_internal@lts_20250814@absl@@AEBV?$basic_string@DU?$char_traits@D@std@@V?$allocator@D@2@@std@@V?$tuple@AEBW4StringId@debugging_internal@lts_20250814@absl@@@6@@memory_internal@container_internal@lts_20250814@absl@@YA_N$$QEAU?$EqualElement@V?$basic_string@DU?$char_traits@D@std@@V?$allocator@D@2@@std@@UStringEq@container_internal@lts_20250814@absl@@@123@U?$pair@V?$tuple@AEBV?$basic_string@DU?$char_traits@D@std@@V?$allocator@D@2@@std@@@std@@V?$tuple@AEBW4StringId@debugging_internal@lts_20250814@absl@@@2@@std@@@Z
	??$DecomposePairImpl@U?$EqualElement@V?$basic_string_view@DU?$char_traits@D@std@@@std@@UStringEq@container_internal@lts_20250814@absl@@@container_internal@lts_20250814@absl@@AEBV?$basic_string@DU?$char_traits@D@std@@V?$allocator@D@2@@std@@V?$tuple@AEBW4StringId@debugging_internal@lts_20250814@absl@@@6@@memory_internal@container_internal@lts_20250814@absl@@YA_N$$QEAU?$EqualElement@V?$basic_string_view@DU?$char_traits@D@std@@@std@@UStringEq@container_internal@lts_20250814@absl@@@123@U?$pair@V?$tuple@AEBV?$basic_string@DU?$char_traits@D@std@@V?$allocator@D@2@@std@@@std@@V?$tuple@AEBW4StringId@debugging_internal@lts_20250814@absl@@@2@@std@@@Z
	??$DecomposePairImpl@U?$EqualElement@_KU?$equal_to@_K@std@@@container_internal@lts_20250814@absl@@AEB_KV?$tuple@AEBW4LocationId@debugging_internal@lts_20250814@absl@@@std@@@memory_internal@container_internal@lts_20250814@absl@@YA_N$$QEAU?$EqualElement@_KU?$equal_to@_K@std@@@123@U?$pair@V?$tuple@AEB_K@std@@V?$tuple@AEBW4LocationId@debugging_internal@lts_20250814@absl@@@2@@std@@@Z
	??$DecomposePairImpl@U?$HashElement@U?$Hash@_K@hash_internal@lts_20250814@absl@@$00@container_internal@lts_20250814@absl@@AEB_KV?$tuple@AEBW4LocationId@debugging_internal@lts_20250814@absl@@@std@@@memory_internal@container_internal@lts_20250814@absl@@YA_K$$QEAU?$HashElement@U?$Hash@_K@hash_internal@lts_20250814@absl@@$00@123@U?$pair@V?$tuple@AEB_K@std@@V?$tuple@AEBW4LocationId@debugging_internal@lts_20250814@absl@@@2@@std@@@Z
	??$DecomposePairImpl@U?$HashElement@UStringHash@container_internal@lts_20250814@absl@@$00@container_internal@lts_20250814@absl@@AEBV?$basic_string@DU?$char_traits@D@std@@V?$allocator@D@2@@std@@V?$tuple@AEBW4StringId@debugging_internal@lts_20250814@absl@@@6@@memory_internal@container_internal@lts_20250814@absl@@YA_K$$QEAU?$HashElement@UStringHash@container_internal@lts_20250814@absl@@$00@123@U?$pair@V?$tuple@AEBV?$basic_string@DU?$char_traits@D@std@@V?$allocator@D@2@@std@@@std@@V?$tuple@AEBW4StringId@debugging_internal@lts_20250814@absl@@@2@@std@@@Z
	??$DecomposePairImpl@UEmplaceDecomposable@?$raw_hash_set@U?$FlatHashMapPolicy@V?$basic_string@DU?$char_traits@D@std@@V?$allocator@D@2@@std@@W4StringId@debugging_internal@lts_20250814@absl@@@container_internal@lts_20250814@absl@@UStringHash@234@UStringEq@234@V?$allocator@U?$pair@$$CBV?$basic_string@DU?$char_traits@D@std@@V?$allocator@D@2@@std@@W4StringId@debugging_internal@lts_20250814@absl@@@std@@@std@@@container_internal@lts_20250814@absl@@AEAV?$basic_string_view@DU?$char_traits@D@std@@@std@@V?$tuple@$$QEAW4StringId@debugging_internal@lts_20250814@absl@@@7@@memory_internal@container_internal@lts_20250814@absl@@YA?AU?$pair@Viterator@?$raw_hash_set@U?$FlatHashMapPolicy@V?$basic_string@DU?$char_traits@D@std@@V?$allocator@D@2@@std@@W4StringId@debugging_internal@lts_20250814@absl@@@container_internal@lts_20250814@absl@@UStringHash@234@UStringEq@234@V?$allocator@U?$pair@$$CBV?$basic_string@DU?$char_traits@D@std@@V?$allocator@D@2@@std@@W4StringId@debugging_internal@lts_20250814@absl@@@std@@@std@@@container_internal@lts_20250814@absl@@_N@std@@$$QEAUEmplaceDecomposable@?$raw_hash_set@U?$FlatHashMapPolicy@V?$basic_string@DU?$char_traits@D@std@@V?$allocator@D@2@@std@@W4StringId@debugging_internal@lts_20250814@absl@@@container_internal@lts_20250814@absl@@UStringHash@234@UStringEq@234@V?$allocator@U?$pair@$$CBV?$basic_string@DU?$char_traits@D@std@@V?$allocator@D@2@@std@@W4StringId@debugging_internal@lts_20250814@absl@@@std@@@std@@@123@U?$pair@V?$tuple@AEAV?$basic_string_view@DU?$char_traits@D@std@@@std@@@std@@V?$tuple@$$QEAW4StringId@debugging_internal@lts_20250814@absl@@@2@@5@@Z
	??$DecomposePairImpl@UEmplaceDecomposable@?$raw_hash_set@U?$FlatHashMapPolicy@V?$basic_string@DU?$char_traits@D@std@@V?$allocator@D@2@@std@@W4StringId@debugging_internal@lts_20250814@absl@@@container_internal@lts_20250814@absl@@UStringHash@234@UStringEq@234@V?$allocator@U?$pair@$$CBV?$basic_string@DU?$char_traits@D@std@@V?$allocator@D@2@@std@@W4StringId@debugging_internal@lts_20250814@absl@@@std@@@std@@@container_internal@lts_20250814@absl@@AEBV?$basic_string@DU?$char_traits@D@std@@V?$allocator@D@2@@std@@V?$tuple@AEBW4StringId@debugging_internal@lts_20250814@absl@@@7@@memory_internal@container_internal@lts_20250814@absl@@YA?AU?$pair@Viterator@?$raw_hash_set@U?$FlatHashMapPolicy@V?$basic_string@DU?$char_traits@D@std@@V?$allocator@D@2@@std@@W4StringId@debugging_internal@lts_20250814@absl@@@container_internal@lts_20250814@absl@@UStringHash@234@UStringEq@234@V?$allocator@U?$pair@$$CBV?$basic_string@DU?$char_traits@D@std@@V?$allocator@D@2@@std@@W4StringId@debugging_internal@lts_20250814@absl@@@std@@@std@@@container_internal@lts_20250814@absl@@_N@std@@$$QEAUEmplaceDecomposable@?$raw_hash_set@U?$FlatHashMapPolicy@V?$basic_string@DU?$char_traits@D@std@@V?$allocator@D@2@@std@@W4StringId@debugging_internal@lts_20250814@absl@@@container_internal@lts_20250814@absl@@UStringHash@234@UStringEq@234@V?$allocator@U?$pair@$$CBV?$basic_string@DU?$char_traits@D@std@@V?$allocator@D@2@@std@@W4StringId@debugging_internal@lts_20250814@absl@@@std@@@std@@@123@U?$pair@V?$tuple@AEBV?$basic_string@DU?$char_traits@D@std@@V?$allocator@D@2@@std@@@std@@V?$tuple@AEBW4StringId@debugging_internal@lts_20250814@absl@@@2@@5@@Z
	??$DecomposePairImpl@UEmplaceDecomposable@?$raw_hash_set@U?$FlatHashMapPolicy@_KW4LocationId@debugging_internal@lts_20250814@absl@@@container_internal@lts_20250814@absl@@U?$Hash@_K@hash_internal@34@U?$equal_to@_K@std@@V?$allocator@U?$pair@$$CB_KW4LocationId@debugging_internal@lts_20250814@absl@@@std@@@8@@container_internal@lts_20250814@absl@@$$QEA_KV?$tuple@$$QEAW4LocationId@debugging_internal@lts_20250814@absl@@@std@@@memory_internal@container_internal@lts_20250814@absl@@YA?AU?$pair@Viterator@?$raw_hash_set@U?$FlatHashMapPolicy@_KW4LocationId@debugging_internal@lts_20250814@absl@@@container_internal@lts_20250814@absl@@U?$Hash@_K@hash_internal@34@U?$equal_to@_K@std@@V?$allocator@U?$pair@$$CB_KW4LocationId@debugging_internal@lts_20250814@absl@@@std@@@8@@container_internal@lts_20250814@absl@@_N@std@@$$QEAUEmplaceDecomposable@?$raw_hash_set@U?$FlatHashMapPolicy@_KW4LocationId@debugging_internal@lts_20250814@absl@@@container_internal@lts_20250814@absl@@U?$Hash@_K@hash_internal@34@U?$equal_to@_K@std@@V?$allocator@U?$pair@$$CB_KW4LocationId@debugging_internal@lts_20250814@absl@@@std@@@8@@123@U?$pair@V?$tuple@$$QEA_K@std@@V?$tuple@$$QEAW4LocationId@debugging_internal@lts_20250814@absl@@@2@@5@@Z
	??$Dispatch@C@FormatArgImpl@str_format_internal@lts_20250814@absl@@CA_NTData@0123@VFormatConversionSpecImpl@123@PEAX@Z
	??$Dispatch@D@FormatArgImpl@str_format_internal@lts_20250814@absl@@CA_NTData@0123@VFormatConversionSpecImpl@123@PEAX@Z
	??$Dispatch@E@FormatArgImpl@str_format_internal@lts_20250814@absl@@CA_NTData@0123@VFormatConversionSpecImpl@123@PEAX@Z
	??$Dispatch@F@FormatArgImpl@str_format_internal@lts_20250814@absl@@CA_NTData@0123@VFormatConversionSpecImpl@123@PEAX@Z
	??$Dispatch@G@FormatArgImpl@str_format_internal@lts_20250814@absl@@CA_NTData@0123@VFormatConversionSpecImpl@123@PEAX@Z
	??$Dispatch@H@FormatArgImpl@str_format_internal@lts_20250814@absl@@CA_NTData@0123@VFormatConversionSpecImpl@123@PEAX@Z
	??$Dispatch@I@FormatArgImpl@str_format_internal@lts_20250814@absl@@CA_NTData@0123@VFormatConversionSpecImpl@123@PEAX@Z
	??$Dispatch@J@FormatArgImpl@str_format_internal@lts_20250814@absl@@CA_NTData@0123@VFormatConversionSpecImpl@123@PEAX@Z
	??$Dispatch@K@FormatArgImpl@str_format_internal@lts_20250814@absl@@CA_NTData@0123@VFormatConversionSpecImpl@123@PEAX@Z
	??$Dispatch@M@FormatArgImpl@str_format_internal@lts_20250814@absl@@CA_NTData@0123@VFormatConversionSpecImpl@123@PEAX@Z
	??$Dispatch@N@FormatArgImpl@str_format_internal@lts_20250814@absl@@CA_NTData@0123@VFormatConversionSpecImpl@123@PEAX@Z
	??$Dispatch@O@FormatArgImpl@str_format_internal@lts_20250814@absl@@CA_NTData@0123@VFormatConversionSpecImpl@123@PEAX@Z
	??$Dispatch@PEBD@FormatArgImpl@str_format_internal@lts_20250814@absl@@CA_NTData@0123@VFormatConversionSpecImpl@123@PEAX@Z
	??$Dispatch@PEB_W@FormatArgImpl@str_format_internal@lts_20250814@absl@@CA_NTData@0123@VFormatConversionSpecImpl@123@PEAX@Z
	??$Dispatch@UVoidPtr@str_format_internal@lts_20250814@absl@@@FormatArgImpl@str_format_internal@lts_20250814@absl@@CA_NTData@0123@VFormatConversionSpecImpl@123@PEAX@Z
	??$Dispatch@V?$basic_string@DU?$char_traits@D@std@@V?$allocator@D@2@@std@@@FormatArgImpl@str_format_internal@lts_20250814@absl@@CA_NTData@0123@VFormatConversionSpecImpl@123@PEAX@Z
	??$Dispatch@V?$basic_string@_WU?$char_traits@_W@std@@V?$allocator@_W@2@@std@@@FormatArgImpl@str_format_internal@lts_20250814@absl@@CA_NTData@0123@VFormatConversionSpecImpl@123@PEAX@Z
	??$Dispatch@V?$basic_string_view@DU?$char_traits@D@std@@@std@@@FormatArgImpl@str_format_internal@lts_20250814@absl@@CA_NTData@0123@VFormatConversionSpecImpl@123@PEAX@Z
	??$Dispatch@V?$basic_string_view@_WU?$char_traits@_W@std@@@std@@@FormatArgImpl@str_format_internal@lts_20250814@absl@@CA_NTData@0123@VFormatConversionSpecImpl@123@PEAX@Z
	??$Dispatch@Vint128@lts_20250814@absl@@@FormatArgImpl@str_format_internal@lts_20250814@absl@@CA_NTData@0123@VFormatConversionSpecImpl@123@PEAX@Z
	??$Dispatch@Vuint128@lts_20250814@absl@@@FormatArgImpl@str_format_internal@lts_20250814@absl@@CA_NTData@0123@VFormatConversionSpecImpl@123@PEAX@Z
	??$Dispatch@_J@FormatArgImpl@str_format_internal@lts_20250814@absl@@CA_NTData@0123@VFormatConversionSpecImpl@123@PEAX@Z
	??$Dispatch@_K@FormatArgImpl@str_format_internal@lts_20250814@absl@@CA_NTData@0123@VFormatConversionSpecImpl@123@PEAX@Z
	??$Dispatch@_N@FormatArgImpl@str_format_internal@lts_20250814@absl@@CA_NTData@0123@VFormatConversionSpecImpl@123@PEAX@Z
	??$DivMod@$09@?$BigUnsigned@$03@strings_internal@lts_20250814@absl@@AEAAIXZ
	??$DivMod@$09@?$BigUnsigned@$0FE@@strings_internal@lts_20250814@absl@@AEAAIXZ
	??$EmplaceBack@AEBQEAUCordRep@cord_internal@lts_20250814@absl@@@?$Storage@PEAUCordRep@cord_internal@lts_20250814@absl@@$01V?$allocator@PEAUCordRep@cord_internal@lts_20250814@absl@@@std@@@inlined_vector_internal@lts_20250814@absl@@QEAAAEAPEAUCordRep@cord_internal@23@AEBQEAU4523@@Z
	??$EmplaceBack@AEBQEAVLogSink@lts_20250814@absl@@@?$Storage@PEAVLogSink@lts_20250814@absl@@$0BA@V?$allocator@PEAVLogSink@lts_20250814@absl@@@std@@@inlined_vector_internal@lts_20250814@absl@@QEAAAEAPEAVLogSink@23@AEBQEAV423@@Z
	??$EmplaceBack@UPayload@status_internal@lts_20250814@absl@@@?$Storage@UPayload@status_internal@lts_20250814@absl@@$00V?$allocator@UPayload@status_internal@lts_20250814@absl@@@std@@@inlined_vector_internal@lts_20250814@absl@@QEAAAEAUPayload@status_internal@23@$$QEAU4523@@Z
	??$EmplaceBackSlow@AEBQEAUCordRep@cord_internal@lts_20250814@absl@@@?$Storage@PEAUCordRep@cord_internal@lts_20250814@absl@@$01V?$allocator@PEAUCordRep@cord_internal@lts_20250814@absl@@@std@@@inlined_vector_internal@lts_20250814@absl@@AEAAAEAPEAUCordRep@cord_internal@23@AEBQEAU4523@@Z
	??$EmplaceBackSlow@AEBQEAVLogSink@lts_20250814@absl@@@?$Storage@PEAVLogSink@lts_20250814@absl@@$0BA@V?$allocator@PEAVLogSink@lts_20250814@absl@@@std@@@inlined_vector_internal@lts_20250814@absl@@AEAAAEAPEAVLogSink@23@AEBQEAV423@@Z
	??$EmplaceBackSlow@UPayload@status_internal@lts_20250814@absl@@@?$Storage@UPayload@status_internal@lts_20250814@absl@@$00V?$allocator@UPayload@status_internal@lts_20250814@absl@@@std@@@inlined_vector_internal@lts_20250814@absl@@AEAAAEAUPayload@status_internal@23@$$QEAU4523@@Z
	??$Extract@V?$FormatSpecTemplate@$0BPPPL@$0JPPPL@$0JPPPL@$0JPPPL@$0JPPPL@$0JPPPL@$0JPPPL@$0JPPPL@$0IAAAE@$0JPPPL@$0EAAAE@$0IAAAE@@str_format_internal@lts_20250814@absl@@@UntypedFormatSpecImpl@str_format_internal@lts_20250814@absl@@SAAEBV0123@AEBV?$FormatSpecTemplate@$0BPPPL@$0JPPPL@$0JPPPL@$0JPPPL@$0JPPPL@$0JPPPL@$0JPPPL@$0JPPPL@$0IAAAE@$0JPPPL@$0EAAAE@$0IAAAE@@123@@Z
	??$Extract@V?$FormatSpecTemplate@$0BPPPL@$0JPPPL@$0JPPPL@$0JPPPL@@str_format_internal@lts_20250814@absl@@@UntypedFormatSpecImpl@str_format_internal@lts_20250814@absl@@SAAEBV0123@AEBV?$FormatSpecTemplate@$0BPPPL@$0JPPPL@$0JPPPL@$0JPPPL@@123@@Z
	??$Extract@V?$FormatSpecTemplate@$0IAAAA@$0IAAAA@$0IAAAE@@str_format_internal@lts_20250814@absl@@@UntypedFormatSpecImpl@str_format_internal@lts_20250814@absl@@SAAEBV0123@AEBV?$FormatSpecTemplate@$0IAAAA@$0IAAAA@$0IAAAE@@123@@Z
	??$Extract@V?$FormatSpecTemplate@$0IAAAA@$0IAAAA@@str_format_internal@lts_20250814@absl@@@UntypedFormatSpecImpl@str_format_internal@lts_20250814@absl@@SAAEBV0123@AEBV?$FormatSpecTemplate@$0IAAAA@$0IAAAA@@123@@Z
	??$Extract@V?$FormatSpecTemplate@$0IAAAA@@str_format_internal@lts_20250814@absl@@@UntypedFormatSpecImpl@str_format_internal@lts_20250814@absl@@SAAEBV0123@AEBV?$FormatSpecTemplate@$0IAAAA@@123@@Z
	??$Extract@V?$FormatSpecTemplate@$0JPPPL@@str_format_internal@lts_20250814@absl@@@UntypedFormatSpecImpl@str_format_internal@lts_20250814@absl@@SAAEBV0123@AEBV?$FormatSpecTemplate@$0JPPPL@@123@@Z
	??$Extract@VFormatRawSink@lts_20250814@absl@@@FormatRawSinkImpl@str_format_internal@lts_20250814@absl@@SA?AV0123@VFormatRawSink@23@@Z
	??$ExtractCharSet@$0BPPPL@@str_format_internal@lts_20250814@absl@@YA?AW4FormatConversionCharSet@12@U?$ArgConvertResult@$0BPPPL@@012@@Z
	??$ExtractCharSet@$0EAAAA@@str_format_internal@lts_20250814@absl@@YA?AW4FormatConversionCharSet@12@U?$ArgConvertResult@$0EAAAA@@012@@Z
	??$ExtractCharSet@$0EAAAE@@str_format_internal@lts_20250814@absl@@YA?AW4FormatConversionCharSet@12@U?$ArgConvertResult@$0EAAAE@@012@@Z
	??$ExtractCharSet@$0IAAAA@@str_format_internal@lts_20250814@absl@@YA?AW4FormatConversionCharSet@12@U?$ArgConvertResult@$0IAAAA@@012@@Z
	??$ExtractCharSet@$0IAAAE@@str_format_internal@lts_20250814@absl@@YA?AW4FormatConversionCharSet@12@U?$ArgConvertResult@$0IAAAE@@012@@Z
	??$ExtractCharSet@$0JPOAA@@str_format_internal@lts_20250814@absl@@YA?AW4FormatConversionCharSet@12@U?$ArgConvertResult@$0JPOAA@@012@@Z
	??$ExtractCharSet@$0JPPPL@@str_format_internal@lts_20250814@absl@@YA?AW4FormatConversionCharSet@12@U?$ArgConvertResult@$0JPPPL@@012@@Z
	??$ExtractStringification@UHex@lts_20250814@absl@@@strings_internal@lts_20250814@absl@@YA?AV?$basic_string_view@DU?$char_traits@D@std@@@std@@AEAVStringifySink@012@AEBUHex@12@@Z
	??$FastIntToBuffer@C@numbers_internal@lts_20250814@absl@@YAPEADCPEAD@Z
	??$FastIntToBuffer@D@numbers_internal@lts_20250814@absl@@YAPEADDPEAD@Z
	??$FastIntToBuffer@E@numbers_internal@lts_20250814@absl@@YAPEADEPEAD@Z
	??$FastIntToBuffer@F@numbers_internal@lts_20250814@absl@@YAPEADFPEAD@Z
	??$FastIntToBuffer@G@numbers_internal@lts_20250814@absl@@YAPEADGPEAD@Z
	??$FastIntToBuffer@J@numbers_internal@lts_20250814@absl@@YAPEADJPEAD@Z
	??$FastIntToBuffer@K@numbers_internal@lts_20250814@absl@@YAPEADKPEAD@Z
	??$FastIntToBuffer@_W@numbers_internal@lts_20250814@absl@@YAPEAD_WPEAD@Z
	??$FindSubstitutions@V?$initializer_list@U?$pair@V?$basic_string_view@DU?$char_traits@D@std@@@std@@V12@@std@@@std@@@strings_internal@lts_20250814@absl@@YA?AV?$vector@UViableSubstitution@strings_internal@lts_20250814@absl@@V?$allocator@UViableSubstitution@strings_internal@lts_20250814@absl@@@std@@@std@@V?$basic_string_view@DU?$char_traits@D@std@@@4@AEBV?$initializer_list@U?$pair@V?$basic_string_view@DU?$char_traits@D@std@@@std@@V12@@std@@@4@@Z
	??$Flush@V?$basic_ostream@DU?$char_traits@D@std@@@std@@@FormatRawSinkImpl@str_format_internal@lts_20250814@absl@@CAXPEAXV?$basic_string_view@DU?$char_traits@D@std@@@std@@@Z
	??$Flush@V?$basic_string@DU?$char_traits@D@std@@V?$allocator@D@2@@std@@@FormatRawSinkImpl@str_format_internal@lts_20250814@absl@@CAXPEAXV?$basic_string_view@DU?$char_traits@D@std@@@std@@@Z
	??$Flush@VBufferRawSink@str_format_internal@lts_20250814@absl@@@FormatRawSinkImpl@str_format_internal@lts_20250814@absl@@CAXPEAXV?$basic_string_view@DU?$char_traits@D@std@@@std@@@Z
	??$Flush@VFILERawSink@str_format_internal@lts_20250814@absl@@@FormatRawSinkImpl@str_format_internal@lts_20250814@absl@@CAXPEAXV?$basic_string_view@DU?$char_traits@D@std@@@std@@@Z
	??$Flush@VFormatSink@lts_20250814@absl@@@FormatRawSinkImpl@str_format_internal@lts_20250814@absl@@CAXPEAXV?$basic_string_view@DU?$char_traits@D@std@@@std@@@Z
	??$Flush@VStringifySink@strings_internal@lts_20250814@absl@@@FormatRawSinkImpl@str_format_internal@lts_20250814@absl@@CAXPEAXV?$basic_string_view@DU?$char_traits@D@std@@@std@@@Z
	??$FormatConvertImpl@_N$0A@@str_format_internal@lts_20250814@absl@@YA?AU?$ArgConvertResult@$0JPPPL@@012@_NVFormatConversionSpecImpl@012@PEAVFormatSinkImpl@012@@Z
	??$FromChrono@_JU?$ratio@$00$0DLJKMKAA@@std@@@time_internal@lts_20250814@absl@@YA?AVDuration@12@AEBV?$duration@_JU?$ratio@$00$0DLJKMKAA@@std@@@chrono@std@@@Z
	??$FromChrono@_JU?$ratio@$00$0JIJGIA@@std@@@time_internal@lts_20250814@absl@@YA?AVDuration@12@AEBV?$duration@_JU?$ratio@$00$0JIJGIA@@std@@@chrono@std@@@Z
	??$FromInt64@$00@time_internal@lts_20250814@absl@@YA?AVDuration@12@_JU?$ratio@$00$00@std@@@Z
	??$FromInt64@$0DLJKMKAA@@time_internal@lts_20250814@absl@@YA?AVDuration@12@_JU?$ratio@$00$0DLJKMKAA@@std@@@Z
	??$FromInt64@$0DOI@@time_internal@lts_20250814@absl@@YA?AVDuration@12@_JU?$ratio@$00$0DOI@@std@@@Z
	??$FromInt64@$0JIJGIA@@time_internal@lts_20250814@absl@@YA?AVDuration@12@_JU?$ratio@$00$0JIJGIA@@std@@@Z
	??$FromInt64@$0PECEA@@time_internal@lts_20250814@absl@@YA?AVDuration@12@_JU?$ratio@$00$0PECEA@@std@@@Z
	??$GenericCompare@HV?$basic_string_view@DU?$char_traits@D@std@@@std@@@lts_20250814@absl@@YAHAEBVCord@01@AEBV?$basic_string_view@DU?$char_traits@D@std@@@std@@_K@Z
	??$GenericCompare@HVCord@lts_20250814@absl@@@lts_20250814@absl@@YAHAEBVCord@01@0_K@Z
	??$GenericCompare@_NV?$basic_string_view@DU?$char_traits@D@std@@@std@@@lts_20250814@absl@@YA_NAEBVCord@01@AEBV?$basic_string_view@DU?$char_traits@D@std@@@std@@_K@Z
	??$GenericCompare@_NVCord@lts_20250814@absl@@@lts_20250814@absl@@YA_NAEBVCord@01@0_K@Z
	??$GetData@$$CBV?$InlinedVector@VFormatArgImpl@str_format_internal@lts_20250814@absl@@$03V?$allocator@VFormatArgImpl@str_format_internal@lts_20250814@absl@@@std@@@lts_20250814@absl@@@span_internal@lts_20250814@absl@@YAPEBVFormatArgImpl@str_format_internal@12@AEBV?$InlinedVector@VFormatArgImpl@str_format_internal@lts_20250814@absl@@$03V?$allocator@VFormatArgImpl@str_format_internal@lts_20250814@absl@@@std@@@12@@Z
	??$GetData@$$CBV?$Span@D@lts_20250814@absl@@@span_internal@lts_20250814@absl@@YAPEADAEBV?$Span@D@12@@Z
	??$GetData@$$CBV?$Span@I@lts_20250814@absl@@@span_internal@lts_20250814@absl@@YAPEAIAEBV?$Span@I@12@@Z
	??$GetData@$$CBV?$Span@QEAX@lts_20250814@absl@@@span_internal@lts_20250814@absl@@YAPEBQEAXAEBV?$Span@QEAX@12@@Z
	??$GetData@$$CBV?$basic_string_view@DU?$char_traits@D@std@@@std@@@span_internal@lts_20250814@absl@@YAPEBDAEBV?$basic_string_view@DU?$char_traits@D@std@@@std@@@Z
	??$GetData@$$CBV?$vector@U?$pair@W4StringId@debugging_internal@lts_20250814@absl@@_J@std@@V?$allocator@U?$pair@W4StringId@debugging_internal@lts_20250814@absl@@_J@std@@@2@@std@@@span_internal@lts_20250814@absl@@YAPEBU?$pair@W4StringId@debugging_internal@lts_20250814@absl@@_J@std@@AEBV?$vector@U?$pair@W4StringId@debugging_internal@lts_20250814@absl@@_J@std@@V?$allocator@U?$pair@W4StringId@debugging_internal@lts_20250814@absl@@_J@std@@@2@@4@@Z
	??$GetData@V?$InlinedVector@PEAVLogSink@lts_20250814@absl@@$0BA@V?$allocator@PEAVLogSink@lts_20250814@absl@@@std@@@lts_20250814@absl@@@span_internal@lts_20250814@absl@@YAPEAPEAVLogSink@12@AEAV?$InlinedVector@PEAVLogSink@lts_20250814@absl@@$0BA@V?$allocator@PEAVLogSink@lts_20250814@absl@@@std@@@12@@Z
	??$GetData@V?$array@D$0DKJI@@std@@@span_internal@lts_20250814@absl@@YAPEADAEAV?$array@D$0DKJI@@std@@@Z
	??$GetData@V?$vector@PEAVLogSink@lts_20250814@absl@@V?$allocator@PEAVLogSink@lts_20250814@absl@@@std@@@std@@@span_internal@lts_20250814@absl@@YAPEAPEAVLogSink@12@AEAV?$vector@PEAVLogSink@lts_20250814@absl@@V?$allocator@PEAVLogSink@lts_20250814@absl@@@std@@@std@@@Z
	??$GetDataImpl@$$CBV?$InlinedVector@VFormatArgImpl@str_format_internal@lts_20250814@absl@@$03V?$allocator@VFormatArgImpl@str_format_internal@lts_20250814@absl@@@std@@@lts_20250814@absl@@@span_internal@lts_20250814@absl@@YAPEBVFormatArgImpl@str_format_internal@12@AEBV?$InlinedVector@VFormatArgImpl@str_format_internal@lts_20250814@absl@@$03V?$allocator@VFormatArgImpl@str_format_internal@lts_20250814@absl@@@std@@@12@D@Z
	??$GetDataImpl@$$CBV?$Span@D@lts_20250814@absl@@@span_internal@lts_20250814@absl@@YAPEADAEBV?$Span@D@12@D@Z
	??$GetDataImpl@$$CBV?$Span@I@lts_20250814@absl@@@span_internal@lts_20250814@absl@@YAPEAIAEBV?$Span@I@12@D@Z
	??$GetDataImpl@$$CBV?$Span@QEAX@lts_20250814@absl@@@span_internal@lts_20250814@absl@@YAPEBQEAXAEBV?$Span@QEAX@12@D@Z
	??$GetDataImpl@$$CBV?$basic_string_view@DU?$char_traits@D@std@@@std@@@span_internal@lts_20250814@absl@@YAPEBDAEBV?$basic_string_view@DU?$char_traits@D@std@@@std@@D@Z
	??$GetDataImpl@$$CBV?$vector@U?$pair@W4StringId@debugging_internal@lts_20250814@absl@@_J@std@@V?$allocator@U?$pair@W4StringId@debugging_internal@lts_20250814@absl@@_J@std@@@2@@std@@@span_internal@lts_20250814@absl@@YAPEBU?$pair@W4StringId@debugging_internal@lts_20250814@absl@@_J@std@@AEBV?$vector@U?$pair@W4StringId@debugging_internal@lts_20250814@absl@@_J@std@@V?$allocator@U?$pair@W4StringId@debugging_internal@lts_20250814@absl@@_J@std@@@2@@4@D@Z
	??$GetDataImpl@V?$InlinedVector@PEAVLogSink@lts_20250814@absl@@$0BA@V?$allocator@PEAVLogSink@lts_20250814@absl@@@std@@@lts_20250814@absl@@@span_internal@lts_20250814@absl@@YAPEAPEAVLogSink@12@AEAV?$InlinedVector@PEAVLogSink@lts_20250814@absl@@$0BA@V?$allocator@PEAVLogSink@lts_20250814@absl@@@std@@@12@D@Z
	??$GetDataImpl@V?$array@D$0DKJI@@std@@@span_internal@lts_20250814@absl@@YAPEADAEAV?$array@D$0DKJI@@std@@D@Z
	??$GetDataImpl@V?$vector@PEAVLogSink@lts_20250814@absl@@V?$allocator@PEAVLogSink@lts_20250814@absl@@@std@@@std@@@span_internal@lts_20250814@absl@@YAPEAPEAVLogSink@12@AEAV?$vector@PEAVLogSink@lts_20250814@absl@@V?$allocator@PEAVLogSink@lts_20250814@absl@@@std@@@std@@D@Z
	??$GetField@$00@?$btree_node@U?$map_params@_K_KU?$less@_K@std@@V?$allocator@U?$pair@$$CB_K_K@std@@@2@$0BAA@$0A@@container_internal@lts_20250814@absl@@@container_internal@lts_20250814@absl@@AEAAPEAIXZ
	??$GetField@$00@?$btree_node@U?$map_params@_K_KU?$less@_K@std@@V?$allocator@U?$pair@$$CB_K_K@std@@@2@$0BAA@$0A@@container_internal@lts_20250814@absl@@@container_internal@lts_20250814@absl@@AEBAPEBIXZ
	??$GetField@$01@?$btree_node@U?$map_params@_K_KU?$less@_K@std@@V?$allocator@U?$pair@$$CB_K_K@std@@@2@$0BAA@$0A@@container_internal@lts_20250814@absl@@@container_internal@lts_20250814@absl@@AEAAPEAEXZ
	??$GetField@$01@?$btree_node@U?$map_params@_K_KU?$less@_K@std@@V?$allocator@U?$pair@$$CB_K_K@std@@@2@$0BAA@$0A@@container_internal@lts_20250814@absl@@@container_internal@lts_20250814@absl@@AEBAPEBEXZ
	??$GetField@$02@?$btree_node@U?$map_params@_K_KU?$less@_K@std@@V?$allocator@U?$pair@$$CB_K_K@std@@@2@$0BAA@$0A@@container_internal@lts_20250814@absl@@@container_internal@lts_20250814@absl@@AEAAPEAT?$map_slot_type@_K_K@123@XZ
	??$GetField@$02@?$btree_node@U?$map_params@_K_KU?$less@_K@std@@V?$allocator@U?$pair@$$CB_K_K@std@@@2@$0BAA@$0A@@container_internal@lts_20250814@absl@@@container_internal@lts_20250814@absl@@AEBAPEBT?$map_slot_type@_K_K@123@XZ
	??$GetField@$03@?$btree_node@U?$map_params@_K_KU?$less@_K@std@@V?$allocator@U?$pair@$$CB_K_K@std@@@2@$0BAA@$0A@@container_internal@lts_20250814@absl@@@container_internal@lts_20250814@absl@@AEAAPEAPEAV0123@XZ
	??$GetField@$03@?$btree_node@U?$map_params@_K_KU?$less@_K@std@@V?$allocator@U?$pair@$$CB_K_K@std@@@2@$0BAA@$0A@@container_internal@lts_20250814@absl@@@container_internal@lts_20250814@absl@@AEBAPEBQEAV0123@XZ
	??$GetField@$0A@@?$btree_node@U?$map_params@_K_KU?$less@_K@std@@V?$allocator@U?$pair@$$CB_K_K@std@@@2@$0BAA@$0A@@container_internal@lts_20250814@absl@@@container_internal@lts_20250814@absl@@AEAAPEAPEAV0123@XZ
	??$GetField@$0A@@?$btree_node@U?$map_params@_K_KU?$less@_K@std@@V?$allocator@U?$pair@$$CB_K_K@std@@@2@$0BAA@$0A@@container_internal@lts_20250814@absl@@@container_internal@lts_20250814@absl@@AEBAPEBQEAV0123@XZ
	??$GetSlot@V?$node_handle@U?$map_params@_K_KU?$less@_K@std@@V?$allocator@U?$pair@$$CB_K_K@std@@@2@$0BAA@$0A@@container_internal@lts_20250814@absl@@U1234@V?$allocator@U?$pair@$$CB_K_K@std@@@std@@X@container_internal@lts_20250814@absl@@@CommonAccess@container_internal@lts_20250814@absl@@SAPEAT?$map_slot_type@_K_K@123@AEBV?$node_handle@U?$map_params@_K_KU?$less@_K@std@@V?$allocator@U?$pair@$$CB_K_K@std@@@2@$0BAA@$0A@@container_internal@lts_20250814@absl@@U1234@V?$allocator@U?$pair@$$CB_K_K@std@@@std@@X@123@@Z
	??$GrowSooTableToNextCapacityAndPrepareInsert@$00$00@container_internal@lts_20250814@absl@@YA_KAEAVCommonFields@012@AEBUPolicyFunctions@012@V?$FunctionRef@$$A6A_K_K@Z@12@_N@Z
	??$GrowSooTableToNextCapacityAndPrepareInsert@$03$00@container_internal@lts_20250814@absl@@YA_KAEAVCommonFields@012@AEBUPolicyFunctions@012@V?$FunctionRef@$$A6A_K_K@Z@12@_N@Z
	??$GrowSooTableToNextCapacityAndPrepareInsert@$07$00@container_internal@lts_20250814@absl@@YA_KAEAVCommonFields@012@AEBUPolicyFunctions@012@V?$FunctionRef@$$A6A_K_K@Z@12@_N@Z
	??$GrowSooTableToNextCapacityAndPrepareInsert@$0A@$0A@@container_internal@lts_20250814@absl@@YA_KAEAVCommonFields@012@AEBUPolicyFunctions@012@V?$FunctionRef@$$A6A_K_K@Z@12@_N@Z
	??$GrowSooTableToNextCapacityAndPrepareInsert@$0BA@$00@container_internal@lts_20250814@absl@@YA_KAEAVCommonFields@012@AEBUPolicyFunctions@012@V?$FunctionRef@$$A6A_K_K@Z@12@_N@Z
	??$HashOf@$S$$ZV?$basic_string_view@DU?$char_traits@D@std@@@std@@H@lts_20250814@absl@@YA_KAEBV?$basic_string_view@DU?$char_traits@D@std@@@std@@AEBH@Z
	??$HashOf@$S$$Z_K@lts_20250814@absl@@YA_KAEB_K@Z
	??$HidePtr@$$CBX@base_internal@lts_20250814@absl@@YA_KPEBX@Z
	??$HidePtr@U?$atomic@_J@std@@@base_internal@lts_20250814@absl@@YA_KPEAU?$atomic@_J@std@@@Z
	??$HidePtr@X@base_internal@lts_20250814@absl@@YA_KPEAX@Z
	??$Hours@H$0A@@lts_20250814@absl@@YA?AVDuration@01@H@Z
	??$IgnoreLeak@V?$basic_string@DU?$char_traits@D@std@@V?$allocator@D@2@@std@@@lts_20250814@absl@@YAPEAV?$basic_string@DU?$char_traits@D@std@@V?$allocator@D@2@@std@@PEAV23@@Z
	??$Init@$0A@@CordRepBtreeNavigator@cord_internal@lts_20250814@absl@@AEAAPEAUCordRep@123@PEAVCordRepBtree@123@@Z
	??$Init@D@FormatArgImpl@str_format_internal@lts_20250814@absl@@AEAAXAEBD@Z
	??$Init@H@FormatArgImpl@str_format_internal@lts_20250814@absl@@AEAAXAEBH@Z
	??$Init@I@FormatArgImpl@str_format_internal@lts_20250814@absl@@AEAAXAEBI@Z
	??$Init@PEBD@FormatArgImpl@str_format_internal@lts_20250814@absl@@AEAAXAEBQEBD@Z
	??$Init@V?$basic_string_view@DU?$char_traits@D@std@@@std@@@FormatArgImpl@str_format_internal@lts_20250814@absl@@AEAAXAEBV?$basic_string_view@DU?$char_traits@D@std@@@std@@@Z
	??$Init@_J@FormatArgImpl@str_format_internal@lts_20250814@absl@@AEAAXAEB_J@Z
	??$Initialize@V?$IteratorValueAdapter@V?$allocator@VFormatArgImpl@str_format_internal@lts_20250814@absl@@@std@@PEBVFormatArgImpl@str_format_internal@lts_20250814@absl@@@inlined_vector_internal@lts_20250814@absl@@@?$Storage@VFormatArgImpl@str_format_internal@lts_20250814@absl@@$03V?$allocator@VFormatArgImpl@str_format_internal@lts_20250814@absl@@@std@@@inlined_vector_internal@lts_20250814@absl@@QEAAXV?$IteratorValueAdapter@V?$allocator@VFormatArgImpl@str_format_internal@lts_20250814@absl@@@std@@PEBVFormatArgImpl@str_format_internal@lts_20250814@absl@@@123@_K@Z
	??$Invoke@VMixingHashState@hash_internal@lts_20250814@absl@@H@UniquelyRepresentedProbe@HashSelect@hash_internal@lts_20250814@absl@@SA?AVMixingHashState@234@V5234@AEBH@Z
	??$Invoke@VMixingHashState@hash_internal@lts_20250814@absl@@V?$basic_string_view@DU?$char_traits@D@std@@@std@@@HashValueProbe@HashSelect@hash_internal@lts_20250814@absl@@SA?AVMixingHashState@234@V5234@AEBV?$basic_string_view@DU?$char_traits@D@std@@@std@@@Z
	??$Invoke@VMixingHashState@hash_internal@lts_20250814@absl@@V?$tuple@AEBV?$basic_string_view@DU?$char_traits@D@std@@@std@@AEBH@std@@@HashValueProbe@HashSelect@hash_internal@lts_20250814@absl@@SA?AVMixingHashState@234@V5234@AEBV?$tuple@AEBV?$basic_string_view@DU?$char_traits@D@std@@@std@@AEBH@std@@@Z
	??$Invoke@VMixingHashState@hash_internal@lts_20250814@absl@@V?$tuple@AEB_K@std@@@HashValueProbe@HashSelect@hash_internal@lts_20250814@absl@@SA?AVMixingHashState@234@V5234@AEBV?$tuple@AEB_K@std@@@Z
	??$Invoke@VMixingHashState@hash_internal@lts_20250814@absl@@_K@UniquelyRepresentedProbe@HashSelect@hash_internal@lts_20250814@absl@@SA?AVMixingHashState@234@V5234@AEB_K@Z
	??$InvokeFlush@V?$basic_ostream@DU?$char_traits@D@std@@@std@@@str_format_internal@lts_20250814@absl@@YAXPEAV?$basic_ostream@DU?$char_traits@D@std@@@std@@V?$basic_string_view@DU?$char_traits@D@std@@@4@@Z
	??$InvokeFlush@V?$basic_string@DU?$char_traits@D@std@@V?$allocator@D@2@@std@@@str_format_internal@lts_20250814@absl@@YAXPEAV?$basic_string@DU?$char_traits@D@std@@V?$allocator@D@2@@std@@V?$basic_string_view@DU?$char_traits@D@std@@@4@@Z
	??$InvokeFlush@VBufferRawSink@str_format_internal@lts_20250814@absl@@@str_format_internal@lts_20250814@absl@@YAXPEAVBufferRawSink@012@V?$basic_string_view@DU?$char_traits@D@std@@@std@@@Z
	??$InvokeFlush@VFILERawSink@str_format_internal@lts_20250814@absl@@@str_format_internal@lts_20250814@absl@@YAXPEAVFILERawSink@012@V?$basic_string_view@DU?$char_traits@D@std@@@std@@@Z
	??$InvokeFlush@VFormatSink@lts_20250814@absl@@@str_format_internal@lts_20250814@absl@@YAXPEAVFormatSink@12@V?$basic_string_view@DU?$char_traits@D@std@@@std@@@Z
	??$InvokeFlush@VStringifySink@strings_internal@lts_20250814@absl@@@str_format_internal@lts_20250814@absl@@YAXPEAVStringifySink@strings_internal@12@V?$basic_string_view@DU?$char_traits@D@std@@@std@@@Z
	??$InvokeObject@U?$HashKey@U?$Hash@_K@hash_internal@lts_20250814@absl@@_K$00@container_internal@lts_20250814@absl@@_K_K@functional_internal@lts_20250814@absl@@YA_KTVoidPtr@012@_K@Z
	??$InvokeObject@U?$HashKey@UStringHash@container_internal@lts_20250814@absl@@V?$basic_string@DU?$char_traits@D@std@@V?$allocator@D@2@@std@@$00@container_internal@lts_20250814@absl@@_K_K@functional_internal@lts_20250814@absl@@YA_KTVoidPtr@012@_K@Z
	??$InvokeObject@U?$HashKey@UStringHash@container_internal@lts_20250814@absl@@V?$basic_string_view@DU?$char_traits@D@std@@@std@@$00@container_internal@lts_20250814@absl@@_K_K@functional_internal@lts_20250814@absl@@YA_KTVoidPtr@012@_K@Z
	??$InvokeObject@V<lambda_17cdf8ef4ee8f7f2e0a955d26fb7d5be>@@XPEBW4ctrl_t@container_internal@lts_20250814@absl@@PEAX@functional_internal@lts_20250814@absl@@YAXTVoidPtr@012@PEBW4ctrl_t@container_internal@12@PEAX@Z
	??$InvokeObject@V<lambda_bc50e1e2b0efe80036ecdb03cfc5f386>@@XPEBW4ctrl_t@container_internal@lts_20250814@absl@@PEAX@functional_internal@lts_20250814@absl@@YAXTVoidPtr@012@PEBW4ctrl_t@container_internal@12@PEAX@Z
	??$InvokeObject@V<lambda_c884bfc8408f1d3d05393c9ea419951e>@@XPEBW4ctrl_t@container_internal@lts_20250814@absl@@PEAX@functional_internal@lts_20250814@absl@@YAXTVoidPtr@012@PEBW4ctrl_t@container_internal@12@PEAX@Z
	??$InvokeObject@V<lambda_dc9c81c998fd861b1d3d53f3180a1638>@@XPEBW4ctrl_t@container_internal@lts_20250814@absl@@PEAX@functional_internal@lts_20250814@absl@@YAXTVoidPtr@012@PEBW4ctrl_t@container_internal@12@PEAX@Z
	??$InvokeObject@V<lambda_fc901c4f23cd8a4588bfa54a62041efc>@@XPEBW4ctrl_t@container_internal@lts_20250814@absl@@PEAX@functional_internal@lts_20250814@absl@@YAXTVoidPtr@012@PEBW4ctrl_t@container_internal@12@PEAX@Z
	??$IsAboveValidSize@$07@container_internal@lts_20250814@absl@@YA_N_K0@Z
	??$IsDestructionTrivial@V?$allocator@U?$pair@$$CBV?$basic_string@DU?$char_traits@D@std@@V?$allocator@D@2@@std@@W4StringId@debugging_internal@lts_20250814@absl@@@std@@@std@@U?$pair@$$CBV?$basic_string@DU?$char_traits@D@std@@V?$allocator@D@2@@std@@W4StringId@debugging_internal@lts_20250814@absl@@@2@@container_internal@lts_20250814@absl@@YA?A_PXZ
	??$IsDestructionTrivial@V?$allocator@U?$pair@$$CB_KW4LocationId@debugging_internal@lts_20250814@absl@@@std@@@std@@U?$pair@$$CB_KW4LocationId@debugging_internal@lts_20250814@absl@@@2@@container_internal@lts_20250814@absl@@YA?A_PXZ
	??$IsDestructionTrivial@V?$allocator@U?$pair@$$CB_K_K@std@@@std@@U?$pair@$$CB_K_K@2@@container_internal@lts_20250814@absl@@YA?A_PXZ
	??$LowLevelCallOnce@A6AXXZ$$V@base_internal@lts_20250814@absl@@YAXPEAVonce_flag@12@A6AXXZ@Z
	??$MakeCheckOpString@AEBV?$basic_string@DU?$char_traits@D@std@@V?$allocator@D@2@@std@@AEBV12@@log_internal@lts_20250814@absl@@YAPEBDAEBV?$basic_string@DU?$char_traits@D@std@@V?$allocator@D@2@@std@@0PEBD@Z
	??$MakeCheckOpString@AEBV?$basic_string_view@DU?$char_traits@D@std@@@std@@AEBV12@@log_internal@lts_20250814@absl@@YAPEBDAEBV?$basic_string_view@DU?$char_traits@D@std@@@std@@0PEBD@Z
	??$MakeCheckOpString@DD@log_internal@lts_20250814@absl@@YAPEBDDDPEBD@Z
	??$MakeCheckOpString@EE@log_internal@lts_20250814@absl@@YAPEBDEEPEBD@Z
	??$MakeCheckOpString@MM@log_internal@lts_20250814@absl@@YAPEBDMMPEBD@Z
	??$MakeCheckOpString@NN@log_internal@lts_20250814@absl@@YAPEBDNNPEBD@Z
	??$MakeCheckOpString@PEBCPEBC@log_internal@lts_20250814@absl@@YAPEBDPEBC0PEBD@Z
	??$MakeCheckOpString@PEBDPEBD@log_internal@lts_20250814@absl@@YAPEBDPEBD00@Z
	??$MakeCheckOpString@PEBEPEBE@log_internal@lts_20250814@absl@@YAPEBDPEBE0PEBD@Z
	??$MakeCheckOpString@PEBXPEBX@log_internal@lts_20250814@absl@@YAPEBDPEBX0PEBD@Z
	??$MakeCheckOpString@_J_J@log_internal@lts_20250814@absl@@YAPEBD_J0PEBD@Z
	??$MakeCheckOpString@_K_K@log_internal@lts_20250814@absl@@YAPEBD_K0PEBD@Z
	??$MakeCheckOpString@_N_N@log_internal@lts_20250814@absl@@YAPEBD_N0PEBD@Z
	??$MakeCheckOpValueString@M@log_internal@lts_20250814@absl@@YAXAEAV?$basic_ostream@DU?$char_traits@D@std@@@std@@AEBM@Z
	??$MakeCheckOpValueString@N@log_internal@lts_20250814@absl@@YAXAEAV?$basic_ostream@DU?$char_traits@D@std@@@std@@AEBN@Z
	??$MakeCheckOpValueString@PEBC@log_internal@lts_20250814@absl@@YAXAEAV?$basic_ostream@DU?$char_traits@D@std@@@std@@AEBQEBC@Z
	??$MakeCheckOpValueString@PEBD@log_internal@lts_20250814@absl@@YAXAEAV?$basic_ostream@DU?$char_traits@D@std@@@std@@AEBQEBD@Z
	??$MakeCheckOpValueString@PEBE@log_internal@lts_20250814@absl@@YAXAEAV?$basic_ostream@DU?$char_traits@D@std@@@std@@AEBQEBE@Z
	??$MakeCheckOpValueString@V?$basic_string@DU?$char_traits@D@std@@V?$allocator@D@2@@std@@@log_internal@lts_20250814@absl@@YAXAEAV?$basic_ostream@DU?$char_traits@D@std@@@std@@AEBV?$basic_string@DU?$char_traits@D@std@@V?$allocator@D@2@@4@@Z
	??$MakeCheckOpValueString@V?$basic_string_view@DU?$char_traits@D@std@@@std@@@log_internal@lts_20250814@absl@@YAXAEAV?$basic_ostream@DU?$char_traits@D@std@@@std@@AEBV?$basic_string_view@DU?$char_traits@D@std@@@4@@Z
	??$MakeCheckOpValueString@_J@log_internal@lts_20250814@absl@@YAXAEAV?$basic_ostream@DU?$char_traits@D@std@@@std@@AEB_J@Z
	??$MakeCheckOpValueString@_K@log_internal@lts_20250814@absl@@YAXAEAV?$basic_ostream@DU?$char_traits@D@std@@@std@@AEB_K@Z
	??$MakeCheckOpValueString@_N@log_internal@lts_20250814@absl@@YAXAEAV?$basic_ostream@DU?$char_traits@D@std@@@std@@AEB_N@Z
	??$MakeConstSpan@$SQEAX@lts_20250814@absl@@YA?AV?$Span@QEAX@01@PEBQEAX_K@Z
	??$MakeSpan@$SD@lts_20250814@absl@@YA?AV?$Span@D@01@PEAD_K@Z
	??$MakeSpan@$SI$0BAA@@lts_20250814@absl@@YA?AV?$Span@I@01@AEAY0BAA@I@Z
	??$MakeSpan@$SI$0BIA@@lts_20250814@absl@@YA?AV?$Span@I@01@AEAY0BIA@I@Z
	??$MakeSpan@$SI$0CAA@@lts_20250814@absl@@YA?AV?$Span@I@01@AEAY0CAA@I@Z
	??$MakeSpan@$SI$0CIA@@lts_20250814@absl@@YA?AV?$Span@I@01@AEAY0CIA@I@Z
	??$MakeSpan@$SI$0IA@@lts_20250814@absl@@YA?AV?$Span@I@01@AEAY0IA@I@Z
	??$MakeSpan@$SI@lts_20250814@absl@@YA?AV?$Span@I@01@PEAI_K@Z
	??$MakeSpan@$SPEAVLogSink@lts_20250814@absl@@@lts_20250814@absl@@YA?AV?$Span@PEAVLogSink@lts_20250814@absl@@@01@PEAPEAVLogSink@01@_K@Z
	??$MakeSpan@$SQEAX@lts_20250814@absl@@YA?AV?$Span@QEAX@01@PEBQEAX_K@Z
	??$MakeSpan@$SV?$InlinedVector@PEAVLogSink@lts_20250814@absl@@$0BA@V?$allocator@PEAVLogSink@lts_20250814@absl@@@std@@@lts_20250814@absl@@@lts_20250814@absl@@YA?AV?$Span@PEAVLogSink@lts_20250814@absl@@@01@AEAV?$InlinedVector@PEAVLogSink@lts_20250814@absl@@$0BA@V?$allocator@PEAVLogSink@lts_20250814@absl@@@std@@@01@@Z
	??$MakeSpan@$SV?$array@D$0DKJI@@std@@@lts_20250814@absl@@YA?AV?$Span@D@01@AEAV?$array@D$0DKJI@@std@@@Z
	??$MakeSpan@$SV?$vector@PEAVLogSink@lts_20250814@absl@@V?$allocator@PEAVLogSink@lts_20250814@absl@@@std@@@std@@@lts_20250814@absl@@YA?AV?$Span@PEAVLogSink@lts_20250814@absl@@@01@AEAV?$vector@PEAVLogSink@lts_20250814@absl@@V?$allocator@PEAVLogSink@lts_20250814@absl@@@std@@@std@@@Z
	??$MakeStatus@$$V@?$StatusOrData@V?$basic_string@DU?$char_traits@D@std@@V?$allocator@D@2@@std@@@internal_statusor@lts_20250814@absl@@IEAAXXZ
	??$MaskOfLength@I@crc_internal@lts_20250814@absl@@YAIH@Z
	??$MaxValidSize@$07@container_internal@lts_20250814@absl@@YA_K_K@Z
	??$MaxValidSizeFor1ByteSlot@$07@container_internal@lts_20250814@absl@@YA_KXZ
	??$Merge@$00@CordRepBtree@cord_internal@lts_20250814@absl@@CAPEAV0123@PEAV0123@0@Z
	??$Merge@$0A@@CordRepBtree@cord_internal@lts_20250814@absl@@CAPEAV0123@PEAV0123@0@Z
	??$Microseconds@H$0A@@lts_20250814@absl@@YA?AVDuration@01@H@Z
	??$Microseconds@J$0A@@lts_20250814@absl@@YA?AVDuration@01@J@Z
	??$Milliseconds@H$0A@@lts_20250814@absl@@YA?AVDuration@01@H@Z
	??$Milliseconds@K$0A@@lts_20250814@absl@@YA?AVDuration@01@K@Z
	??$Milliseconds@N$0A@@lts_20250814@absl@@YA?AVDuration@01@N@Z
	??$Minutes@H$0A@@lts_20250814@absl@@YA?AVDuration@01@H@Z
	??$Nanoseconds@H$0A@@lts_20250814@absl@@YA?AVDuration@01@H@Z
	??$Nanoseconds@J$0A@@lts_20250814@absl@@YA?AVDuration@01@J@Z
	??$Nanoseconds@_J$0A@@lts_20250814@absl@@YA?AVDuration@01@_J@Z
	??$NewImpl@$0BAAA@$$V@CordRepFlat@cord_internal@lts_20250814@absl@@SAPEAU0123@_K@Z
	??$NewImpl@$0EAAAA@$$V@CordRepFlat@cord_internal@lts_20250814@absl@@SAPEAU0123@_K@Z
	??$NewLeaf@$00@CordRepBtree@cord_internal@lts_20250814@absl@@CAPEAV0123@V?$basic_string_view@DU?$char_traits@D@std@@@std@@_K@Z
	??$NewLeaf@$0A@@CordRepBtree@cord_internal@lts_20250814@absl@@CAPEAV0123@V?$basic_string_view@DU?$char_traits@D@std@@@std@@_K@Z
	??$Offset@$00@?$LayoutImpl@V?$tuple@PEAV?$btree_node@U?$map_params@_K_KU?$less@_K@std@@V?$allocator@U?$pair@$$CB_K_K@std@@@2@$0BAA@$0A@@container_internal@lts_20250814@absl@@@container_internal@lts_20250814@absl@@IET?$map_slot_type@_K_K@234@PEAV1234@@std@@U?$integer_sequence@_K$00$0A@$03$0P@$0BA@@2@U?$integer_sequence@_K$S@2@U?$integer_sequence@_K$0A@$00$01$02$03@2@U52@@internal_layout@container_internal@lts_20250814@absl@@QEBA_KXZ
	??$Offset@$00@?$LayoutImpl@V?$tuple@PEAV?$btree_node@U?$map_params@_K_KU?$less@_K@std@@V?$allocator@U?$pair@$$CB_K_K@std@@@2@$0BAA@$0A@@container_internal@lts_20250814@absl@@@container_internal@lts_20250814@absl@@IET?$map_slot_type@_K_K@234@PEAV1234@@std@@U?$integer_sequence@_K$00$0A@$03@2@U?$integer_sequence@_K$0A@$00@2@U?$integer_sequence@_K$0A@$00$01$02$03@2@U52@@internal_layout@container_internal@lts_20250814@absl@@QEBA_KXZ
	??$Offset@$01@?$LayoutImpl@V?$tuple@PEAV?$btree_node@U?$map_params@_K_KU?$less@_K@std@@V?$allocator@U?$pair@$$CB_K_K@std@@@2@$0BAA@$0A@@container_internal@lts_20250814@absl@@@container_internal@lts_20250814@absl@@IET?$map_slot_type@_K_K@234@PEAV1234@@std@@U?$integer_sequence@_K$00$0A@$03$0P@$0BA@@2@U?$integer_sequence@_K$S@2@U?$integer_sequence@_K$0A@$00$01$02$03@2@U52@@internal_layout@container_internal@lts_20250814@absl@@QEBA_KXZ
	??$Offset@$01@?$LayoutImpl@V?$tuple@PEAV?$btree_node@U?$map_params@_K_KU?$less@_K@std@@V?$allocator@U?$pair@$$CB_K_K@std@@@2@$0BAA@$0A@@container_internal@lts_20250814@absl@@@container_internal@lts_20250814@absl@@IET?$map_slot_type@_K_K@234@PEAV1234@@std@@U?$integer_sequence@_K$00$0A@$03@2@U?$integer_sequence@_K$0A@$00@2@U?$integer_sequence@_K$0A@$00$01$02$03@2@U52@@internal_layout@container_internal@lts_20250814@absl@@QEBA_KXZ
	??$Offset@$02@?$LayoutImpl@V?$tuple@PEAV?$btree_node@U?$map_params@_K_KU?$less@_K@std@@V?$allocator@U?$pair@$$CB_K_K@std@@@2@$0BAA@$0A@@container_internal@lts_20250814@absl@@@container_internal@lts_20250814@absl@@IET?$map_slot_type@_K_K@234@PEAV1234@@std@@U?$integer_sequence@_K$00$0A@$03$0P@$0BA@@2@U?$integer_sequence@_K$S@2@U?$integer_sequence@_K$0A@$00$01$02$03@2@U52@@internal_layout@container_internal@lts_20250814@absl@@QEBA_KXZ
	??$Offset@$02@?$LayoutImpl@V?$tuple@PEAV?$btree_node@U?$map_params@_K_KU?$less@_K@std@@V?$allocator@U?$pair@$$CB_K_K@std@@@2@$0BAA@$0A@@container_internal@lts_20250814@absl@@@container_internal@lts_20250814@absl@@IET?$map_slot_type@_K_K@234@PEAV1234@@std@@U?$integer_sequence@_K$00$0A@$03@2@U?$integer_sequence@_K$0A@$00@2@U?$integer_sequence@_K$0A@$00$01$02$03@2@U52@@internal_layout@container_internal@lts_20250814@absl@@QEBA_KXZ
	??$Offset@$03@?$LayoutImpl@V?$tuple@PEAV?$btree_node@U?$map_params@_K_KU?$less@_K@std@@V?$allocator@U?$pair@$$CB_K_K@std@@@2@$0BAA@$0A@@container_internal@lts_20250814@absl@@@container_internal@lts_20250814@absl@@IET?$map_slot_type@_K_K@234@PEAV1234@@std@@U?$integer_sequence@_K$00$0A@$03$0P@$0BA@@2@U?$integer_sequence@_K$S@2@U?$integer_sequence@_K$0A@$00$01$02$03@2@U52@@internal_layout@container_internal@lts_20250814@absl@@QEBA_KXZ
	??$Offset@$03@?$LayoutImpl@V?$tuple@PEAV?$btree_node@U?$map_params@_K_KU?$less@_K@std@@V?$allocator@U?$pair@$$CB_K_K@std@@@2@$0BAA@$0A@@container_internal@lts_20250814@absl@@@container_internal@lts_20250814@absl@@IET?$map_slot_type@_K_K@234@PEAV1234@@std@@U?$integer_sequence@_K$00$0A@$03@2@U?$integer_sequence@_K$0A@$00@2@U?$integer_sequence@_K$0A@$00$01$02$03@2@U52@@internal_layout@container_internal@lts_20250814@absl@@QEBA_KXZ
	??$Offset@$0A@@?$LayoutImpl@V?$tuple@PEAV?$btree_node@U?$map_params@_K_KU?$less@_K@std@@V?$allocator@U?$pair@$$CB_K_K@std@@@2@$0BAA@$0A@@container_internal@lts_20250814@absl@@@container_internal@lts_20250814@absl@@IET?$map_slot_type@_K_K@234@PEAV1234@@std@@U?$integer_sequence@_K$00$0A@$03$0P@$0BA@@2@U?$integer_sequence@_K$S@2@U?$integer_sequence@_K$0A@$00$01$02$03@2@U52@@internal_layout@container_internal@lts_20250814@absl@@QEBA_KXZ
	??$Offset@$0A@@?$LayoutImpl@V?$tuple@PEAV?$btree_node@U?$map_params@_K_KU?$less@_K@std@@V?$allocator@U?$pair@$$CB_K_K@std@@@2@$0BAA@$0A@@container_internal@lts_20250814@absl@@@container_internal@lts_20250814@absl@@IET?$map_slot_type@_K_K@234@PEAV1234@@std@@U?$integer_sequence@_K$00$0A@$03@2@U?$integer_sequence@_K$0A@$00@2@U?$integer_sequence@_K$0A@$00$01$02$03@2@U52@@internal_layout@container_internal@lts_20250814@absl@@QEBA_KXZ
	??$PairArgs@$$CBV?$basic_string@DU?$char_traits@D@std@@V?$allocator@D@2@@std@@W4StringId@debugging_internal@lts_20250814@absl@@@container_internal@lts_20250814@absl@@YA?AU?$pair@V?$tuple@AEBV?$basic_string@DU?$char_traits@D@std@@V?$allocator@D@2@@std@@@std@@V?$tuple@AEBW4StringId@debugging_internal@lts_20250814@absl@@@2@@std@@AEBU?$pair@$$CBV?$basic_string@DU?$char_traits@D@std@@V?$allocator@D@2@@std@@W4StringId@debugging_internal@lts_20250814@absl@@@4@@Z
	??$PairArgs@$$CB_KW4LocationId@debugging_internal@lts_20250814@absl@@@container_internal@lts_20250814@absl@@YA?AU?$pair@V?$tuple@AEB_K@std@@V?$tuple@AEBW4LocationId@debugging_internal@lts_20250814@absl@@@2@@std@@AEBU?$pair@$$CB_KW4LocationId@debugging_internal@lts_20250814@absl@@@4@@Z
	??$PairArgs@AEAV?$basic_string_view@DU?$char_traits@D@std@@@std@@W4StringId@debugging_internal@lts_20250814@absl@@@container_internal@lts_20250814@absl@@YA?AU?$pair@V?$tuple@AEAV?$basic_string_view@DU?$char_traits@D@std@@@std@@@std@@V?$tuple@$$QEAW4StringId@debugging_internal@lts_20250814@absl@@@2@@std@@AEAV?$basic_string_view@DU?$char_traits@D@std@@@4@$$QEAW4StringId@debugging_internal@12@@Z
	??$PairArgs@AEBV?$basic_string@DU?$char_traits@D@std@@V?$allocator@D@2@@std@@AEBW4StringId@debugging_internal@lts_20250814@absl@@@container_internal@lts_20250814@absl@@YA?AU?$pair@V?$tuple@AEBV?$basic_string@DU?$char_traits@D@std@@V?$allocator@D@2@@std@@@std@@V?$tuple@AEBW4StringId@debugging_internal@lts_20250814@absl@@@2@@std@@AEBV?$basic_string@DU?$char_traits@D@std@@V?$allocator@D@2@@4@AEBW4StringId@debugging_internal@12@@Z
	??$PairArgs@AEB_KAEBW4LocationId@debugging_internal@lts_20250814@absl@@@container_internal@lts_20250814@absl@@YA?AU?$pair@V?$tuple@AEB_K@std@@V?$tuple@AEBW4LocationId@debugging_internal@lts_20250814@absl@@@2@@std@@AEB_KAEBW4LocationId@debugging_internal@12@@Z
	??$PairArgs@V?$basic_string@DU?$char_traits@D@std@@V?$allocator@D@2@@std@@W4StringId@debugging_internal@lts_20250814@absl@@@container_internal@lts_20250814@absl@@YA?AU?$pair@V?$tuple@AEBV?$basic_string@DU?$char_traits@D@std@@V?$allocator@D@2@@std@@@std@@V?$tuple@AEBW4StringId@debugging_internal@lts_20250814@absl@@@2@@std@@AEBU?$pair@V?$basic_string@DU?$char_traits@D@std@@V?$allocator@D@2@@std@@W4StringId@debugging_internal@lts_20250814@absl@@@4@@Z
	??$PairArgs@_KW4LocationId@debugging_internal@lts_20250814@absl@@@container_internal@lts_20250814@absl@@YA?AU?$pair@V?$tuple@$$QEA_K@std@@V?$tuple@$$QEAW4LocationId@debugging_internal@lts_20250814@absl@@@2@@std@@$$QEA_K$$QEAW4LocationId@debugging_internal@12@@Z
	??$ParseFloat@$09@strings_internal@lts_20250814@absl@@YA?AUParsedFloat@012@PEBD0W4chars_format@12@@Z
	??$ParseFloat@$0BA@@strings_internal@lts_20250814@absl@@YA?AUParsedFloat@012@PEBD0W4chars_format@12@@Z
	??$ParseFormatString@UParsedFormatConsumer@ParsedFormatBase@str_format_internal@lts_20250814@absl@@@str_format_internal@lts_20250814@absl@@YA_NV?$basic_string_view@DU?$char_traits@D@std@@@std@@UParsedFormatConsumer@ParsedFormatBase@012@@Z
	??$PlacementNew@VStatus@lts_20250814@absl@@$$V@internal_statusor@lts_20250814@absl@@YAXPEAX@Z
	??$Pointer@$00$$CBD@?$LayoutImpl@V?$tuple@PEAV?$btree_node@U?$map_params@_K_KU?$less@_K@std@@V?$allocator@U?$pair@$$CB_K_K@std@@@2@$0BAA@$0A@@container_internal@lts_20250814@absl@@@container_internal@lts_20250814@absl@@IET?$map_slot_type@_K_K@234@PEAV1234@@std@@U?$integer_sequence@_K$00$0A@$03$0P@$0BA@@2@U?$integer_sequence@_K$S@2@U?$integer_sequence@_K$0A@$00$01$02$03@2@U52@@internal_layout@container_internal@lts_20250814@absl@@QEBAPEBIPEBD@Z
	??$Pointer@$00D@?$LayoutImpl@V?$tuple@PEAV?$btree_node@U?$map_params@_K_KU?$less@_K@std@@V?$allocator@U?$pair@$$CB_K_K@std@@@2@$0BAA@$0A@@container_internal@lts_20250814@absl@@@container_internal@lts_20250814@absl@@IET?$map_slot_type@_K_K@234@PEAV1234@@std@@U?$integer_sequence@_K$00$0A@$03$0P@$0BA@@2@U?$integer_sequence@_K$S@2@U?$integer_sequence@_K$0A@$00$01$02$03@2@U52@@internal_layout@container_internal@lts_20250814@absl@@QEBAPEAIPEAD@Z
	??$Pointer@$01$$CBD@?$LayoutImpl@V?$tuple@PEAV?$btree_node@U?$map_params@_K_KU?$less@_K@std@@V?$allocator@U?$pair@$$CB_K_K@std@@@2@$0BAA@$0A@@container_internal@lts_20250814@absl@@@container_internal@lts_20250814@absl@@IET?$map_slot_type@_K_K@234@PEAV1234@@std@@U?$integer_sequence@_K$00$0A@$03$0P@$0BA@@2@U?$integer_sequence@_K$S@2@U?$integer_sequence@_K$0A@$00$01$02$03@2@U52@@internal_layout@container_internal@lts_20250814@absl@@QEBAPEBEPEBD@Z
	??$Pointer@$01D@?$LayoutImpl@V?$tuple@PEAV?$btree_node@U?$map_params@_K_KU?$less@_K@std@@V?$allocator@U?$pair@$$CB_K_K@std@@@2@$0BAA@$0A@@container_internal@lts_20250814@absl@@@container_internal@lts_20250814@absl@@IET?$map_slot_type@_K_K@234@PEAV1234@@std@@U?$integer_sequence@_K$00$0A@$03$0P@$0BA@@2@U?$integer_sequence@_K$S@2@U?$integer_sequence@_K$0A@$00$01$02$03@2@U52@@internal_layout@container_internal@lts_20250814@absl@@QEBAPEAEPEAD@Z
	??$Pointer@$02$$CBD@?$LayoutImpl@V?$tuple@PEAV?$btree_node@U?$map_params@_K_KU?$less@_K@std@@V?$allocator@U?$pair@$$CB_K_K@std@@@2@$0BAA@$0A@@container_internal@lts_20250814@absl@@@container_internal@lts_20250814@absl@@IET?$map_slot_type@_K_K@234@PEAV1234@@std@@U?$integer_sequence@_K$00$0A@$03$0P@$0BA@@2@U?$integer_sequence@_K$S@2@U?$integer_sequence@_K$0A@$00$01$02$03@2@U52@@internal_layout@container_internal@lts_20250814@absl@@QEBAPEBT?$map_slot_type@_K_K@234@PEBD@Z
	??$Pointer@$02D@?$LayoutImpl@V?$tuple@PEAV?$btree_node@U?$map_params@_K_KU?$less@_K@std@@V?$allocator@U?$pair@$$CB_K_K@std@@@2@$0BAA@$0A@@container_internal@lts_20250814@absl@@@container_internal@lts_20250814@absl@@IET?$map_slot_type@_K_K@234@PEAV1234@@std@@U?$integer_sequence@_K$00$0A@$03$0P@$0BA@@2@U?$integer_sequence@_K$S@2@U?$integer_sequence@_K$0A@$00$01$02$03@2@U52@@internal_layout@container_internal@lts_20250814@absl@@QEBAPEAT?$map_slot_type@_K_K@234@PEAD@Z
	??$Pointer@$03$$CBD@?$LayoutImpl@V?$tuple@PEAV?$btree_node@U?$map_params@_K_KU?$less@_K@std@@V?$allocator@U?$pair@$$CB_K_K@std@@@2@$0BAA@$0A@@container_internal@lts_20250814@absl@@@container_internal@lts_20250814@absl@@IET?$map_slot_type@_K_K@234@PEAV1234@@std@@U?$integer_sequence@_K$00$0A@$03$0P@$0BA@@2@U?$integer_sequence@_K$S@2@U?$integer_sequence@_K$0A@$00$01$02$03@2@U52@@internal_layout@container_internal@lts_20250814@absl@@QEBAPEBQEAV?$btree_node@U?$map_params@_K_KU?$less@_K@std@@V?$allocator@U?$pair@$$CB_K_K@std@@@2@$0BAA@$0A@@container_internal@lts_20250814@absl@@@234@PEBD@Z
	??$Pointer@$03D@?$LayoutImpl@V?$tuple@PEAV?$btree_node@U?$map_params@_K_KU?$less@_K@std@@V?$allocator@U?$pair@$$CB_K_K@std@@@2@$0BAA@$0A@@container_internal@lts_20250814@absl@@@container_internal@lts_20250814@absl@@IET?$map_slot_type@_K_K@234@PEAV1234@@std@@U?$integer_sequence@_K$00$0A@$03$0P@$0BA@@2@U?$integer_sequence@_K$S@2@U?$integer_sequence@_K$0A@$00$01$02$03@2@U52@@internal_layout@container_internal@lts_20250814@absl@@QEBAPEAPEAV?$btree_node@U?$map_params@_K_KU?$less@_K@std@@V?$allocator@U?$pair@$$CB_K_K@std@@@2@$0BAA@$0A@@container_internal@lts_20250814@absl@@@234@PEAD@Z
	??$Pointer@$0A@$$CBD@?$LayoutImpl@V?$tuple@PEAV?$btree_node@U?$map_params@_K_KU?$less@_K@std@@V?$allocator@U?$pair@$$CB_K_K@std@@@2@$0BAA@$0A@@container_internal@lts_20250814@absl@@@container_internal@lts_20250814@absl@@IET?$map_slot_type@_K_K@234@PEAV1234@@std@@U?$integer_sequence@_K$00$0A@$03$0P@$0BA@@2@U?$integer_sequence@_K$S@2@U?$integer_sequence@_K$0A@$00$01$02$03@2@U52@@internal_layout@container_internal@lts_20250814@absl@@QEBAPEBQEAV?$btree_node@U?$map_params@_K_KU?$less@_K@std@@V?$allocator@U?$pair@$$CB_K_K@std@@@2@$0BAA@$0A@@container_internal@lts_20250814@absl@@@234@PEBD@Z
	??$Pointer@$0A@D@?$LayoutImpl@V?$tuple@PEAV?$btree_node@U?$map_params@_K_KU?$less@_K@std@@V?$allocator@U?$pair@$$CB_K_K@std@@@2@$0BAA@$0A@@container_internal@lts_20250814@absl@@@container_internal@lts_20250814@absl@@IET?$map_slot_type@_K_K@234@PEAV1234@@std@@U?$integer_sequence@_K$00$0A@$03$0P@$0BA@@2@U?$integer_sequence@_K$S@2@U?$integer_sequence@_K$0A@$00$01$02$03@2@U52@@internal_layout@container_internal@lts_20250814@absl@@QEBAPEAPEAV?$btree_node@U?$map_params@_K_KU?$less@_K@std@@V?$allocator@U?$pair@$$CB_K_K@std@@@2@$0BAA@$0A@@container_internal@lts_20250814@absl@@@234@PEAD@Z
	??$PopDead@_J_K_K_KG@?$SampleRecorder@UHashtablezInfo@container_internal@lts_20250814@absl@@@profiling_internal@lts_20250814@absl@@AEAAPEAUHashtablezInfo@container_internal@23@_J_K11G@Z
	??$Popcount@_K@numeric_internal@lts_20250814@absl@@YAH_K@Z
	??$Prepend@V?$basic_string@DU?$char_traits@D@std@@V?$allocator@D@2@@std@@$0A@@Cord@lts_20250814@absl@@QEAAX$$QEAV?$basic_string@DU?$char_traits@D@std@@V?$allocator@D@2@@std@@@Z
	??$ReadCallback@P6A_NPEAUSynchEvent@lts_20250814@absl@@@Z@Condition@lts_20250814@absl@@AEBAXPEAP6A_NPEAUSynchEvent@12@@Z@Z
	??$ReadCallback@P6A_NPEBU?$atomic@_N@std@@@Z@Condition@lts_20250814@absl@@AEBAXPEAP6A_NPEBU?$atomic@_N@std@@@Z@Z
	??$Register@AEB_JAEA_KAEA_KAEA_KAEAG@?$SampleRecorder@UHashtablezInfo@container_internal@lts_20250814@absl@@@profiling_internal@lts_20250814@absl@@QEAAPEAUHashtablezInfo@container_internal@23@AEB_JAEA_K11AEAG@Z
	??$RotateRight@I@crc_internal@lts_20250814@absl@@YAIIHH@Z
	??$RotateRight@I@numeric_internal@lts_20250814@absl@@YAIIH@Z
	??$RoundUp@$03@crc_internal@lts_20250814@absl@@YAPEBEPEBE@Z
	??$RunWithReentrancyGuard@V<lambda_13a3b750c9478a2e534d11d66ee8ed41>@@@CommonFields@container_internal@lts_20250814@absl@@QEAAXV<lambda_13a3b750c9478a2e534d11d66ee8ed41>@@@Z
	??$RunWithReentrancyGuard@V<lambda_1ab4670fc337d5fbf20ff38245539711>@@@CommonFields@container_internal@lts_20250814@absl@@QEAAXV<lambda_1ab4670fc337d5fbf20ff38245539711>@@@Z
	??$RunWithReentrancyGuard@V<lambda_200737f7b9719692da2ded0c674e14cd>@@@CommonFields@container_internal@lts_20250814@absl@@QEAAXV<lambda_200737f7b9719692da2ded0c674e14cd>@@@Z
	??$RunWithReentrancyGuard@V<lambda_2cd2a3e794b8de7c7ccaf856660a141d>@@@CommonFields@container_internal@lts_20250814@absl@@QEAAXV<lambda_2cd2a3e794b8de7c7ccaf856660a141d>@@@Z
	??$RunWithReentrancyGuard@V<lambda_7504e7195171ada2a26d5b670ae56a14>@@@CommonFields@container_internal@lts_20250814@absl@@QEAAXV<lambda_7504e7195171ada2a26d5b670ae56a14>@@@Z
	??$RunWithReentrancyGuard@V<lambda_aa0a166969caa70924675c0a0cb026a7>@@@CommonFields@container_internal@lts_20250814@absl@@QEAAXV<lambda_aa0a166969caa70924675c0a0cb026a7>@@@Z
	??$RunWithReentrancyGuard@V<lambda_d965387a72bccb619c0fce2552aad134>@@@CommonFields@container_internal@lts_20250814@absl@@QEAAXV<lambda_d965387a72bccb619c0fce2552aad134>@@@Z
	??$SNPrintF@DHHH@lts_20250814@absl@@YAHPEAD_KAEBV?$FormatSpecTemplate@$0BPPPL@$0JPPPL@$0JPPPL@$0JPPPL@@str_format_internal@01@AEBDAEBH44@Z
	??$STLStringResizeUninitialized@V?$basic_string@DU?$char_traits@D@std@@V?$allocator@D@2@@std@@X@strings_internal@lts_20250814@absl@@YAXPEAV?$basic_string@DU?$char_traits@D@std@@V?$allocator@D@2@@std@@_K@Z
	??$STLStringResizeUninitializedAmortized@V?$basic_string@DU?$char_traits@D@std@@V?$allocator@D@2@@std@@@strings_internal@lts_20250814@absl@@YAXPEAV?$basic_string@DU?$char_traits@D@std@@V?$allocator@D@2@@std@@_K@Z
	??$SanitizerPoisonObject@PEAV?$btree_node@U?$map_params@_K_KU?$less@_K@std@@V?$allocator@U?$pair@$$CB_K_K@std@@@2@$0BAA@$0A@@container_internal@lts_20250814@absl@@@container_internal@lts_20250814@absl@@@container_internal@lts_20250814@absl@@YAXPEBQEAV?$btree_node@U?$map_params@_K_KU?$less@_K@std@@V?$allocator@U?$pair@$$CB_K_K@std@@@2@$0BAA@$0A@@container_internal@lts_20250814@absl@@@012@@Z
	??$SanitizerPoisonObject@T?$map_slot_type@_K_K@container_internal@lts_20250814@absl@@@container_internal@lts_20250814@absl@@YAXPEBT?$map_slot_type@_K_K@012@@Z
	??$SanitizerUnpoisonObject@PEAV?$btree_node@U?$map_params@_K_KU?$less@_K@std@@V?$allocator@U?$pair@$$CB_K_K@std@@@2@$0BAA@$0A@@container_internal@lts_20250814@absl@@@container_internal@lts_20250814@absl@@@container_internal@lts_20250814@absl@@YAXPEBQEAV?$btree_node@U?$map_params@_K_KU?$less@_K@std@@V?$allocator@U?$pair@$$CB_K_K@std@@@2@$0BAA@$0A@@container_internal@lts_20250814@absl@@@012@@Z
	??$SanitizerUnpoisonObject@T?$map_slot_type@_K_K@container_internal@lts_20250814@absl@@@container_internal@lts_20250814@absl@@YAXPEBT?$map_slot_type@_K_K@012@@Z
	??$Seconds@H$0A@@lts_20250814@absl@@YA?AVDuration@01@H@Z
	??$Seconds@J$0A@@lts_20250814@absl@@YA?AVDuration@01@J@Z
	??$Seconds@_J$0A@@lts_20250814@absl@@YA?AVDuration@01@_J@Z
	??$SelectBucketCountForIterRange@PEBU?$pair@V?$basic_string@DU?$char_traits@D@std@@V?$allocator@D@2@@std@@W4StringId@debugging_internal@lts_20250814@absl@@@std@@@container_internal@lts_20250814@absl@@YA_KPEBU?$pair@V?$basic_string@DU?$char_traits@D@std@@V?$allocator@D@2@@std@@W4StringId@debugging_internal@lts_20250814@absl@@@std@@0_K@Z
	??$SetEdge@$00@CordRepBtree@cord_internal@lts_20250814@absl@@QEAA?AUOpResult@0123@_NPEAUCordRep@123@_K@Z
	??$SetEdge@$0A@@CordRepBtree@cord_internal@lts_20250814@absl@@QEAA?AUOpResult@0123@_NPEAUCordRep@123@_K@Z
	??$SharedCompareImpl@V?$basic_string_view@DU?$char_traits@D@std@@@std@@@lts_20250814@absl@@YAHAEBVCord@01@AEBV?$basic_string_view@DU?$char_traits@D@std@@@std@@@Z
	??$SharedCompareImpl@VCord@lts_20250814@absl@@@lts_20250814@absl@@YAHAEBVCord@01@0@Z
	??$ShouldSampleHashtablezInfoForAlloc@V?$allocator@D@std@@@container_internal@lts_20250814@absl@@YA_NXZ
	??$SimpleAtoi@H@lts_20250814@absl@@YA_NV?$basic_string_view@DU?$char_traits@D@std@@@std@@PEAH@Z
	??$Size@$00@?$LayoutImpl@V?$tuple@PEAV?$btree_node@U?$map_params@_K_KU?$less@_K@std@@V?$allocator@U?$pair@$$CB_K_K@std@@@2@$0BAA@$0A@@container_internal@lts_20250814@absl@@@container_internal@lts_20250814@absl@@IET?$map_slot_type@_K_K@234@PEAV1234@@std@@U?$integer_sequence@_K$00$0A@$03$0P@$0BA@@2@U?$integer_sequence@_K$S@2@U?$integer_sequence@_K$0A@$00$01$02$03@2@U52@@internal_layout@container_internal@lts_20250814@absl@@QEBA_KXZ
	??$Size@$00@?$LayoutImpl@V?$tuple@PEAV?$btree_node@U?$map_params@_K_KU?$less@_K@std@@V?$allocator@U?$pair@$$CB_K_K@std@@@2@$0BAA@$0A@@container_internal@lts_20250814@absl@@@container_internal@lts_20250814@absl@@IET?$map_slot_type@_K_K@234@PEAV1234@@std@@U?$integer_sequence@_K$00$0A@$03@2@U?$integer_sequence@_K$0A@$00@2@U?$integer_sequence@_K$0A@$00$01$02$03@2@U52@@internal_layout@container_internal@lts_20250814@absl@@QEBA_KXZ
	??$Size@$01@?$LayoutImpl@V?$tuple@PEAV?$btree_node@U?$map_params@_K_KU?$less@_K@std@@V?$allocator@U?$pair@$$CB_K_K@std@@@2@$0BAA@$0A@@container_internal@lts_20250814@absl@@@container_internal@lts_20250814@absl@@IET?$map_slot_type@_K_K@234@PEAV1234@@std@@U?$integer_sequence@_K$00$0A@$03$0P@$0BA@@2@U?$integer_sequence@_K$S@2@U?$integer_sequence@_K$0A@$00$01$02$03@2@U52@@internal_layout@container_internal@lts_20250814@absl@@QEBA_KXZ
	??$Size@$01@?$LayoutImpl@V?$tuple@PEAV?$btree_node@U?$map_params@_K_KU?$less@_K@std@@V?$allocator@U?$pair@$$CB_K_K@std@@@2@$0BAA@$0A@@container_internal@lts_20250814@absl@@@container_internal@lts_20250814@absl@@IET?$map_slot_type@_K_K@234@PEAV1234@@std@@U?$integer_sequence@_K$00$0A@$03@2@U?$integer_sequence@_K$0A@$00@2@U?$integer_sequence@_K$0A@$00$01$02$03@2@U52@@internal_layout@container_internal@lts_20250814@absl@@QEBA_KXZ
	??$Size@$02@?$LayoutImpl@V?$tuple@PEAV?$btree_node@U?$map_params@_K_KU?$less@_K@std@@V?$allocator@U?$pair@$$CB_K_K@std@@@2@$0BAA@$0A@@container_internal@lts_20250814@absl@@@container_internal@lts_20250814@absl@@IET?$map_slot_type@_K_K@234@PEAV1234@@std@@U?$integer_sequence@_K$00$0A@$03$0P@$0BA@@2@U?$integer_sequence@_K$S@2@U?$integer_sequence@_K$0A@$00$01$02$03@2@U52@@internal_layout@container_internal@lts_20250814@absl@@QEBA_KXZ
	??$Size@$02@?$LayoutImpl@V?$tuple@PEAV?$btree_node@U?$map_params@_K_KU?$less@_K@std@@V?$allocator@U?$pair@$$CB_K_K@std@@@2@$0BAA@$0A@@container_internal@lts_20250814@absl@@@container_internal@lts_20250814@absl@@IET?$map_slot_type@_K_K@234@PEAV1234@@std@@U?$integer_sequence@_K$00$0A@$03@2@U?$integer_sequence@_K$0A@$00@2@U?$integer_sequence@_K$0A@$00$01$02$03@2@U52@@internal_layout@container_internal@lts_20250814@absl@@QEBA_KXZ
	??$Size@$03@?$LayoutImpl@V?$tuple@PEAV?$btree_node@U?$map_params@_K_KU?$less@_K@std@@V?$allocator@U?$pair@$$CB_K_K@std@@@2@$0BAA@$0A@@container_internal@lts_20250814@absl@@@container_internal@lts_20250814@absl@@IET?$map_slot_type@_K_K@234@PEAV1234@@std@@U?$integer_sequence@_K$00$0A@$03$0P@$0BA@@2@U?$integer_sequence@_K$S@2@U?$integer_sequence@_K$0A@$00$01$02$03@2@U52@@internal_layout@container_internal@lts_20250814@absl@@QEBA_KXZ
	??$Size@$03@?$LayoutImpl@V?$tuple@PEAV?$btree_node@U?$map_params@_K_KU?$less@_K@std@@V?$allocator@U?$pair@$$CB_K_K@std@@@2@$0BAA@$0A@@container_internal@lts_20250814@absl@@@container_internal@lts_20250814@absl@@IET?$map_slot_type@_K_K@234@PEAV1234@@std@@U?$integer_sequence@_K$00$0A@$03@2@U?$integer_sequence@_K$0A@$00@2@U?$integer_sequence@_K$0A@$00$01$02$03@2@U52@@internal_layout@container_internal@lts_20250814@absl@@QEBA_KXZ
	??$Size@$0A@@?$LayoutImpl@V?$tuple@PEAV?$btree_node@U?$map_params@_K_KU?$less@_K@std@@V?$allocator@U?$pair@$$CB_K_K@std@@@2@$0BAA@$0A@@container_internal@lts_20250814@absl@@@container_internal@lts_20250814@absl@@IET?$map_slot_type@_K_K@234@PEAV1234@@std@@U?$integer_sequence@_K$00$0A@$03$0P@$0BA@@2@U?$integer_sequence@_K$S@2@U?$integer_sequence@_K$0A@$00$01$02$03@2@U52@@internal_layout@container_internal@lts_20250814@absl@@QEBA_KXZ
	??$Size@$0A@@?$LayoutImpl@V?$tuple@PEAV?$btree_node@U?$map_params@_K_KU?$less@_K@std@@V?$allocator@U?$pair@$$CB_K_K@std@@@2@$0BAA@$0A@@container_internal@lts_20250814@absl@@@container_internal@lts_20250814@absl@@IET?$map_slot_type@_K_K@234@PEAV1234@@std@@U?$integer_sequence@_K$00$0A@$03@2@U?$integer_sequence@_K$0A@$00@2@U?$integer_sequence@_K$0A@$00$01$02$03@2@U52@@internal_layout@container_internal@lts_20250814@absl@@QEBA_KXZ
	??$SmallMemmove@$00@cord_internal@lts_20250814@absl@@YAXPEADPEBD_K@Z
	??$SmallMemmove@$0A@@cord_internal@lts_20250814@absl@@YAXPEADPEBD_K@Z
	??$StoreCallback@P6A_NPEAUSynchEvent@lts_20250814@absl@@@Z@Condition@lts_20250814@absl@@AEAAXP6A_NPEAUSynchEvent@12@@Z@Z
	??$StoreCallback@P6A_NPEAX@Z@Condition@lts_20250814@absl@@AEAAXP6A_NPEAX@Z@Z
	??$StoreCallback@P6A_NPEBU?$atomic@_N@std@@@Z@Condition@lts_20250814@absl@@AEAAXP6A_NPEBU?$atomic@_N@std@@@Z@Z
	??$StrAppend@$$V@lts_20250814@absl@@YAXPEAV?$basic_string@DU?$char_traits@D@std@@V?$allocator@D@2@@std@@AEBVAlphaNum@01@1111@Z
	??$StrCat@$$BY01D@lts_20250814@absl@@YA?AV?$basic_string@DU?$char_traits@D@std@@V?$allocator@D@2@@std@@AEBVAlphaNum@01@0000AEAY01$$CBD@Z
	??$StrFormat@DHHHHH_JIV?$basic_string_view@DU?$char_traits@D@std@@@std@@HPEBDV12@@lts_20250814@absl@@YA?AV?$basic_string@DU?$char_traits@D@std@@V?$allocator@D@2@@std@@AEBV?$FormatSpecTemplate@$0BPPPL@$0JPPPL@$0JPPPL@$0JPPPL@$0JPPPL@$0JPPPL@$0JPPPL@$0JPPPL@$0IAAAE@$0JPPPL@$0EAAAE@$0IAAAE@@str_format_internal@01@AEBDAEBH2222AEB_JAEBIAEBV?$basic_string_view@DU?$char_traits@D@std@@@3@2AEBQEBD5@Z
	??$StrReplaceAll@V?$initializer_list@U?$pair@V?$basic_string_view@DU?$char_traits@D@std@@@std@@V12@@std@@@std@@@lts_20250814@absl@@YA?AV?$basic_string@DU?$char_traits@D@std@@V?$allocator@D@2@@std@@V?$basic_string_view@DU?$char_traits@D@std@@@3@AEBV?$initializer_list@U?$pair@V?$basic_string_view@DU?$char_traits@D@std@@@std@@V12@@std@@@3@@Z
	??$StrReplaceAll@V?$initializer_list@U?$pair@V?$basic_string_view@DU?$char_traits@D@std@@@std@@V12@@std@@@std@@@lts_20250814@absl@@YAHAEBV?$initializer_list@U?$pair@V?$basic_string_view@DU?$char_traits@D@std@@@std@@V12@@std@@@std@@PEAV?$basic_string@DU?$char_traits@D@std@@V?$allocator@D@2@@3@@Z
	??$StrSplit@D@lts_20250814@absl@@YA?AV?$Splitter@VByChar@lts_20250814@absl@@UAllowEmpty@23@V?$basic_string_view@DU?$char_traits@D@std@@@std@@@strings_internal@01@VConvertibleToStringView@301@D@Z
	??$StreamFormat@I@lts_20250814@absl@@YA?AVStreamable@str_format_internal@01@AEBV?$FormatSpecTemplate@$0JPPPL@@301@AEBI@Z
	??$ToChronoDuration@V?$duration@HU?$ratio@$0DM@$00@std@@@chrono@std@@@time_internal@lts_20250814@absl@@YA?AV?$duration@HU?$ratio@$0DM@$00@std@@@chrono@std@@VDuration@12@@Z
	??$ToChronoDuration@V?$duration@HU?$ratio@$0OBA@$00@std@@@chrono@std@@@time_internal@lts_20250814@absl@@YA?AV?$duration@HU?$ratio@$0OBA@$00@std@@@chrono@std@@VDuration@12@@Z
	??$ToChronoDuration@V?$duration@_JU?$ratio@$00$00@std@@@chrono@std@@@time_internal@lts_20250814@absl@@YA?AV?$duration@_JU?$ratio@$00$00@std@@@chrono@std@@VDuration@12@@Z
	??$ToChronoDuration@V?$duration@_JU?$ratio@$00$0DLJKMKAA@@std@@@chrono@std@@@time_internal@lts_20250814@absl@@YA?AV?$duration@_JU?$ratio@$00$0DLJKMKAA@@std@@@chrono@std@@VDuration@12@@Z
	??$ToChronoDuration@V?$duration@_JU?$ratio@$00$0DOI@@std@@@chrono@std@@@time_internal@lts_20250814@absl@@YA?AV?$duration@_JU?$ratio@$00$0DOI@@std@@@chrono@std@@VDuration@12@@Z
	??$ToChronoDuration@V?$duration@_JU?$ratio@$00$0JIJGIA@@std@@@chrono@std@@@time_internal@lts_20250814@absl@@YA?AV?$duration@_JU?$ratio@$00$0JIJGIA@@std@@@chrono@std@@VDuration@12@@Z
	??$ToChronoDuration@V?$duration@_JU?$ratio@$00$0PECEA@@std@@@chrono@std@@@time_internal@lts_20250814@absl@@YA?AV?$duration@_JU?$ratio@$00$0PECEA@@std@@@chrono@std@@VDuration@12@@Z
	??$ToInt64@U?$ratio@$00$0JIJGIA@@std@@@time_internal@lts_20250814@absl@@YA_JVDuration@12@U?$ratio@$00$0JIJGIA@@std@@@Z
	??$ToInt@C@FormatArgImpl@str_format_internal@lts_20250814@absl@@CA_NTData@0123@PEAHU?$integral_constant@_N$00@std@@U?$integral_constant@_N$0A@@6@@Z
	??$ToInt@D@FormatArgImpl@str_format_internal@lts_20250814@absl@@CA_NTData@0123@PEAHU?$integral_constant@_N$00@std@@U?$integral_constant@_N$0A@@6@@Z
	??$ToInt@E@FormatArgImpl@str_format_internal@lts_20250814@absl@@CA_NTData@0123@PEAHU?$integral_constant@_N$00@std@@U?$integral_constant@_N$0A@@6@@Z
	??$ToInt@F@FormatArgImpl@str_format_internal@lts_20250814@absl@@CA_NTData@0123@PEAHU?$integral_constant@_N$00@std@@U?$integral_constant@_N$0A@@6@@Z
	??$ToInt@G@FormatArgImpl@str_format_internal@lts_20250814@absl@@CA_NTData@0123@PEAHU?$integral_constant@_N$00@std@@U?$integral_constant@_N$0A@@6@@Z
	??$ToInt@H@FormatArgImpl@str_format_internal@lts_20250814@absl@@CA_NTData@0123@PEAHU?$integral_constant@_N$00@std@@U?$integral_constant@_N$0A@@6@@Z
	??$ToInt@I@FormatArgImpl@str_format_internal@lts_20250814@absl@@CA_NTData@0123@PEAHU?$integral_constant@_N$00@std@@U?$integral_constant@_N$0A@@6@@Z
	??$ToInt@J@FormatArgImpl@str_format_internal@lts_20250814@absl@@CA_NTData@0123@PEAHU?$integral_constant@_N$00@std@@U?$integral_constant@_N$0A@@6@@Z
	??$ToInt@K@FormatArgImpl@str_format_internal@lts_20250814@absl@@CA_NTData@0123@PEAHU?$integral_constant@_N$00@std@@U?$integral_constant@_N$0A@@6@@Z
	??$ToInt@M@FormatArgImpl@str_format_internal@lts_20250814@absl@@CA_NTData@0123@PEAHU?$integral_constant@_N$0A@@std@@2@Z
	??$ToInt@N@FormatArgImpl@str_format_internal@lts_20250814@absl@@CA_NTData@0123@PEAHU?$integral_constant@_N$0A@@std@@2@Z
	??$ToInt@O@FormatArgImpl@str_format_internal@lts_20250814@absl@@CA_NTData@0123@PEAHU?$integral_constant@_N$0A@@std@@2@Z
	??$ToInt@PEBD@FormatArgImpl@str_format_internal@lts_20250814@absl@@CA_NTData@0123@PEAHU?$integral_constant@_N$0A@@std@@2@Z
	??$ToInt@PEB_W@FormatArgImpl@str_format_internal@lts_20250814@absl@@CA_NTData@0123@PEAHU?$integral_constant@_N$0A@@std@@2@Z
	??$ToInt@UVoidPtr@str_format_internal@lts_20250814@absl@@@FormatArgImpl@str_format_internal@lts_20250814@absl@@CA_NTData@0123@PEAHU?$integral_constant@_N$0A@@std@@2@Z
	??$ToInt@V?$basic_string@DU?$char_traits@D@std@@V?$allocator@D@2@@std@@@FormatArgImpl@str_format_internal@lts_20250814@absl@@CA_NTData@0123@PEAHU?$integral_constant@_N$0A@@std@@2@Z
	??$ToInt@V?$basic_string@_WU?$char_traits@_W@std@@V?$allocator@_W@2@@std@@@FormatArgImpl@str_format_internal@lts_20250814@absl@@CA_NTData@0123@PEAHU?$integral_constant@_N$0A@@std@@2@Z
	??$ToInt@V?$basic_string_view@DU?$char_traits@D@std@@@std@@@FormatArgImpl@str_format_internal@lts_20250814@absl@@CA_NTData@0123@PEAHU?$integral_constant@_N$0A@@std@@2@Z
	??$ToInt@V?$basic_string_view@_WU?$char_traits@_W@std@@@std@@@FormatArgImpl@str_format_internal@lts_20250814@absl@@CA_NTData@0123@PEAHU?$integral_constant@_N$0A@@std@@2@Z
	??$ToInt@VFormatArgImpl@str_format_internal@lts_20250814@absl@@@FormatArgImplFriend@str_format_internal@lts_20250814@absl@@SA_NVFormatArgImpl@123@PEAH@Z
	??$ToInt@Vint128@lts_20250814@absl@@@FormatArgImpl@str_format_internal@lts_20250814@absl@@CA_NTData@0123@PEAHU?$integral_constant@_N$0A@@std@@2@Z
	??$ToInt@Vuint128@lts_20250814@absl@@@FormatArgImpl@str_format_internal@lts_20250814@absl@@CA_NTData@0123@PEAHU?$integral_constant@_N$0A@@std@@2@Z
	??$ToInt@_J@FormatArgImpl@str_format_internal@lts_20250814@absl@@CA_NTData@0123@PEAHU?$integral_constant@_N$00@std@@U?$integral_constant@_N$0A@@6@@Z
	??$ToInt@_K@FormatArgImpl@str_format_internal@lts_20250814@absl@@CA_NTData@0123@PEAHU?$integral_constant@_N$00@std@@U?$integral_constant@_N$0A@@6@@Z
	??$ToInt@_N@FormatArgImpl@str_format_internal@lts_20250814@absl@@CA_NTData@0123@PEAHU?$integral_constant@_N$00@std@@U?$integral_constant@_N$0A@@6@@Z
	??$ToIntVal@C@FormatArgImpl@str_format_internal@lts_20250814@absl@@CAHAEBC@Z
	??$ToIntVal@D@FormatArgImpl@str_format_internal@lts_20250814@absl@@CAHAEBD@Z
	??$ToIntVal@E@FormatArgImpl@str_format_internal@lts_20250814@absl@@CAHAEBE@Z
	??$ToIntVal@F@FormatArgImpl@str_format_internal@lts_20250814@absl@@CAHAEBF@Z
	??$ToIntVal@G@FormatArgImpl@str_format_internal@lts_20250814@absl@@CAHAEBG@Z
	??$ToIntVal@H@FormatArgImpl@str_format_internal@lts_20250814@absl@@CAHAEBH@Z
	??$ToIntVal@I@FormatArgImpl@str_format_internal@lts_20250814@absl@@CAHAEBI@Z
	??$ToIntVal@J@FormatArgImpl@str_format_internal@lts_20250814@absl@@CAHAEBJ@Z
	??$ToIntVal@K@FormatArgImpl@str_format_internal@lts_20250814@absl@@CAHAEBK@Z
	??$ToIntVal@_J@FormatArgImpl@str_format_internal@lts_20250814@absl@@CAHAEB_J@Z
	??$ToIntVal@_K@FormatArgImpl@str_format_internal@lts_20250814@absl@@CAHAEB_K@Z
	??$ToIntVal@_N@FormatArgImpl@str_format_internal@lts_20250814@absl@@CAHAEB_N@Z
	??$TrailingZeros@G@container_internal@lts_20250814@absl@@YAIG@Z
	??$TrailingZeros@_K@container_internal@lts_20250814@absl@@YAI_K@Z
	??$TransferNRelocatable@$0BA@@container_internal@lts_20250814@absl@@YAXPEAX00_K@Z
	??$TransferNRelocatable@$0CI@@container_internal@lts_20250814@absl@@YAXPEAX00_K@Z
	??$TryFindNewIndexWithoutProbing@X@container_internal@lts_20250814@absl@@YA_K_K00PEAW4ctrl_t@012@0@Z
	??$TypeErasedApplyToSlotFn@U?$Hash@_K@hash_internal@lts_20250814@absl@@_K$00@container_internal@lts_20250814@absl@@YA_KPEBXPEAX_K@Z
	??$TypeErasedApplyToSlotFn@UStringHash@container_internal@lts_20250814@absl@@V?$basic_string@DU?$char_traits@D@std@@V?$allocator@D@2@@std@@$00@container_internal@lts_20250814@absl@@YA_KPEBXPEAX_K@Z
	??$UnhidePtr@X@base_internal@lts_20250814@absl@@YAPEAX_K@Z
	??$Wrap@VFormatSink@lts_20250814@absl@@@FormatSinkImpl@str_format_internal@lts_20250814@absl@@QEAA?AVFormatSink@23@XZ
	??$_Adl_verify_range@PEADPEAD@std@@YAXAEBQEAD0@Z
	??$_Adl_verify_range@PEAHPEAH@std@@YAXAEBQEAH0@Z
	??$_Adl_verify_range@PEAIPEAI@std@@YAXAEBQEAI0@Z
	??$_Adl_verify_range@PEAPEAPEBVImpl@time_zone@cctz@time_internal@lts_20250814@absl@@PEAPEAPEBV123456@@std@@YAXAEBQEAPEAPEBVImpl@time_zone@cctz@time_internal@lts_20250814@absl@@0@Z
	??$_Adl_verify_range@PEAPEAUPrefixCrc@CrcCordState@crc_internal@lts_20250814@absl@@PEAPEAU12345@@std@@YAXAEBQEAPEAUPrefixCrc@CrcCordState@crc_internal@lts_20250814@absl@@0@Z
	??$_Adl_verify_range@PEAV?$_List_unchecked_const_iterator@V?$_List_val@U?$_List_simple_types@H@std@@@std@@U_Iterator_base0@2@@std@@PEAV12@@std@@YAXAEBQEAV?$_List_unchecked_const_iterator@V?$_List_val@U?$_List_simple_types@H@std@@@std@@U_Iterator_base0@2@@0@0@Z
	??$_Adl_verify_range@PEAV?$_List_unchecked_const_iterator@V?$_List_val@U?$_List_simple_types@PEBUCordRep@cord_internal@lts_20250814@absl@@@std@@@std@@U_Iterator_base0@2@@std@@PEAV12@@std@@YAXAEBQEAV?$_List_unchecked_const_iterator@V?$_List_val@U?$_List_simple_types@PEBUCordRep@cord_internal@lts_20250814@absl@@@std@@@std@@U_Iterator_base0@2@@0@0@Z
	??$_Adl_verify_range@PEAV?$_List_unchecked_iterator@V?$_List_val@U?$_List_simple_types@U?$pair@$$CBV?$basic_string@DU?$char_traits@D@std@@V?$allocator@D@2@@std@@PEBVImpl@time_zone@cctz@time_internal@lts_20250814@absl@@@std@@@std@@@std@@@std@@PEAV12@@std@@YAXAEBQEAV?$_List_unchecked_iterator@V?$_List_val@U?$_List_simple_types@U?$pair@$$CBV?$basic_string@DU?$char_traits@D@std@@V?$allocator@D@2@@std@@PEBVImpl@time_zone@cctz@time_internal@lts_20250814@absl@@@std@@@std@@@std@@@0@0@Z
	??$_Adl_verify_range@PEA_KPEA_K@std@@YAXAEBQEA_K0@Z
	??$_Adl_verify_range@PEBDPEBD@std@@YAXAEBQEBD0@Z
	??$_Adl_verify_range@PEBIPEBI@std@@YAXAEBQEBI0@Z
	??$_Adl_verify_range@PEBUTransition@cctz@time_internal@lts_20250814@absl@@PEBU12345@@std@@YAXAEBQEBUTransition@cctz@time_internal@lts_20250814@absl@@0@Z
	??$_Adl_verify_range@PEB_WPEB_W@std@@YAXAEBQEB_W0@Z
	??$_Adl_verify_range@V?$_Array_iterator@E$0GG@@std@@V12@@std@@YAXAEBV?$_Array_iterator@E$0GG@@0@0@Z
	??$_Adl_verify_range@V?$_Deque_unchecked_const_iterator@V?$_Deque_val@U?$_Deque_simple_types@UPrefixCrc@CrcCordState@crc_internal@lts_20250814@absl@@@std@@@std@@@std@@V12@@std@@YAXAEBV?$_Deque_unchecked_const_iterator@V?$_Deque_val@U?$_Deque_simple_types@UPrefixCrc@CrcCordState@crc_internal@lts_20250814@absl@@@std@@@std@@@0@0@Z
	??$_Adl_verify_range@V?$_String_iterator@V?$_String_val@U?$_Simple_types@D@std@@@std@@@std@@V12@@std@@YAXAEBV?$_String_iterator@V?$_String_val@U?$_Simple_types@D@std@@@std@@@0@0@Z
	??$_Adl_verify_range@V?$_String_view_iterator@U?$char_traits@D@std@@@std@@V12@@std@@YAXAEBV?$_String_view_iterator@U?$char_traits@D@std@@@0@0@Z
	??$_Adl_verify_range@V?$_Vector_iterator@V?$_Vector_val@U?$_Simple_types@N@std@@@std@@@std@@V12@@std@@YAXAEBV?$_Vector_iterator@V?$_Vector_val@U?$_Simple_types@N@std@@@std@@@0@0@Z
	??$_Adl_verify_range@V?$_Vector_iterator@V?$_Vector_val@U?$_Simple_types@PEAVLogSink@lts_20250814@absl@@@std@@@std@@@std@@V12@@std@@YAXAEBV?$_Vector_iterator@V?$_Vector_val@U?$_Simple_types@PEAVLogSink@lts_20250814@absl@@@std@@@std@@@0@0@Z
	??$_Adl_verify_range@V?$reverse_iterator@V?$_String_view_iterator@U?$char_traits@D@std@@@std@@@std@@V12@@std@@YAXAEBV?$reverse_iterator@V?$_String_view_iterator@U?$char_traits@D@std@@@std@@@0@0@Z
	??$_Alloc_proxy@V?$allocator@U_Container_proxy@std@@@std@@@_Container_base12@std@@QEAAX$$QEAV?$allocator@U_Container_proxy@std@@@1@@Z
	??$_Allocate@$0BA@U_Default_allocate_traits@std@@@std@@YAPEAX_K@Z
	??$_Allocate_at_least_helper@V?$allocator@D@std@@@std@@YAPEADAEAV?$allocator@D@0@AEA_K@Z
	??$_Allocate_at_least_helper@V?$allocator@I@std@@@std@@YAPEAIAEAV?$allocator@I@0@AEA_K@Z
	??$_Allocate_at_least_helper@V?$allocator@PEAPEBVImpl@time_zone@cctz@time_internal@lts_20250814@absl@@@std@@@std@@YAPEAPEAPEBVImpl@time_zone@cctz@time_internal@lts_20250814@absl@@AEAV?$allocator@PEAPEBVImpl@time_zone@cctz@time_internal@lts_20250814@absl@@@0@AEA_K@Z
	??$_Allocate_at_least_helper@V?$allocator@PEAUPrefixCrc@CrcCordState@crc_internal@lts_20250814@absl@@@std@@@std@@YAPEAPEAUPrefixCrc@CrcCordState@crc_internal@lts_20250814@absl@@AEAV?$allocator@PEAUPrefixCrc@CrcCordState@crc_internal@lts_20250814@absl@@@0@AEA_K@Z
	??$_Allocate_at_least_helper@V?$allocator@PEAVCordzHandle@cord_internal@lts_20250814@absl@@@std@@@std@@YAPEAPEAVCordzHandle@cord_internal@lts_20250814@absl@@AEAV?$allocator@PEAVCordzHandle@cord_internal@lts_20250814@absl@@@0@AEA_K@Z
	??$_Allocate_at_least_helper@V?$allocator@PEAVLogSink@lts_20250814@absl@@@std@@@std@@YAPEAPEAVLogSink@lts_20250814@absl@@AEAV?$allocator@PEAVLogSink@lts_20250814@absl@@@0@AEA_K@Z
	??$_Allocate_at_least_helper@V?$allocator@PEBVCordzHandle@cord_internal@lts_20250814@absl@@@std@@@std@@YAPEAPEBVCordzHandle@cord_internal@lts_20250814@absl@@AEAV?$allocator@PEBVCordzHandle@cord_internal@lts_20250814@absl@@@0@AEA_K@Z
	??$_Allocate_at_least_helper@V?$allocator@U?$pair@N_K@std@@@std@@@std@@YAPEAU?$pair@N_K@0@AEAV?$allocator@U?$pair@N_K@std@@@0@AEA_K@Z
	??$_Allocate_at_least_helper@V?$allocator@U?$pair@V?$basic_string_view@DU?$char_traits@D@std@@@std@@H@std@@@std@@@std@@YAPEAU?$pair@V?$basic_string_view@DU?$char_traits@D@std@@@std@@H@0@AEAV?$allocator@U?$pair@V?$basic_string_view@DU?$char_traits@D@std@@@std@@H@std@@@0@AEA_K@Z
	??$_Allocate_at_least_helper@V?$allocator@U?$pair@W4StringId@debugging_internal@lts_20250814@absl@@_J@std@@@std@@@std@@YAPEAU?$pair@W4StringId@debugging_internal@lts_20250814@absl@@_J@0@AEAV?$allocator@U?$pair@W4StringId@debugging_internal@lts_20250814@absl@@_J@std@@@0@AEA_K@Z
	??$_Allocate_at_least_helper@V?$allocator@UConversionItem@ParsedFormatBase@str_format_internal@lts_20250814@absl@@@std@@@std@@YAPEAUConversionItem@ParsedFormatBase@str_format_internal@lts_20250814@absl@@AEAV?$allocator@UConversionItem@ParsedFormatBase@str_format_internal@lts_20250814@absl@@@0@AEA_K@Z
	??$_Allocate_at_least_helper@V?$allocator@UMapping@ProfileBuilder@debugging_internal@lts_20250814@absl@@@std@@@std@@YAPEAUMapping@ProfileBuilder@debugging_internal@lts_20250814@absl@@AEAV?$allocator@UMapping@ProfileBuilder@debugging_internal@lts_20250814@absl@@@0@AEA_K@Z
	??$_Allocate_at_least_helper@V?$allocator@UTransition@cctz@time_internal@lts_20250814@absl@@@std@@@std@@YAPEAUTransition@cctz@time_internal@lts_20250814@absl@@AEAV?$allocator@UTransition@cctz@time_internal@lts_20250814@absl@@@0@AEA_K@Z
	??$_Allocate_at_least_helper@V?$allocator@UTransitionType@cctz@time_internal@lts_20250814@absl@@@std@@@std@@YAPEAUTransitionType@cctz@time_internal@lts_20250814@absl@@AEAV?$allocator@UTransitionType@cctz@time_internal@lts_20250814@absl@@@0@AEA_K@Z
	??$_Allocate_at_least_helper@V?$allocator@UViableSubstitution@strings_internal@lts_20250814@absl@@@std@@@std@@YAPEAUViableSubstitution@strings_internal@lts_20250814@absl@@AEAV?$allocator@UViableSubstitution@strings_internal@lts_20250814@absl@@@0@AEA_K@Z
	??$_Allocate_at_least_helper@V?$allocator@V?$basic_string@DU?$char_traits@D@std@@V?$allocator@D@2@@std@@@std@@@std@@YAPEAV?$basic_string@DU?$char_traits@D@std@@V?$allocator@D@2@@0@AEAV?$allocator@V?$basic_string@DU?$char_traits@D@std@@V?$allocator@D@2@@std@@@0@AEA_K@Z
	??$_Allocate_at_least_helper@V?$allocator@V?$basic_string_view@DU?$char_traits@D@std@@@std@@@std@@@std@@YAPEAV?$basic_string_view@DU?$char_traits@D@std@@@0@AEAV?$allocator@V?$basic_string_view@DU?$char_traits@D@std@@@std@@@0@AEA_K@Z
	??$_Allocate_at_least_helper@V?$allocator@V?$function@$$A6AXXZ@std@@@std@@@std@@YAPEAV?$function@$$A6AXXZ@0@AEAV?$allocator@V?$function@$$A6AXXZ@std@@@0@AEA_K@Z
	??$_Allocate_at_least_helper@V?$allocator@_K@std@@@std@@YAPEA_KAEAV?$allocator@_K@0@AEA_K@Z
	??$_Allocate_for_capacity@$0A@@?$basic_string@DU?$char_traits@D@std@@V?$allocator@D@2@@std@@CAPEADAEAV?$allocator@D@1@AEA_K@Z
	??$_Allocate_manually_vector_aligned@U_Default_allocate_traits@std@@@std@@YAPEAX_K@Z
	??$_Assign@V?$basic_string@DU?$char_traits@D@std@@V?$allocator@D@2@@std@@@?$_Optional_construct_base@V?$basic_string@DU?$char_traits@D@std@@V?$allocator@D@2@@std@@@std@@QEAAX$$QEAV?$basic_string@DU?$char_traits@D@std@@V?$allocator@D@2@@1@@Z
	??$_Assign_from@U?$_Optional_construct_base@V?$basic_string@DU?$char_traits@D@std@@V?$allocator@D@2@@std@@@std@@@?$_Optional_construct_base@V?$basic_string@DU?$char_traits@D@std@@V?$allocator@D@2@@std@@@std@@QEAAX$$QEAU01@@Z
	??$_Assign_range@V?$_Deque_unchecked_const_iterator@V?$_Deque_val@U?$_Deque_simple_types@UPrefixCrc@CrcCordState@crc_internal@lts_20250814@absl@@@std@@@std@@@std@@V12@@?$deque@UPrefixCrc@CrcCordState@crc_internal@lts_20250814@absl@@V?$allocator@UPrefixCrc@CrcCordState@crc_internal@lts_20250814@absl@@@std@@@std@@AEAAXV?$_Deque_unchecked_const_iterator@V?$_Deque_val@U?$_Deque_simple_types@UPrefixCrc@CrcCordState@crc_internal@lts_20250814@absl@@@std@@@std@@@1@V21@@Z
	??$_Atomic_address_as@DU?$_Atomic_padded@_N@std@@@std@@YAPECDAEAU?$_Atomic_padded@_N@0@@Z
	??$_Atomic_address_as@DU?$_Atomic_padded@_N@std@@@std@@YAPEDDAEBU?$_Atomic_padded@_N@0@@Z
	??$_Atomic_address_as@HU?$_Atomic_padded@H@std@@@std@@YAPECHAEAU?$_Atomic_padded@H@0@@Z
	??$_Atomic_address_as@HU?$_Atomic_padded@H@std@@@std@@YAPEDHAEBU?$_Atomic_padded@H@0@@Z
	??$_Atomic_address_as@HU?$_Atomic_padded@I@std@@@std@@YAPECHAEAU?$_Atomic_padded@I@0@@Z
	??$_Atomic_address_as@HU?$_Atomic_padded@I@std@@@std@@YAPEDHAEBU?$_Atomic_padded@I@0@@Z
	??$_Atomic_address_as@HU?$_Atomic_padded@W4OnDeadlockCycle@lts_20250814@absl@@@std@@@std@@YAPECHAEAU?$_Atomic_padded@W4OnDeadlockCycle@lts_20250814@absl@@@0@@Z
	??$_Atomic_address_as@HU?$_Atomic_padded@W4OnDeadlockCycle@lts_20250814@absl@@@std@@@std@@YAPEDHAEBU?$_Atomic_padded@W4OnDeadlockCycle@lts_20250814@absl@@@0@@Z
	??$_Atomic_address_as@HU?$_Atomic_padded@W4State@PerThreadSynch@base_internal@lts_20250814@absl@@@std@@@std@@YAPECHAEAU?$_Atomic_padded@W4State@PerThreadSynch@base_internal@lts_20250814@absl@@@0@@Z
	??$_Atomic_address_as@HU?$_Atomic_padded@W4State@PerThreadSynch@base_internal@lts_20250814@absl@@@std@@@std@@YAPEDHAEBU?$_Atomic_padded@W4State@PerThreadSynch@base_internal@lts_20250814@absl@@@0@@Z
	??$_Atomic_address_as@JU?$_Atomic_padded@H@std@@@std@@YAPECJAEAU?$_Atomic_padded@H@0@@Z
	??$_Atomic_address_as@JU?$_Atomic_padded@I@std@@@std@@YAPECJAEAU?$_Atomic_padded@I@0@@Z
	??$_Atomic_address_as@_JU?$_Atomic_padded@P6AHPEAPEAXPEAHHHPEBX1@Z@std@@@std@@YAPEC_JAEAU?$_Atomic_padded@P6AHPEAPEAXPEAHHHPEBX1@Z@0@@Z
	??$_Atomic_address_as@_JU?$_Atomic_padded@P6AHPEAPEAXPEAHHHPEBX1@Z@std@@@std@@YAPED_JAEBU?$_Atomic_padded@P6AHPEAPEAXPEAHHHPEBX1@Z@0@@Z
	??$_Atomic_address_as@_JU?$_Atomic_padded@P6AHPEB_SHPEBDPEA_SHPEAW4UErrorCode@@@Z@std@@@std@@YAPEC_JAEAU?$_Atomic_padded@P6AHPEB_SHPEBDPEA_SHPEAW4UErrorCode@@@Z@0@@Z
	??$_Atomic_address_as@_JU?$_Atomic_padded@P6AHPEB_SHPEBDPEA_SHPEAW4UErrorCode@@@Z@std@@@std@@YAPED_JAEBU?$_Atomic_padded@P6AHPEB_SHPEBDPEA_SHPEAW4UErrorCode@@@Z@0@@Z
	??$_Atomic_address_as@_JU?$_Atomic_padded@P6AXAEBUHashtablezInfo@container_internal@lts_20250814@absl@@@Z@std@@@std@@YAPED_JAEBU?$_Atomic_padded@P6AXAEBUHashtablezInfo@container_internal@lts_20250814@absl@@@Z@0@@Z
	??$_Atomic_address_as@_JU?$_Atomic_padded@P6AXXZ@std@@@std@@YAPEC_JAEAU?$_Atomic_padded@P6AXXZ@0@@Z
	??$_Atomic_address_as@_JU?$_Atomic_padded@P6AXXZ@std@@@std@@YAPED_JAEBU?$_Atomic_padded@P6AXXZ@0@@Z
	??$_Atomic_address_as@_JU?$_Atomic_padded@P6A_JXZ@std@@@std@@YAPEC_JAEAU?$_Atomic_padded@P6A_JXZ@0@@Z
	??$_Atomic_address_as@_JU?$_Atomic_padded@P6A_JXZ@std@@@std@@YAPED_JAEBU?$_Atomic_padded@P6A_JXZ@0@@Z
	??$_Atomic_address_as@_JU?$_Atomic_padded@PEAUArena@LowLevelAlloc@base_internal@lts_20250814@absl@@@std@@@std@@YAPEC_JAEAU?$_Atomic_padded@PEAUArena@LowLevelAlloc@base_internal@lts_20250814@absl@@@0@@Z
	??$_Atomic_address_as@_JU?$_Atomic_padded@PEAUArena@LowLevelAlloc@base_internal@lts_20250814@absl@@@std@@@std@@YAPED_JAEBU?$_Atomic_padded@PEAUArena@LowLevelAlloc@base_internal@lts_20250814@absl@@@0@@Z
	??$_Atomic_address_as@_JU?$_Atomic_padded@PEAUHashtablezInfo@container_internal@lts_20250814@absl@@@std@@@std@@YAPEC_JAEAU?$_Atomic_padded@PEAUHashtablezInfo@container_internal@lts_20250814@absl@@@0@@Z
	??$_Atomic_address_as@_JU?$_Atomic_padded@PEAUHashtablezInfo@container_internal@lts_20250814@absl@@@std@@@std@@YAPED_JAEBU?$_Atomic_padded@PEAUHashtablezInfo@container_internal@lts_20250814@absl@@@0@@Z
	??$_Atomic_address_as@_JU?$_Atomic_padded@PEAVCordzHandle@cord_internal@lts_20250814@absl@@@std@@@std@@YAPEC_JAEAU?$_Atomic_padded@PEAVCordzHandle@cord_internal@lts_20250814@absl@@@0@@Z
	??$_Atomic_address_as@_JU?$_Atomic_padded@PEAVCordzHandle@cord_internal@lts_20250814@absl@@@std@@@std@@YAPED_JAEBU?$_Atomic_padded@PEAVCordzHandle@cord_internal@lts_20250814@absl@@@0@@Z
	??$_Atomic_address_as@_JU?$_Atomic_padded@PEAVCordzInfo@cord_internal@lts_20250814@absl@@@std@@@std@@YAPEC_JAEAU?$_Atomic_padded@PEAVCordzInfo@cord_internal@lts_20250814@absl@@@0@@Z
	??$_Atomic_address_as@_JU?$_Atomic_padded@PEAVCordzInfo@cord_internal@lts_20250814@absl@@@std@@@std@@YAPED_JAEBU?$_Atomic_padded@PEAVCordzInfo@cord_internal@lts_20250814@absl@@@0@@Z
	??$_Atomic_address_as@_JU?$_Atomic_padded@PEAVTimeZone@lts_20250814@absl@@@std@@@std@@YAPEC_JAEAU?$_Atomic_padded@PEAVTimeZone@lts_20250814@absl@@@0@@Z
	??$_Atomic_address_as@_JU?$_Atomic_padded@PEAVTimeZone@lts_20250814@absl@@@std@@@std@@YAPED_JAEBU?$_Atomic_padded@PEAVTimeZone@lts_20250814@absl@@@0@@Z
	??$_Atomic_address_as@_JU?$_Atomic_padded@PEAVVLogSite@log_internal@lts_20250814@absl@@@std@@@std@@YAPEC_JAEAU?$_Atomic_padded@PEAVVLogSite@log_internal@lts_20250814@absl@@@0@@Z
	??$_Atomic_address_as@_JU?$_Atomic_padded@PEAVVLogSite@log_internal@lts_20250814@absl@@@std@@@std@@YAPED_JAEBU?$_Atomic_padded@PEAVVLogSite@log_internal@lts_20250814@absl@@@0@@Z
	??$_Atomic_address_as@_JU?$_Atomic_padded@PEBD@std@@@std@@YAPEC_JAEAU?$_Atomic_padded@PEBD@0@@Z
	??$_Atomic_address_as@_JU?$_Atomic_padded@PEBD@std@@@std@@YAPED_JAEBU?$_Atomic_padded@PEBD@0@@Z
	??$_Atomic_address_as@_JU?$_Atomic_padded@PEBV?$basic_string@DU?$char_traits@D@std@@V?$allocator@D@2@@std@@@std@@@std@@YAPEC_JAEAU?$_Atomic_padded@PEBV?$basic_string@DU?$char_traits@D@std@@V?$allocator@D@2@@std@@@0@@Z
	??$_Atomic_address_as@_JU?$_Atomic_padded@_J@std@@@std@@YAPEC_JAEAU?$_Atomic_padded@_J@0@@Z
	??$_Atomic_address_as@_JU?$_Atomic_padded@_J@std@@@std@@YAPED_JAEBU?$_Atomic_padded@_J@0@@Z
	??$_Atomic_address_as@_JU?$_Atomic_padded@_K@std@@@std@@YAPEC_JAEAU?$_Atomic_padded@_K@0@@Z
	??$_Atomic_address_as@_JU?$_Atomic_padded@_K@std@@@std@@YAPED_JAEBU?$_Atomic_padded@_K@0@@Z
	??$_Atomic_reinterpret_as@D_N@std@@YADAEB_N@Z
	??$_Atomic_reinterpret_as@HH@std@@YAHAEBH@Z
	??$_Atomic_reinterpret_as@HI@std@@YAHAEBI@Z
	??$_Atomic_reinterpret_as@HW4OnDeadlockCycle@lts_20250814@absl@@@std@@YAHAEBW4OnDeadlockCycle@lts_20250814@absl@@@Z
	??$_Atomic_reinterpret_as@HW4State@PerThreadSynch@base_internal@lts_20250814@absl@@@std@@YAHAEBW4State@PerThreadSynch@base_internal@lts_20250814@absl@@@Z
	??$_Atomic_reinterpret_as@JH@std@@YAJAEBH@Z
	??$_Atomic_reinterpret_as@JI@std@@YAJAEBI@Z
	??$_Atomic_reinterpret_as@_JP6AHPEAPEAXPEAHHHPEBX1@Z@std@@YA_JAEBQ6AHPEAPEAXPEAHHHPEBX1@Z@Z
	??$_Atomic_reinterpret_as@_JP6AHPEB_SHPEBDPEA_SHPEAW4UErrorCode@@@Z@std@@YA_JAEBQ6AHPEB_SHPEBDPEA_SHPEAW4UErrorCode@@@Z@Z
	??$_Atomic_reinterpret_as@_JP6AXXZ@std@@YA_JAEBQ6AXXZ@Z
	??$_Atomic_reinterpret_as@_JP6A_JXZ@std@@YA_JAEBQ6A_JXZ@Z
	??$_Atomic_reinterpret_as@_JPEAUArena@LowLevelAlloc@base_internal@lts_20250814@absl@@@std@@YA_JAEBQEAUArena@LowLevelAlloc@base_internal@lts_20250814@absl@@@Z
	??$_Atomic_reinterpret_as@_JPEAUHashtablezInfo@container_internal@lts_20250814@absl@@@std@@YA_JAEBQEAUHashtablezInfo@container_internal@lts_20250814@absl@@@Z
	??$_Atomic_reinterpret_as@_JPEAVCordzHandle@cord_internal@lts_20250814@absl@@@std@@YA_JAEBQEAVCordzHandle@cord_internal@lts_20250814@absl@@@Z
	??$_Atomic_reinterpret_as@_JPEAVCordzInfo@cord_internal@lts_20250814@absl@@@std@@YA_JAEBQEAVCordzInfo@cord_internal@lts_20250814@absl@@@Z
	??$_Atomic_reinterpret_as@_JPEAVTimeZone@lts_20250814@absl@@@std@@YA_JAEBQEAVTimeZone@lts_20250814@absl@@@Z
	??$_Atomic_reinterpret_as@_JPEAVVLogSite@log_internal@lts_20250814@absl@@@std@@YA_JAEBQEAVVLogSite@log_internal@lts_20250814@absl@@@Z
	??$_Atomic_reinterpret_as@_JPEBD@std@@YA_JAEBQEBD@Z
	??$_Atomic_reinterpret_as@_JPEBV?$basic_string@DU?$char_traits@D@std@@V?$allocator@D@2@@std@@@std@@YA_JAEBQEBV?$basic_string@DU?$char_traits@D@std@@V?$allocator@D@2@@0@@Z
	??$_Atomic_reinterpret_as@_J_J@std@@YA_JAEB_J@Z
	??$_Atomic_reinterpret_as@_J_K@std@@YA_JAEB_K@Z
	??$_Clamped_rel_time_ms_count@V?$duration@_JU?$ratio@$00$0DLJKMKAA@@std@@@chrono@std@@@std@@YA?AU_Clamped_rel_time_ms_count_result@0@AEBV?$duration@_JU?$ratio@$00$0DLJKMKAA@@std@@@chrono@0@@Z
	??$_Clamped_rel_time_ms_count@V?$duration@_JU?$ratio@$00$0JIJGIA@@std@@@chrono@std@@@std@@YA?AU_Clamped_rel_time_ms_count_result@0@AEBV?$duration@_JU?$ratio@$00$0JIJGIA@@std@@@chrono@0@@Z
	??$_Construct@$00PEBD@?$basic_string@DU?$char_traits@D@std@@V?$allocator@D@2@@std@@AEAAXQEBD_K@Z
	??$_Construct@$01PEBD@?$basic_string@DU?$char_traits@D@std@@V?$allocator@D@2@@std@@AEAAXQEBD_K@Z
	??$_Construct@$0A@D@?$basic_string@DU?$char_traits@D@std@@V?$allocator@D@2@@std@@AEAAXD_K@Z
	??$_Construct@PEAI@seed_seq@std@@AEAAXPEAI0@Z
	??$_Construct@V?$basic_string@DU?$char_traits@D@std@@V?$allocator@D@2@@std@@@?$_Optional_construct_base@V?$basic_string@DU?$char_traits@D@std@@V?$allocator@D@2@@std@@@std@@QEAAAEAV?$basic_string@DU?$char_traits@D@std@@V?$allocator@D@2@@1@$$QEAV21@@Z
	??$_Construct_in_place@IAEBI@std@@YAXAEAIAEBI@Z
	??$_Construct_in_place@PEADAEAPEAD@std@@YAXAEAPEAD0@Z
	??$_Construct_in_place@PEADAEBQEAD@std@@YAXAEAPEADAEBQEAD@Z
	??$_Construct_in_place@PEAU?$_List_node@HPEAX@std@@AEAPEAU12@@std@@YAXAEAPEAU?$_List_node@HPEAX@0@0@Z
	??$_Construct_in_place@PEAU?$_List_node@HPEAX@std@@AEBQEAU12@@std@@YAXAEAPEAU?$_List_node@HPEAX@0@AEBQEAU10@@Z
	??$_Construct_in_place@PEAU?$_List_node@PEBUCordRep@cord_internal@lts_20250814@absl@@PEAX@std@@AEAPEAU12@@std@@YAXAEAPEAU?$_List_node@PEBUCordRep@cord_internal@lts_20250814@absl@@PEAX@0@0@Z
	??$_Construct_in_place@PEAU?$_List_node@PEBUCordRep@cord_internal@lts_20250814@absl@@PEAX@std@@AEBQEAU12@@std@@YAXAEAPEAU?$_List_node@PEBUCordRep@cord_internal@lts_20250814@absl@@PEAX@0@AEBQEAU10@@Z
	??$_Construct_in_place@PEAU?$_List_node@U?$pair@$$CBV?$basic_string@DU?$char_traits@D@std@@V?$allocator@D@2@@std@@PEBVImpl@time_zone@cctz@time_internal@lts_20250814@absl@@@std@@PEAX@std@@AEAPEAU12@@std@@YAXAEAPEAU?$_List_node@U?$pair@$$CBV?$basic_string@DU?$char_traits@D@std@@V?$allocator@D@2@@std@@PEBVImpl@time_zone@cctz@time_internal@lts_20250814@absl@@@std@@PEAX@0@0@Z
	??$_Construct_in_place@PEAU?$_List_node@U?$pair@$$CBV?$basic_string@DU?$char_traits@D@std@@V?$allocator@D@2@@std@@PEBVImpl@time_zone@cctz@time_internal@lts_20250814@absl@@@std@@PEAX@std@@AEBQEAU12@@std@@YAXAEAPEAU?$_List_node@U?$pair@$$CBV?$basic_string@DU?$char_traits@D@std@@V?$allocator@D@2@@std@@PEBVImpl@time_zone@cctz@time_internal@lts_20250814@absl@@@std@@PEAX@0@AEBQEAU10@@Z
	??$_Construct_in_place@PEAVCordzHandle@cord_internal@lts_20250814@absl@@AEBQEAV1234@@std@@YAXAEAPEAVCordzHandle@cord_internal@lts_20250814@absl@@AEBQEAV1234@@Z
	??$_Construct_in_place@PEAVLogSink@lts_20250814@absl@@AEBQEAV123@@std@@YAXAEAPEAVLogSink@lts_20250814@absl@@AEBQEAV123@@Z
	??$_Construct_in_place@PEBVCordzHandle@cord_internal@lts_20250814@absl@@AEBQEBV1234@@std@@YAXAEAPEBVCordzHandle@cord_internal@lts_20250814@absl@@AEBQEBV1234@@Z
	??$_Construct_in_place@U?$pair@N_K@std@@AEBNH@std@@YAXAEAU?$pair@N_K@0@AEBN$$QEAH@Z
	??$_Construct_in_place@U?$pair@V?$basic_string_view@DU?$char_traits@D@std@@@std@@H@std@@AEBV?$basic_string_view@DU?$char_traits@D@std@@@2@AEAH@std@@YAXAEAU?$pair@V?$basic_string_view@DU?$char_traits@D@std@@@std@@H@0@AEBV?$basic_string_view@DU?$char_traits@D@std@@@0@AEAH@Z
	??$_Construct_in_place@U?$pair@W4StringId@debugging_internal@lts_20250814@absl@@_J@std@@AEAW4StringId@debugging_internal@lts_20250814@absl@@_J@std@@YAXAEAU?$pair@W4StringId@debugging_internal@lts_20250814@absl@@_J@0@AEAW4StringId@debugging_internal@lts_20250814@absl@@$$QEA_J@Z
	??$_Construct_in_place@UConversionItem@ParsedFormatBase@str_format_internal@lts_20250814@absl@@U12345@@std@@YAXAEAUConversionItem@ParsedFormatBase@str_format_internal@lts_20250814@absl@@$$QEAU12345@@Z
	??$_Construct_in_place@UMapping@ProfileBuilder@debugging_internal@lts_20250814@absl@@U12345@@std@@YAXAEAUMapping@ProfileBuilder@debugging_internal@lts_20250814@absl@@$$QEAU12345@@Z
	??$_Construct_in_place@UTransition@cctz@time_internal@lts_20250814@absl@@$$V@std@@YAXAEAUTransition@cctz@time_internal@lts_20250814@absl@@@Z
	??$_Construct_in_place@UTransition@cctz@time_internal@lts_20250814@absl@@AEBU12345@@std@@YAXAEAUTransition@cctz@time_internal@lts_20250814@absl@@AEBU12345@@Z
	??$_Construct_in_place@UTransitionType@cctz@time_internal@lts_20250814@absl@@$$V@std@@YAXAEAUTransitionType@cctz@time_internal@lts_20250814@absl@@@Z
	??$_Construct_in_place@U_Container_proxy@std@@PEAU_Container_base12@2@@std@@YAXAEAU_Container_proxy@0@$$QEAPEAU_Container_base12@0@@Z
	??$_Construct_in_place@V?$_List_unchecked_const_iterator@V?$_List_val@U?$_List_simple_types@H@std@@@std@@U_Iterator_base0@2@@std@@AEBV12@@std@@YAXAEAV?$_List_unchecked_const_iterator@V?$_List_val@U?$_List_simple_types@H@std@@@std@@U_Iterator_base0@2@@0@AEBV10@@Z
	??$_Construct_in_place@V?$_List_unchecked_const_iterator@V?$_List_val@U?$_List_simple_types@PEBUCordRep@cord_internal@lts_20250814@absl@@@std@@@std@@U_Iterator_base0@2@@std@@AEBV12@@std@@YAXAEAV?$_List_unchecked_const_iterator@V?$_List_val@U?$_List_simple_types@PEBUCordRep@cord_internal@lts_20250814@absl@@@std@@@std@@U_Iterator_base0@2@@0@AEBV10@@Z
	??$_Construct_in_place@V?$_List_unchecked_iterator@V?$_List_val@U?$_List_simple_types@U?$pair@$$CBV?$basic_string@DU?$char_traits@D@std@@V?$allocator@D@2@@std@@PEBVImpl@time_zone@cctz@time_internal@lts_20250814@absl@@@std@@@std@@@std@@@std@@AEBV12@@std@@YAXAEAV?$_List_unchecked_iterator@V?$_List_val@U?$_List_simple_types@U?$pair@$$CBV?$basic_string@DU?$char_traits@D@std@@V?$allocator@D@2@@std@@PEBVImpl@time_zone@cctz@time_internal@lts_20250814@absl@@@std@@@std@@@std@@@0@AEBV10@@Z
	??$_Construct_in_place@V?$basic_string@DU?$char_traits@D@std@@V?$allocator@D@2@@std@@V12@@std@@YAXAEAV?$basic_string@DU?$char_traits@D@std@@V?$allocator@D@2@@0@$$QEAV10@@Z
	??$_Construct_in_place@V?$function@$$A6AXXZ@std@@V12@@std@@YAXAEAV?$function@$$A6AXXZ@0@$$QEAV10@@Z
	??$_Construct_in_place@_KAEB_K@std@@YAXAEA_KAEB_K@Z
	??$_Construct_in_place@_K_K@std@@YAXAEA_K$$QEA_K@Z
	??$_Construct_in_place_by_deref@PEAPEBVImpl@time_zone@cctz@time_internal@lts_20250814@absl@@PEAPEAPEBV123456@@std@@YAXAEAPEAPEBVImpl@time_zone@cctz@time_internal@lts_20250814@absl@@AEAPEAPEAPEBV123456@@Z
	??$_Construct_in_place_by_deref@PEAUPrefixCrc@CrcCordState@crc_internal@lts_20250814@absl@@PEAPEAU12345@@std@@YAXAEAPEAUPrefixCrc@CrcCordState@crc_internal@lts_20250814@absl@@AEAPEAPEAU12345@@Z
	??$_Construct_n@$$V@?$vector@DV?$allocator@D@std@@@std@@AEAAX_K@Z
	??$_Construct_n@$$V@?$vector@V?$basic_string_view@DU?$char_traits@D@std@@@std@@V?$allocator@V?$basic_string_view@DU?$char_traits@D@std@@@std@@@2@@std@@AEAAX_K@Z
	??$_Convert_size@_K_K@std@@YA_K_K@Z
	??$_Copy_backward_memmove@PEAHPEAH@std@@YAPEAHPEAH00@Z
	??$_Copy_backward_memmove@PEAIPEAI@std@@YAPEAIPEAI00@Z
	??$_Copy_backward_memmove@PEAUTransition@cctz@time_internal@lts_20250814@absl@@PEAU12345@@std@@YAPEAUTransition@cctz@time_internal@lts_20250814@absl@@PEAU12345@00@Z
	??$_Copy_backward_memmove@PEAUTransitionType@cctz@time_internal@lts_20250814@absl@@PEAU12345@@std@@YAPEAUTransitionType@cctz@time_internal@lts_20250814@absl@@PEAU12345@00@Z
	??$_Copy_backward_unchecked@PEAIPEAI@std@@YAPEAIPEAI00@Z
	??$_Copy_memmove@PEAHPEAH@std@@YAPEAHPEAH00@Z
	??$_Copy_memmove@PEAIPEAI@std@@YAPEAIPEAI00@Z
	??$_Copy_memmove@PEAPEAPEBVImpl@time_zone@cctz@time_internal@lts_20250814@absl@@PEAPEAPEBV123456@@std@@YAPEAPEAPEBVImpl@time_zone@cctz@time_internal@lts_20250814@absl@@PEAPEAPEBV123456@00@Z
	??$_Copy_memmove@PEAPEAUPrefixCrc@CrcCordState@crc_internal@lts_20250814@absl@@PEAPEAU12345@@std@@YAPEAPEAUPrefixCrc@CrcCordState@crc_internal@lts_20250814@absl@@PEAPEAU12345@00@Z
	??$_Copy_memmove@PEAPEAVCordzHandle@cord_internal@lts_20250814@absl@@PEAPEAV1234@@std@@YAPEAPEAVCordzHandle@cord_internal@lts_20250814@absl@@PEAPEAV1234@00@Z
	??$_Copy_memmove@PEAPEAVLogSink@lts_20250814@absl@@PEAPEAV123@@std@@YAPEAPEAVLogSink@lts_20250814@absl@@PEAPEAV123@00@Z
	??$_Copy_memmove@PEAPEBVCordzHandle@cord_internal@lts_20250814@absl@@PEAPEBV1234@@std@@YAPEAPEBVCordzHandle@cord_internal@lts_20250814@absl@@PEAPEBV1234@00@Z
	??$_Copy_memmove@PEAU?$pair@N_K@std@@PEAU12@@std@@YAPEAU?$pair@N_K@0@PEAU10@00@Z
	??$_Copy_memmove@PEAU?$pair@V?$basic_string_view@DU?$char_traits@D@std@@@std@@H@std@@PEAU12@@std@@YAPEAU?$pair@V?$basic_string_view@DU?$char_traits@D@std@@@std@@H@0@PEAU10@00@Z
	??$_Copy_memmove@PEAU?$pair@W4StringId@debugging_internal@lts_20250814@absl@@_J@std@@PEAU12@@std@@YAPEAU?$pair@W4StringId@debugging_internal@lts_20250814@absl@@_J@0@PEAU10@00@Z
	??$_Copy_memmove@PEAUConversionItem@ParsedFormatBase@str_format_internal@lts_20250814@absl@@PEAU12345@@std@@YAPEAUConversionItem@ParsedFormatBase@str_format_internal@lts_20250814@absl@@PEAU12345@00@Z
	??$_Copy_memmove@PEAUTransition@cctz@time_internal@lts_20250814@absl@@PEAU12345@@std@@YAPEAUTransition@cctz@time_internal@lts_20250814@absl@@PEAU12345@00@Z
	??$_Copy_memmove@PEAUTransitionType@cctz@time_internal@lts_20250814@absl@@PEAU12345@@std@@YAPEAUTransitionType@cctz@time_internal@lts_20250814@absl@@PEAU12345@00@Z
	??$_Copy_memmove@PEAUViableSubstitution@strings_internal@lts_20250814@absl@@PEAU1234@@std@@YAPEAUViableSubstitution@strings_internal@lts_20250814@absl@@PEAU1234@00@Z
	??$_Copy_memmove@PEA_KPEA_K@std@@YAPEA_KPEA_K00@Z
	??$_Copy_memmove@PEBDPEAD@std@@YAPEADPEBD0PEAD@Z
	??$_Copy_memmove@PEBIPEAI@std@@YAPEAIPEBI0PEAI@Z
	??$_Copy_memmove_n@PEAHPEAH@std@@YAPEAHPEAH_K0@Z
	??$_Copy_memmove_n@PEBDPEAD@std@@YAPEADPEBD_KPEAD@Z
	??$_Copy_memmove_n@PEBIPEAI@std@@YAPEAIPEBI_KPEAI@Z
	??$_Copy_memmove_tail@PEAD@std@@YAPEADQEBDQEAD_K2@Z
	??$_Copy_memmove_tail@PEAH@std@@YAPEAHQEBDQEAH_K2@Z
	??$_Copy_memmove_tail@PEAI@std@@YAPEAIQEBDQEAI_K2@Z
	??$_Copy_memmove_tail@PEAPEAPEBVImpl@time_zone@cctz@time_internal@lts_20250814@absl@@@std@@YAPEAPEAPEBVImpl@time_zone@cctz@time_internal@lts_20250814@absl@@QEBDQEAPEAPEBV123456@_K2@Z
	??$_Copy_memmove_tail@PEAPEAUPrefixCrc@CrcCordState@crc_internal@lts_20250814@absl@@@std@@YAPEAPEAUPrefixCrc@CrcCordState@crc_internal@lts_20250814@absl@@QEBDQEAPEAU12345@_K2@Z
	??$_Copy_memmove_tail@PEAPEAVCordzHandle@cord_internal@lts_20250814@absl@@@std@@YAPEAPEAVCordzHandle@cord_internal@lts_20250814@absl@@QEBDQEAPEAV1234@_K2@Z
	??$_Copy_memmove_tail@PEAPEAVLogSink@lts_20250814@absl@@@std@@YAPEAPEAVLogSink@lts_20250814@absl@@QEBDQEAPEAV123@_K2@Z
	??$_Copy_memmove_tail@PEAPEBVCordzHandle@cord_internal@lts_20250814@absl@@@std@@YAPEAPEBVCordzHandle@cord_internal@lts_20250814@absl@@QEBDQEAPEBV1234@_K2@Z
	??$_Copy_memmove_tail@PEAU?$pair@N_K@std@@@std@@YAPEAU?$pair@N_K@0@QEBDQEAU10@_K2@Z
	??$_Copy_memmove_tail@PEAU?$pair@V?$basic_string_view@DU?$char_traits@D@std@@@std@@H@std@@@std@@YAPEAU?$pair@V?$basic_string_view@DU?$char_traits@D@std@@@std@@H@0@QEBDQEAU10@_K2@Z
	??$_Copy_memmove_tail@PEAU?$pair@W4StringId@debugging_internal@lts_20250814@absl@@_J@std@@@std@@YAPEAU?$pair@W4StringId@debugging_internal@lts_20250814@absl@@_J@0@QEBDQEAU10@_K2@Z
	??$_Copy_memmove_tail@PEAUConversionItem@ParsedFormatBase@str_format_internal@lts_20250814@absl@@@std@@YAPEAUConversionItem@ParsedFormatBase@str_format_internal@lts_20250814@absl@@QEBDQEAU12345@_K2@Z
	??$_Copy_memmove_tail@PEAUTransition@cctz@time_internal@lts_20250814@absl@@@std@@YAPEAUTransition@cctz@time_internal@lts_20250814@absl@@QEBDQEAU12345@_K2@Z
	??$_Copy_memmove_tail@PEAUTransitionType@cctz@time_internal@lts_20250814@absl@@@std@@YAPEAUTransitionType@cctz@time_internal@lts_20250814@absl@@QEBDQEAU12345@_K2@Z
	??$_Copy_memmove_tail@PEAUViableSubstitution@strings_internal@lts_20250814@absl@@@std@@YAPEAUViableSubstitution@strings_internal@lts_20250814@absl@@QEBDQEAU1234@_K2@Z
	??$_Copy_memmove_tail@PEA_K@std@@YAPEA_KQEBDQEA_K_K2@Z
	??$_Copy_unchecked@PEAHPEAHPEAH@std@@YAPEAHPEAH00@Z
	??$_Copy_unchecked@PEBDPEBDPEAD@std@@YAPEADPEBD0PEAD@Z
	??$_Copy_unchecked@PEBIPEBIPEAI@std@@YAPEAIPEBI0PEAI@Z
	??$_Could_compare_equal_to_value_type@PEAPEAVLogSink@lts_20250814@absl@@PEAV123@@std@@YA_NAEBQEAVLogSink@lts_20250814@absl@@@Z
	??$_Could_compare_equal_to_value_type@PEBDD@std@@YA_NAEBD@Z
	??$_Could_compare_equal_to_value_type@PEB_W_W@std@@YA_NAEB_W@Z
	??$_Deallocate@$07@std@@YAXPEAX_K@Z
	??$_Deallocate@$0BA@@std@@YAXPEAX_K@Z
	??$_Deallocate_plain@V?$allocator@U_Container_proxy@std@@@std@@@std@@YAXAEAV?$allocator@U_Container_proxy@std@@@0@QEAU_Container_proxy@0@@Z
	??$_Delete_plain_internal@V?$allocator@U_Container_proxy@std@@@std@@@std@@YAXAEAV?$allocator@U_Container_proxy@std@@@0@QEAU_Container_proxy@0@@Z
	??$_Destroy_in_place@PEAD@std@@YAXAEAPEAD@Z
	??$_Destroy_in_place@PEAU?$_List_node@HPEAX@std@@@std@@YAXAEAPEAU?$_List_node@HPEAX@0@@Z
	??$_Destroy_in_place@PEAU?$_List_node@PEBUCordRep@cord_internal@lts_20250814@absl@@PEAX@std@@@std@@YAXAEAPEAU?$_List_node@PEBUCordRep@cord_internal@lts_20250814@absl@@PEAX@0@@Z
	??$_Destroy_in_place@PEAU?$_List_node@U?$pair@$$CBV?$basic_string@DU?$char_traits@D@std@@V?$allocator@D@2@@std@@PEBVImpl@time_zone@cctz@time_internal@lts_20250814@absl@@@std@@PEAX@std@@@std@@YAXAEAPEAU?$_List_node@U?$pair@$$CBV?$basic_string@DU?$char_traits@D@std@@V?$allocator@D@2@@std@@PEBVImpl@time_zone@cctz@time_internal@lts_20250814@absl@@@std@@PEAX@0@@Z
	??$_Destroy_in_place@PEAUPrefixCrc@CrcCordState@crc_internal@lts_20250814@absl@@@std@@YAXAEAPEAUPrefixCrc@CrcCordState@crc_internal@lts_20250814@absl@@@Z
	??$_Destroy_range@PEAPEAPEBVImpl@time_zone@cctz@time_internal@lts_20250814@absl@@PEAPEAPEBV123456@@std@@YAXPEAPEAPEBVImpl@time_zone@cctz@time_internal@lts_20250814@absl@@QEAPEAPEBV123456@@Z
	??$_Destroy_range@PEAPEAUPrefixCrc@CrcCordState@crc_internal@lts_20250814@absl@@PEAPEAU12345@@std@@YAXPEAPEAUPrefixCrc@CrcCordState@crc_internal@lts_20250814@absl@@QEAPEAU12345@@Z
	??$_Destroy_range@PEAV?$_List_unchecked_const_iterator@V?$_List_val@U?$_List_simple_types@H@std@@@std@@U_Iterator_base0@2@@std@@PEAV12@@std@@YAXPEAV?$_List_unchecked_const_iterator@V?$_List_val@U?$_List_simple_types@H@std@@@std@@U_Iterator_base0@2@@0@QEAV10@@Z
	??$_Destroy_range@PEAV?$_List_unchecked_const_iterator@V?$_List_val@U?$_List_simple_types@PEBUCordRep@cord_internal@lts_20250814@absl@@@std@@@std@@U_Iterator_base0@2@@std@@PEAV12@@std@@YAXPEAV?$_List_unchecked_const_iterator@V?$_List_val@U?$_List_simple_types@PEBUCordRep@cord_internal@lts_20250814@absl@@@std@@@std@@U_Iterator_base0@2@@0@QEAV10@@Z
	??$_Destroy_range@PEAV?$_List_unchecked_iterator@V?$_List_val@U?$_List_simple_types@U?$pair@$$CBV?$basic_string@DU?$char_traits@D@std@@V?$allocator@D@2@@std@@PEBVImpl@time_zone@cctz@time_internal@lts_20250814@absl@@@std@@@std@@@std@@@std@@PEAV12@@std@@YAXPEAV?$_List_unchecked_iterator@V?$_List_val@U?$_List_simple_types@U?$pair@$$CBV?$basic_string@DU?$char_traits@D@std@@V?$allocator@D@2@@std@@PEBVImpl@time_zone@cctz@time_internal@lts_20250814@absl@@@std@@@std@@@std@@@0@QEAV10@@Z
	??$_Destroy_range@V?$allocator@D@std@@@std@@YAXPEADQEADAEAV?$allocator@D@0@@Z
	??$_Destroy_range@V?$allocator@I@std@@@std@@YAXPEAIQEAIAEAV?$allocator@I@0@@Z
	??$_Destroy_range@V?$allocator@PEAVCordzHandle@cord_internal@lts_20250814@absl@@@std@@@std@@YAXPEAPEAVCordzHandle@cord_internal@lts_20250814@absl@@QEAPEAV1234@AEAV?$allocator@PEAVCordzHandle@cord_internal@lts_20250814@absl@@@0@@Z
	??$_Destroy_range@V?$allocator@PEAVLogSink@lts_20250814@absl@@@std@@@std@@YAXPEAPEAVLogSink@lts_20250814@absl@@QEAPEAV123@AEAV?$allocator@PEAVLogSink@lts_20250814@absl@@@0@@Z
	??$_Destroy_range@V?$allocator@PEBVCordzHandle@cord_internal@lts_20250814@absl@@@std@@@std@@YAXPEAPEBVCordzHandle@cord_internal@lts_20250814@absl@@QEAPEBV1234@AEAV?$allocator@PEBVCordzHandle@cord_internal@lts_20250814@absl@@@0@@Z
	??$_Destroy_range@V?$allocator@U?$pair@N_K@std@@@std@@@std@@YAXPEAU?$pair@N_K@0@QEAU10@AEAV?$allocator@U?$pair@N_K@std@@@0@@Z
	??$_Destroy_range@V?$allocator@U?$pair@V?$basic_string_view@DU?$char_traits@D@std@@@std@@H@std@@@std@@@std@@YAXPEAU?$pair@V?$basic_string_view@DU?$char_traits@D@std@@@std@@H@0@QEAU10@AEAV?$allocator@U?$pair@V?$basic_string_view@DU?$char_traits@D@std@@@std@@H@std@@@0@@Z
	??$_Destroy_range@V?$allocator@U?$pair@W4StringId@debugging_internal@lts_20250814@absl@@_J@std@@@std@@@std@@YAXPEAU?$pair@W4StringId@debugging_internal@lts_20250814@absl@@_J@0@QEAU10@AEAV?$allocator@U?$pair@W4StringId@debugging_internal@lts_20250814@absl@@_J@std@@@0@@Z
	??$_Destroy_range@V?$allocator@UConversionItem@ParsedFormatBase@str_format_internal@lts_20250814@absl@@@std@@@std@@YAXPEAUConversionItem@ParsedFormatBase@str_format_internal@lts_20250814@absl@@QEAU12345@AEAV?$allocator@UConversionItem@ParsedFormatBase@str_format_internal@lts_20250814@absl@@@0@@Z
	??$_Destroy_range@V?$allocator@UMapping@ProfileBuilder@debugging_internal@lts_20250814@absl@@@std@@@std@@YAXPEAUMapping@ProfileBuilder@debugging_internal@lts_20250814@absl@@QEAU12345@AEAV?$allocator@UMapping@ProfileBuilder@debugging_internal@lts_20250814@absl@@@0@@Z
	??$_Destroy_range@V?$allocator@UTransition@cctz@time_internal@lts_20250814@absl@@@std@@@std@@YAXPEAUTransition@cctz@time_internal@lts_20250814@absl@@QEAU12345@AEAV?$allocator@UTransition@cctz@time_internal@lts_20250814@absl@@@0@@Z
	??$_Destroy_range@V?$allocator@UTransitionType@cctz@time_internal@lts_20250814@absl@@@std@@@std@@YAXPEAUTransitionType@cctz@time_internal@lts_20250814@absl@@QEAU12345@AEAV?$allocator@UTransitionType@cctz@time_internal@lts_20250814@absl@@@0@@Z
	??$_Destroy_range@V?$allocator@UViableSubstitution@strings_internal@lts_20250814@absl@@@std@@@std@@YAXPEAUViableSubstitution@strings_internal@lts_20250814@absl@@QEAU1234@AEAV?$allocator@UViableSubstitution@strings_internal@lts_20250814@absl@@@0@@Z
	??$_Destroy_range@V?$allocator@V?$basic_string@DU?$char_traits@D@std@@V?$allocator@D@2@@std@@@std@@@std@@YAXPEAV?$basic_string@DU?$char_traits@D@std@@V?$allocator@D@2@@0@QEAV10@AEAV?$allocator@V?$basic_string@DU?$char_traits@D@std@@V?$allocator@D@2@@std@@@0@@Z
	??$_Destroy_range@V?$allocator@V?$basic_string_view@DU?$char_traits@D@std@@@std@@@std@@@std@@YAXPEAV?$basic_string_view@DU?$char_traits@D@std@@@0@QEAV10@AEAV?$allocator@V?$basic_string_view@DU?$char_traits@D@std@@@std@@@0@@Z
	??$_Destroy_range@V?$allocator@V?$function@$$A6AXXZ@std@@@std@@@std@@YAXPEAV?$function@$$A6AXXZ@0@QEAV10@AEAV?$allocator@V?$function@$$A6AXXZ@std@@@0@@Z
	??$_Destroy_range@V?$allocator@V?$unique_ptr@VCRCImpl@crc_internal@lts_20250814@absl@@U?$default_delete@VCRCImpl@crc_internal@lts_20250814@absl@@@std@@@std@@@std@@@std@@YAXPEAV?$unique_ptr@VCRCImpl@crc_internal@lts_20250814@absl@@U?$default_delete@VCRCImpl@crc_internal@lts_20250814@absl@@@std@@@0@QEAV10@AEAV?$allocator@V?$unique_ptr@VCRCImpl@crc_internal@lts_20250814@absl@@U?$default_delete@VCRCImpl@crc_internal@lts_20250814@absl@@@std@@@std@@@0@@Z
	??$_Destroy_range@V?$allocator@_K@std@@@std@@YAXPEA_KQEA_KAEAV?$allocator@_K@0@@Z
	??$_Dispatch2@_KUBufferSizeVisitor@?1??BufferSizeForStructuredProtoField@log_internal@lts_20250814@absl@@YA_KUStructuredProtoField@345@@Z@AEAV?$variant@V?$variant@_K_JIH_N@std@@V?$variant@_K_JN@2@V?$Span@$$CBD@lts_20250814@absl@@V?$variant@IHM@2@@std@@$00@?$_Variant_dispatcher@U?$integer_sequence@_K$0A@@std@@@std@@SA_K$$QEAUBufferSizeVisitor@?1??BufferSizeForStructuredProtoField@log_internal@lts_20250814@absl@@YA_KUStructuredProtoField@456@@Z@AEAV?$variant@V?$variant@_K_JIH_N@std@@V?$variant@_K_JN@2@V?$Span@$$CBD@lts_20250814@absl@@V?$variant@IHM@2@@1@@Z
	??$_Dispatch2@_KUBufferSizeVisitor@?1??BufferSizeForStructuredProtoField@log_internal@lts_20250814@absl@@YA_KUStructuredProtoField@345@@Z@AEAV?$variant@V?$variant@_K_JIH_N@std@@V?$variant@_K_JN@2@V?$Span@$$CBD@lts_20250814@absl@@V?$variant@IHM@2@@std@@$0A@@?$_Variant_dispatcher@U?$integer_sequence@_K$00@std@@@std@@SA_K$$QEAUBufferSizeVisitor@?1??BufferSizeForStructuredProtoField@log_internal@lts_20250814@absl@@YA_KUStructuredProtoField@456@@Z@AEAV?$variant@V?$variant@_K_JIH_N@std@@V?$variant@_K_JN@2@V?$Span@$$CBD@lts_20250814@absl@@V?$variant@IHM@2@@1@@Z
	??$_Dispatch2@_KUBufferSizeVisitor@?1??BufferSizeForStructuredProtoField@log_internal@lts_20250814@absl@@YA_KUStructuredProtoField@345@@Z@AEAV?$variant@V?$variant@_K_JIH_N@std@@V?$variant@_K_JN@2@V?$Span@$$CBD@lts_20250814@absl@@V?$variant@IHM@2@@std@@$0A@@?$_Variant_dispatcher@U?$integer_sequence@_K$01@std@@@std@@SA_K$$QEAUBufferSizeVisitor@?1??BufferSizeForStructuredProtoField@log_internal@lts_20250814@absl@@YA_KUStructuredProtoField@456@@Z@AEAV?$variant@V?$variant@_K_JIH_N@std@@V?$variant@_K_JN@2@V?$Span@$$CBD@lts_20250814@absl@@V?$variant@IHM@2@@1@@Z
	??$_Dispatch2@_KUBufferSizeVisitor@?1??BufferSizeForStructuredProtoField@log_internal@lts_20250814@absl@@YA_KUStructuredProtoField@345@@Z@AEAV?$variant@V?$variant@_K_JIH_N@std@@V?$variant@_K_JN@2@V?$Span@$$CBD@lts_20250814@absl@@V?$variant@IHM@2@@std@@$0A@@?$_Variant_dispatcher@U?$integer_sequence@_K$02@std@@@std@@SA_K$$QEAUBufferSizeVisitor@?1??BufferSizeForStructuredProtoField@log_internal@lts_20250814@absl@@YA_KUStructuredProtoField@456@@Z@AEAV?$variant@V?$variant@_K_JIH_N@std@@V?$variant@_K_JN@2@V?$Span@$$CBD@lts_20250814@absl@@V?$variant@IHM@2@@1@@Z
	??$_Dispatch2@_KUBufferSizeVisitor@?1??BufferSizeForStructuredProtoField@log_internal@lts_20250814@absl@@YA_KUStructuredProtoField@345@@Z@AEAV?$variant@V?$variant@_K_JIH_N@std@@V?$variant@_K_JN@2@V?$Span@$$CBD@lts_20250814@absl@@V?$variant@IHM@2@@std@@$0A@@?$_Variant_dispatcher@U?$integer_sequence@_K$03@std@@@std@@SA_K$$QEAUBufferSizeVisitor@?1??BufferSizeForStructuredProtoField@log_internal@lts_20250814@absl@@YA_KUStructuredProtoField@456@@Z@AEAV?$variant@V?$variant@_K_JIH_N@std@@V?$variant@_K_JN@2@V?$Span@$$CBD@lts_20250814@absl@@V?$variant@IHM@2@@1@@Z
	??$_Emplace_back@$$V@?$_Uninitialized_backout_al@V?$allocator@D@std@@@std@@QEAAXXZ
	??$_Emplace_back@$$V@?$_Uninitialized_backout_al@V?$allocator@UTransition@cctz@time_internal@lts_20250814@absl@@@std@@@std@@QEAAXXZ
	??$_Emplace_back@$$V@?$_Uninitialized_backout_al@V?$allocator@UTransitionType@cctz@time_internal@lts_20250814@absl@@@std@@@std@@QEAAXXZ
	??$_Emplace_back@$$V@?$_Uninitialized_backout_al@V?$allocator@V?$basic_string_view@DU?$char_traits@D@std@@@std@@@std@@@std@@QEAAXXZ
	??$_Emplace_back@AEBV?$_List_unchecked_const_iterator@V?$_List_val@U?$_List_simple_types@H@std@@@std@@U_Iterator_base0@2@@std@@@?$_Uninitialized_backout@PEAV?$_List_unchecked_const_iterator@V?$_List_val@U?$_List_simple_types@H@std@@@std@@U_Iterator_base0@2@@std@@@std@@QEAAXAEBV?$_List_unchecked_const_iterator@V?$_List_val@U?$_List_simple_types@H@std@@@std@@U_Iterator_base0@2@@1@@Z
	??$_Emplace_back@AEBV?$_List_unchecked_const_iterator@V?$_List_val@U?$_List_simple_types@PEBUCordRep@cord_internal@lts_20250814@absl@@@std@@@std@@U_Iterator_base0@2@@std@@@?$_Uninitialized_backout@PEAV?$_List_unchecked_const_iterator@V?$_List_val@U?$_List_simple_types@PEBUCordRep@cord_internal@lts_20250814@absl@@@std@@@std@@U_Iterator_base0@2@@std@@@std@@QEAAXAEBV?$_List_unchecked_const_iterator@V?$_List_val@U?$_List_simple_types@PEBUCordRep@cord_internal@lts_20250814@absl@@@std@@@std@@U_Iterator_base0@2@@1@@Z
	??$_Emplace_back@AEBV?$_List_unchecked_iterator@V?$_List_val@U?$_List_simple_types@U?$pair@$$CBV?$basic_string@DU?$char_traits@D@std@@V?$allocator@D@2@@std@@PEBVImpl@time_zone@cctz@time_internal@lts_20250814@absl@@@std@@@std@@@std@@@std@@@?$_Uninitialized_backout@PEAV?$_List_unchecked_iterator@V?$_List_val@U?$_List_simple_types@U?$pair@$$CBV?$basic_string@DU?$char_traits@D@std@@V?$allocator@D@2@@std@@PEBVImpl@time_zone@cctz@time_internal@lts_20250814@absl@@@std@@@std@@@std@@@std@@@std@@QEAAXAEBV?$_List_unchecked_iterator@V?$_List_val@U?$_List_simple_types@U?$pair@$$CBV?$basic_string@DU?$char_traits@D@std@@V?$allocator@D@2@@std@@PEBVImpl@time_zone@cctz@time_internal@lts_20250814@absl@@@std@@@std@@@std@@@1@@Z
	??$_Emplace_back@I@?$_Uninitialized_backout_al@V?$allocator@I@std@@@std@@QEAAX$$QEAI@Z
	??$_Emplace_back@PEAVCordzHandle@cord_internal@lts_20250814@absl@@@?$_Uninitialized_backout_al@V?$allocator@PEAVCordzHandle@cord_internal@lts_20250814@absl@@@std@@@std@@QEAAX$$QEAPEAVCordzHandle@cord_internal@lts_20250814@absl@@@Z
	??$_Emplace_back@PEAVLogSink@lts_20250814@absl@@@?$_Uninitialized_backout_al@V?$allocator@PEAVLogSink@lts_20250814@absl@@@std@@@std@@QEAAX$$QEAPEAVLogSink@lts_20250814@absl@@@Z
	??$_Emplace_back@PEBVCordzHandle@cord_internal@lts_20250814@absl@@@?$_Uninitialized_backout_al@V?$allocator@PEBVCordzHandle@cord_internal@lts_20250814@absl@@@std@@@std@@QEAAX$$QEAPEBVCordzHandle@cord_internal@lts_20250814@absl@@@Z
	??$_Emplace_back@U?$pair@N_K@std@@@?$_Uninitialized_backout_al@V?$allocator@U?$pair@N_K@std@@@std@@@std@@QEAAX$$QEAU?$pair@N_K@1@@Z
	??$_Emplace_back@U?$pair@V?$basic_string_view@DU?$char_traits@D@std@@@std@@H@std@@@?$_Uninitialized_backout_al@V?$allocator@U?$pair@V?$basic_string_view@DU?$char_traits@D@std@@@std@@H@std@@@std@@@std@@QEAAX$$QEAU?$pair@V?$basic_string_view@DU?$char_traits@D@std@@@std@@H@1@@Z
	??$_Emplace_back@U?$pair@W4StringId@debugging_internal@lts_20250814@absl@@_J@std@@@?$_Uninitialized_backout_al@V?$allocator@U?$pair@W4StringId@debugging_internal@lts_20250814@absl@@_J@std@@@std@@@std@@QEAAX$$QEAU?$pair@W4StringId@debugging_internal@lts_20250814@absl@@_J@1@@Z
	??$_Emplace_back@UConversionItem@ParsedFormatBase@str_format_internal@lts_20250814@absl@@@?$_Uninitialized_backout_al@V?$allocator@UConversionItem@ParsedFormatBase@str_format_internal@lts_20250814@absl@@@std@@@std@@QEAAX$$QEAUConversionItem@ParsedFormatBase@str_format_internal@lts_20250814@absl@@@Z
	??$_Emplace_back@UMapping@ProfileBuilder@debugging_internal@lts_20250814@absl@@@?$_Uninitialized_backout_al@V?$allocator@UMapping@ProfileBuilder@debugging_internal@lts_20250814@absl@@@std@@@std@@QEAAX$$QEAUMapping@ProfileBuilder@debugging_internal@lts_20250814@absl@@@Z
	??$_Emplace_back@UTransition@cctz@time_internal@lts_20250814@absl@@@?$_Uninitialized_backout_al@V?$allocator@UTransition@cctz@time_internal@lts_20250814@absl@@@std@@@std@@QEAAX$$QEAUTransition@cctz@time_internal@lts_20250814@absl@@@Z
	??$_Emplace_back@UTransitionType@cctz@time_internal@lts_20250814@absl@@@?$_Uninitialized_backout_al@V?$allocator@UTransitionType@cctz@time_internal@lts_20250814@absl@@@std@@@std@@QEAAX$$QEAUTransitionType@cctz@time_internal@lts_20250814@absl@@@Z
	??$_Emplace_back@UViableSubstitution@strings_internal@lts_20250814@absl@@@?$_Uninitialized_backout_al@V?$allocator@UViableSubstitution@strings_internal@lts_20250814@absl@@@std@@@std@@QEAAX$$QEAUViableSubstitution@strings_internal@lts_20250814@absl@@@Z
	??$_Emplace_back@V?$basic_string@DU?$char_traits@D@std@@V?$allocator@D@2@@std@@@?$_Uninitialized_backout_al@V?$allocator@V?$basic_string@DU?$char_traits@D@std@@V?$allocator@D@2@@std@@@std@@@std@@QEAAX$$QEAV?$basic_string@DU?$char_traits@D@std@@V?$allocator@D@2@@1@@Z
	??$_Emplace_back@V?$function@$$A6AXXZ@std@@@?$_Uninitialized_backout_al@V?$allocator@V?$function@$$A6AXXZ@std@@@std@@@std@@QEAAX$$QEAV?$function@$$A6AXXZ@1@@Z
	??$_Emplace_back@_K@?$_Uninitialized_backout_al@V?$allocator@_K@std@@@std@@QEAAX$$QEA_K@Z
	??$_Emplace_back_deref@PEAPEAPEBVImpl@time_zone@cctz@time_internal@lts_20250814@absl@@@?$_Uninitialized_backout@PEAPEAPEBVImpl@time_zone@cctz@time_internal@lts_20250814@absl@@@std@@QEAAXAEAPEAPEAPEBVImpl@time_zone@cctz@time_internal@lts_20250814@absl@@@Z
	??$_Emplace_back_deref@PEAPEAUPrefixCrc@CrcCordState@crc_internal@lts_20250814@absl@@@?$_Uninitialized_backout@PEAPEAUPrefixCrc@CrcCordState@crc_internal@lts_20250814@absl@@@std@@QEAAXAEAPEAPEAUPrefixCrc@CrcCordState@crc_internal@lts_20250814@absl@@@Z
	??$_Emplace_back_internal@AEBQEBVImpl@time_zone@cctz@time_internal@lts_20250814@absl@@@?$deque@PEBVImpl@time_zone@cctz@time_internal@lts_20250814@absl@@V?$allocator@PEBVImpl@time_zone@cctz@time_internal@lts_20250814@absl@@@std@@@std@@AEAAXAEBQEBVImpl@time_zone@cctz@time_internal@lts_20250814@absl@@@Z
	??$_Emplace_back_internal@AEBUPrefixCrc@CrcCordState@crc_internal@lts_20250814@absl@@@?$deque@UPrefixCrc@CrcCordState@crc_internal@lts_20250814@absl@@V?$allocator@UPrefixCrc@CrcCordState@crc_internal@lts_20250814@absl@@@std@@@std@@AEAAXAEBUPrefixCrc@CrcCordState@crc_internal@lts_20250814@absl@@@Z
	??$_Emplace_back_internal@HVcrc32c_t@lts_20250814@absl@@@?$deque@UPrefixCrc@CrcCordState@crc_internal@lts_20250814@absl@@V?$allocator@UPrefixCrc@CrcCordState@crc_internal@lts_20250814@absl@@@std@@@std@@AEAAX$$QEAH$$QEAVcrc32c_t@lts_20250814@absl@@@Z
	??$_Emplace_back_internal@UPrefixCrc@CrcCordState@crc_internal@lts_20250814@absl@@@?$deque@UPrefixCrc@CrcCordState@crc_internal@lts_20250814@absl@@V?$allocator@UPrefixCrc@CrcCordState@crc_internal@lts_20250814@absl@@@std@@@std@@AEAAX$$QEAUPrefixCrc@CrcCordState@crc_internal@lts_20250814@absl@@@Z
	??$_Emplace_back_with_unused_capacity@$$V@?$vector@UTransition@cctz@time_internal@lts_20250814@absl@@V?$allocator@UTransition@cctz@time_internal@lts_20250814@absl@@@std@@@std@@AEAAAEAUTransition@cctz@time_internal@lts_20250814@absl@@XZ
	??$_Emplace_back_with_unused_capacity@$$V@?$vector@UTransitionType@cctz@time_internal@lts_20250814@absl@@V?$allocator@UTransitionType@cctz@time_internal@lts_20250814@absl@@@std@@@std@@AEAAAEAUTransitionType@cctz@time_internal@lts_20250814@absl@@XZ
	??$_Emplace_back_with_unused_capacity@AEAV?$basic_string_view@DU?$char_traits@D@std@@@std@@AEBV12@AEA_K@?$vector@UViableSubstitution@strings_internal@lts_20250814@absl@@V?$allocator@UViableSubstitution@strings_internal@lts_20250814@absl@@@std@@@std@@AEAAAEAUViableSubstitution@strings_internal@lts_20250814@absl@@AEAV?$basic_string_view@DU?$char_traits@D@std@@@1@AEBV61@AEA_K@Z
	??$_Emplace_back_with_unused_capacity@AEAW4StringId@debugging_internal@lts_20250814@absl@@_J@?$vector@U?$pair@W4StringId@debugging_internal@lts_20250814@absl@@_J@std@@V?$allocator@U?$pair@W4StringId@debugging_internal@lts_20250814@absl@@_J@std@@@2@@std@@AEAAAEAU?$pair@W4StringId@debugging_internal@lts_20250814@absl@@_J@1@AEAW4StringId@debugging_internal@lts_20250814@absl@@$$QEA_J@Z
	??$_Emplace_back_with_unused_capacity@AEBI@?$vector@IV?$allocator@I@std@@@std@@AEAAAEAIAEBI@Z
	??$_Emplace_back_with_unused_capacity@AEBNH@?$vector@U?$pair@N_K@std@@V?$allocator@U?$pair@N_K@std@@@2@@std@@AEAAAEAU?$pair@N_K@1@AEBN$$QEAH@Z
	??$_Emplace_back_with_unused_capacity@AEBQEAVCordzHandle@cord_internal@lts_20250814@absl@@@?$vector@PEAVCordzHandle@cord_internal@lts_20250814@absl@@V?$allocator@PEAVCordzHandle@cord_internal@lts_20250814@absl@@@std@@@std@@AEAAAEAPEAVCordzHandle@cord_internal@lts_20250814@absl@@AEBQEAV2345@@Z
	??$_Emplace_back_with_unused_capacity@AEBQEAVLogSink@lts_20250814@absl@@@?$vector@PEAVLogSink@lts_20250814@absl@@V?$allocator@PEAVLogSink@lts_20250814@absl@@@std@@@std@@AEAAAEAPEAVLogSink@lts_20250814@absl@@AEBQEAV234@@Z
	??$_Emplace_back_with_unused_capacity@AEBQEBVCordzHandle@cord_internal@lts_20250814@absl@@@?$vector@PEBVCordzHandle@cord_internal@lts_20250814@absl@@V?$allocator@PEBVCordzHandle@cord_internal@lts_20250814@absl@@@std@@@std@@AEAAAEAPEBVCordzHandle@cord_internal@lts_20250814@absl@@AEBQEBV2345@@Z
	??$_Emplace_back_with_unused_capacity@AEBUTransition@cctz@time_internal@lts_20250814@absl@@@?$vector@UTransition@cctz@time_internal@lts_20250814@absl@@V?$allocator@UTransition@cctz@time_internal@lts_20250814@absl@@@std@@@std@@AEAAAEAUTransition@cctz@time_internal@lts_20250814@absl@@AEBU23456@@Z
	??$_Emplace_back_with_unused_capacity@AEBV?$basic_string_view@DU?$char_traits@D@std@@@std@@AEAH@?$vector@U?$pair@V?$basic_string_view@DU?$char_traits@D@std@@@std@@H@std@@V?$allocator@U?$pair@V?$basic_string_view@DU?$char_traits@D@std@@@std@@H@std@@@2@@std@@AEAAAEAU?$pair@V?$basic_string_view@DU?$char_traits@D@std@@@std@@H@1@AEBV?$basic_string_view@DU?$char_traits@D@std@@@1@AEAH@Z
	??$_Emplace_back_with_unused_capacity@AEB_K@?$vector@_KV?$allocator@_K@std@@@std@@AEAAAEA_KAEB_K@Z
	??$_Emplace_back_with_unused_capacity@UConversionItem@ParsedFormatBase@str_format_internal@lts_20250814@absl@@@?$vector@UConversionItem@ParsedFormatBase@str_format_internal@lts_20250814@absl@@V?$allocator@UConversionItem@ParsedFormatBase@str_format_internal@lts_20250814@absl@@@std@@@std@@AEAAAEAUConversionItem@ParsedFormatBase@str_format_internal@lts_20250814@absl@@$$QEAU23456@@Z
	??$_Emplace_back_with_unused_capacity@UMapping@ProfileBuilder@debugging_internal@lts_20250814@absl@@@?$vector@UMapping@ProfileBuilder@debugging_internal@lts_20250814@absl@@V?$allocator@UMapping@ProfileBuilder@debugging_internal@lts_20250814@absl@@@std@@@std@@AEAAAEAUMapping@ProfileBuilder@debugging_internal@lts_20250814@absl@@$$QEAU23456@@Z
	??$_Emplace_back_with_unused_capacity@V?$basic_string@DU?$char_traits@D@std@@V?$allocator@D@2@@std@@@?$vector@V?$basic_string@DU?$char_traits@D@std@@V?$allocator@D@2@@std@@V?$allocator@V?$basic_string@DU?$char_traits@D@std@@V?$allocator@D@2@@std@@@2@@std@@AEAAAEAV?$basic_string@DU?$char_traits@D@std@@V?$allocator@D@2@@1@$$QEAV21@@Z
	??$_Emplace_back_with_unused_capacity@V?$function@$$A6AXXZ@std@@@?$vector@V?$function@$$A6AXXZ@std@@V?$allocator@V?$function@$$A6AXXZ@std@@@2@@std@@AEAAAEAV?$function@$$A6AXXZ@1@$$QEAV21@@Z
	??$_Emplace_back_with_unused_capacity@_K@?$vector@_KV?$allocator@_K@std@@@std@@AEAAAEA_K$$QEA_K@Z
	??$_Emplace_one_at_back@AEAV?$basic_string_view@DU?$char_traits@D@std@@@std@@AEBV12@AEA_K@?$vector@UViableSubstitution@strings_internal@lts_20250814@absl@@V?$allocator@UViableSubstitution@strings_internal@lts_20250814@absl@@@std@@@std@@AEAAAEAUViableSubstitution@strings_internal@lts_20250814@absl@@AEAV?$basic_string_view@DU?$char_traits@D@std@@@1@AEBV61@AEA_K@Z
	??$_Emplace_one_at_back@AEAW4StringId@debugging_internal@lts_20250814@absl@@_J@?$vector@U?$pair@W4StringId@debugging_internal@lts_20250814@absl@@_J@std@@V?$allocator@U?$pair@W4StringId@debugging_internal@lts_20250814@absl@@_J@std@@@2@@std@@AEAAAEAU?$pair@W4StringId@debugging_internal@lts_20250814@absl@@_J@1@AEAW4StringId@debugging_internal@lts_20250814@absl@@$$QEA_J@Z
	??$_Emplace_one_at_back@AEBI@?$vector@IV?$allocator@I@std@@@std@@AEAAAEAIAEBI@Z
	??$_Emplace_one_at_back@AEBNH@?$vector@U?$pair@N_K@std@@V?$allocator@U?$pair@N_K@std@@@2@@std@@AEAAAEAU?$pair@N_K@1@AEBN$$QEAH@Z
	??$_Emplace_one_at_back@AEBQEAVCordzHandle@cord_internal@lts_20250814@absl@@@?$vector@PEAVCordzHandle@cord_internal@lts_20250814@absl@@V?$allocator@PEAVCordzHandle@cord_internal@lts_20250814@absl@@@std@@@std@@AEAAAEAPEAVCordzHandle@cord_internal@lts_20250814@absl@@AEBQEAV2345@@Z
	??$_Emplace_one_at_back@AEBQEAVLogSink@lts_20250814@absl@@@?$vector@PEAVLogSink@lts_20250814@absl@@V?$allocator@PEAVLogSink@lts_20250814@absl@@@std@@@std@@AEAAAEAPEAVLogSink@lts_20250814@absl@@AEBQEAV234@@Z
	??$_Emplace_one_at_back@AEBQEBVCordzHandle@cord_internal@lts_20250814@absl@@@?$vector@PEBVCordzHandle@cord_internal@lts_20250814@absl@@V?$allocator@PEBVCordzHandle@cord_internal@lts_20250814@absl@@@std@@@std@@AEAAAEAPEBVCordzHandle@cord_internal@lts_20250814@absl@@AEBQEBV2345@@Z
	??$_Emplace_one_at_back@AEBUTransition@cctz@time_internal@lts_20250814@absl@@@?$vector@UTransition@cctz@time_internal@lts_20250814@absl@@V?$allocator@UTransition@cctz@time_internal@lts_20250814@absl@@@std@@@std@@AEAAAEAUTransition@cctz@time_internal@lts_20250814@absl@@AEBU23456@@Z
	??$_Emplace_one_at_back@AEBV?$basic_string_view@DU?$char_traits@D@std@@@std@@AEAH@?$vector@U?$pair@V?$basic_string_view@DU?$char_traits@D@std@@@std@@H@std@@V?$allocator@U?$pair@V?$basic_string_view@DU?$char_traits@D@std@@@std@@H@std@@@2@@std@@AEAAAEAU?$pair@V?$basic_string_view@DU?$char_traits@D@std@@@std@@H@1@AEBV?$basic_string_view@DU?$char_traits@D@std@@@1@AEAH@Z
	??$_Emplace_one_at_back@AEB_K@?$vector@_KV?$allocator@_K@std@@@std@@AEAAAEA_KAEB_K@Z
	??$_Emplace_one_at_back@UConversionItem@ParsedFormatBase@str_format_internal@lts_20250814@absl@@@?$vector@UConversionItem@ParsedFormatBase@str_format_internal@lts_20250814@absl@@V?$allocator@UConversionItem@ParsedFormatBase@str_format_internal@lts_20250814@absl@@@std@@@std@@AEAAAEAUConversionItem@ParsedFormatBase@str_format_internal@lts_20250814@absl@@$$QEAU23456@@Z
	??$_Emplace_one_at_back@UMapping@ProfileBuilder@debugging_internal@lts_20250814@absl@@@?$vector@UMapping@ProfileBuilder@debugging_internal@lts_20250814@absl@@V?$allocator@UMapping@ProfileBuilder@debugging_internal@lts_20250814@absl@@@std@@@std@@AEAAAEAUMapping@ProfileBuilder@debugging_internal@lts_20250814@absl@@$$QEAU23456@@Z
	??$_Emplace_one_at_back@V?$basic_string@DU?$char_traits@D@std@@V?$allocator@D@2@@std@@@?$vector@V?$basic_string@DU?$char_traits@D@std@@V?$allocator@D@2@@std@@V?$allocator@V?$basic_string@DU?$char_traits@D@std@@V?$allocator@D@2@@std@@@2@@std@@AEAAAEAV?$basic_string@DU?$char_traits@D@std@@V?$allocator@D@2@@1@$$QEAV21@@Z
	??$_Emplace_one_at_back@V?$function@$$A6AXXZ@std@@@?$vector@V?$function@$$A6AXXZ@std@@V?$allocator@V?$function@$$A6AXXZ@std@@@2@@std@@AEAAAEAV?$function@$$A6AXXZ@1@$$QEAV21@@Z
	??$_Emplace_one_at_back@_K@?$vector@_KV?$allocator@_K@std@@@std@@AEAAAEA_K$$QEA_K@Z
	??$_Emplace_reallocate@$$V@?$vector@UTransition@cctz@time_internal@lts_20250814@absl@@V?$allocator@UTransition@cctz@time_internal@lts_20250814@absl@@@std@@@std@@AEAAPEAUTransition@cctz@time_internal@lts_20250814@absl@@QEAU23456@@Z
	??$_Emplace_reallocate@$$V@?$vector@UTransitionType@cctz@time_internal@lts_20250814@absl@@V?$allocator@UTransitionType@cctz@time_internal@lts_20250814@absl@@@std@@@std@@AEAAPEAUTransitionType@cctz@time_internal@lts_20250814@absl@@QEAU23456@@Z
	??$_Emplace_reallocate@AEAV?$basic_string_view@DU?$char_traits@D@std@@@std@@AEBV12@AEA_K@?$vector@UViableSubstitution@strings_internal@lts_20250814@absl@@V?$allocator@UViableSubstitution@strings_internal@lts_20250814@absl@@@std@@@std@@AEAAPEAUViableSubstitution@strings_internal@lts_20250814@absl@@QEAU2345@AEAV?$basic_string_view@DU?$char_traits@D@std@@@1@AEBV61@AEA_K@Z
	??$_Emplace_reallocate@AEAW4StringId@debugging_internal@lts_20250814@absl@@_J@?$vector@U?$pair@W4StringId@debugging_internal@lts_20250814@absl@@_J@std@@V?$allocator@U?$pair@W4StringId@debugging_internal@lts_20250814@absl@@_J@std@@@2@@std@@AEAAPEAU?$pair@W4StringId@debugging_internal@lts_20250814@absl@@_J@1@QEAU21@AEAW4StringId@debugging_internal@lts_20250814@absl@@$$QEA_J@Z
	??$_Emplace_reallocate@AEBI@?$vector@IV?$allocator@I@std@@@std@@AEAAPEAIQEAIAEBI@Z
	??$_Emplace_reallocate@AEBNH@?$vector@U?$pair@N_K@std@@V?$allocator@U?$pair@N_K@std@@@2@@std@@AEAAPEAU?$pair@N_K@1@QEAU21@AEBN$$QEAH@Z
	??$_Emplace_reallocate@AEBQEAVCordzHandle@cord_internal@lts_20250814@absl@@@?$vector@PEAVCordzHandle@cord_internal@lts_20250814@absl@@V?$allocator@PEAVCordzHandle@cord_internal@lts_20250814@absl@@@std@@@std@@AEAAPEAPEAVCordzHandle@cord_internal@lts_20250814@absl@@QEAPEAV2345@AEBQEAV2345@@Z
	??$_Emplace_reallocate@AEBQEAVLogSink@lts_20250814@absl@@@?$vector@PEAVLogSink@lts_20250814@absl@@V?$allocator@PEAVLogSink@lts_20250814@absl@@@std@@@std@@AEAAPEAPEAVLogSink@lts_20250814@absl@@QEAPEAV234@AEBQEAV234@@Z
	??$_Emplace_reallocate@AEBQEBVCordzHandle@cord_internal@lts_20250814@absl@@@?$vector@PEBVCordzHandle@cord_internal@lts_20250814@absl@@V?$allocator@PEBVCordzHandle@cord_internal@lts_20250814@absl@@@std@@@std@@AEAAPEAPEBVCordzHandle@cord_internal@lts_20250814@absl@@QEAPEBV2345@AEBQEBV2345@@Z
	??$_Emplace_reallocate@AEBUTransition@cctz@time_internal@lts_20250814@absl@@@?$vector@UTransition@cctz@time_internal@lts_20250814@absl@@V?$allocator@UTransition@cctz@time_internal@lts_20250814@absl@@@std@@@std@@AEAAPEAUTransition@cctz@time_internal@lts_20250814@absl@@QEAU23456@AEBU23456@@Z
	??$_Emplace_reallocate@AEBV?$basic_string_view@DU?$char_traits@D@std@@@std@@AEAH@?$vector@U?$pair@V?$basic_string_view@DU?$char_traits@D@std@@@std@@H@std@@V?$allocator@U?$pair@V?$basic_string_view@DU?$char_traits@D@std@@@std@@H@std@@@2@@std@@AEAAPEAU?$pair@V?$basic_string_view@DU?$char_traits@D@std@@@std@@H@1@QEAU21@AEBV?$basic_string_view@DU?$char_traits@D@std@@@1@AEAH@Z
	??$_Emplace_reallocate@AEB_K@?$vector@_KV?$allocator@_K@std@@@std@@AEAAPEA_KQEA_KAEB_K@Z
	??$_Emplace_reallocate@UConversionItem@ParsedFormatBase@str_format_internal@lts_20250814@absl@@@?$vector@UConversionItem@ParsedFormatBase@str_format_internal@lts_20250814@absl@@V?$allocator@UConversionItem@ParsedFormatBase@str_format_internal@lts_20250814@absl@@@std@@@std@@AEAAPEAUConversionItem@ParsedFormatBase@str_format_internal@lts_20250814@absl@@QEAU23456@$$QEAU23456@@Z
	??$_Emplace_reallocate@UMapping@ProfileBuilder@debugging_internal@lts_20250814@absl@@@?$vector@UMapping@ProfileBuilder@debugging_internal@lts_20250814@absl@@V?$allocator@UMapping@ProfileBuilder@debugging_internal@lts_20250814@absl@@@std@@@std@@AEAAPEAUMapping@ProfileBuilder@debugging_internal@lts_20250814@absl@@QEAU23456@$$QEAU23456@@Z
	??$_Emplace_reallocate@V?$basic_string@DU?$char_traits@D@std@@V?$allocator@D@2@@std@@@?$vector@V?$basic_string@DU?$char_traits@D@std@@V?$allocator@D@2@@std@@V?$allocator@V?$basic_string@DU?$char_traits@D@std@@V?$allocator@D@2@@std@@@2@@std@@AEAAPEAV?$basic_string@DU?$char_traits@D@std@@V?$allocator@D@2@@1@QEAV21@$$QEAV21@@Z
	??$_Emplace_reallocate@V?$function@$$A6AXXZ@std@@@?$vector@V?$function@$$A6AXXZ@std@@V?$allocator@V?$function@$$A6AXXZ@std@@@2@@std@@AEAAPEAV?$function@$$A6AXXZ@1@QEAV21@$$QEAV21@@Z
	??$_Emplace_reallocate@_K@?$vector@_KV?$allocator@_K@std@@@std@@AEAAPEA_KQEA_K$$QEA_K@Z
	??$_Fgetc@D@std@@YA_NAEADPEAU_iobuf@@@Z
	??$_Fill_memset@PEADD@std@@YAXPEADD_K@Z
	??$_Fill_zero_memset@PEAH@std@@YAXPEAH_K@Z
	??$_Fill_zero_memset@PEAI@std@@YAXPEAI_K@Z
	??$_Fill_zero_memset@PEA_K@std@@YAXPEA_K_K@Z
	??$_Find@V?$basic_string@DU?$char_traits@D@std@@V?$allocator@D@2@@std@@@?$_Hash@V?$_Umap_traits@V?$basic_string@DU?$char_traits@D@std@@V?$allocator@D@2@@std@@PEBVImpl@time_zone@cctz@time_internal@lts_20250814@absl@@V?$_Uhash_compare@V?$basic_string@DU?$char_traits@D@std@@V?$allocator@D@2@@std@@U?$hash@V?$basic_string@DU?$char_traits@D@std@@V?$allocator@D@2@@std@@@2@U?$equal_to@V?$basic_string@DU?$char_traits@D@std@@V?$allocator@D@2@@std@@@2@@2@V?$allocator@U?$pair@$$CBV?$basic_string@DU?$char_traits@D@std@@V?$allocator@D@2@@std@@PEBVImpl@time_zone@cctz@time_internal@lts_20250814@absl@@@std@@@2@$0A@@std@@@std@@AEBAPEAU?$_List_node@U?$pair@$$CBV?$basic_string@DU?$char_traits@D@std@@V?$allocator@D@2@@std@@PEBVImpl@time_zone@cctz@time_internal@lts_20250814@absl@@@std@@PEAX@1@AEBV?$basic_string@DU?$char_traits@D@std@@V?$allocator@D@2@@1@_K@Z
	??$_Find_first_of_pos_vectorized@DD@std@@YA_KQEBD_K01@Z
	??$_Find_last@H@?$_Hash@V?$_Uset_traits@HV?$_Uhash_compare@HU?$hash@H@std@@U?$equal_to@H@2@@std@@V?$allocator@H@2@$0A@@std@@@std@@IEBA?AU?$_Hash_find_last_result@PEAU?$_List_node@HPEAX@std@@@1@AEBH_K@Z
	??$_Find_last@PEBUCordRep@cord_internal@lts_20250814@absl@@@?$_Hash@V?$_Uset_traits@PEBUCordRep@cord_internal@lts_20250814@absl@@V?$_Uhash_compare@PEBUCordRep@cord_internal@lts_20250814@absl@@U?$hash@PEBUCordRep@cord_internal@lts_20250814@absl@@@std@@U?$equal_to@PEBUCordRep@cord_internal@lts_20250814@absl@@@6@@std@@V?$allocator@PEBUCordRep@cord_internal@lts_20250814@absl@@@6@$0A@@std@@@std@@IEBA?AU?$_Hash_find_last_result@PEAU?$_List_node@PEBUCordRep@cord_internal@lts_20250814@absl@@PEAX@std@@@1@AEBQEBUCordRep@cord_internal@lts_20250814@absl@@_K@Z
	??$_Find_last@V?$basic_string@DU?$char_traits@D@std@@V?$allocator@D@2@@std@@@?$_Hash@V?$_Umap_traits@V?$basic_string@DU?$char_traits@D@std@@V?$allocator@D@2@@std@@PEBVImpl@time_zone@cctz@time_internal@lts_20250814@absl@@V?$_Uhash_compare@V?$basic_string@DU?$char_traits@D@std@@V?$allocator@D@2@@std@@U?$hash@V?$basic_string@DU?$char_traits@D@std@@V?$allocator@D@2@@std@@@2@U?$equal_to@V?$basic_string@DU?$char_traits@D@std@@V?$allocator@D@2@@std@@@2@@2@V?$allocator@U?$pair@$$CBV?$basic_string@DU?$char_traits@D@std@@V?$allocator@D@2@@std@@PEBVImpl@time_zone@cctz@time_internal@lts_20250814@absl@@@std@@@2@$0A@@std@@@std@@IEBA?AU?$_Hash_find_last_result@PEAU?$_List_node@U?$pair@$$CBV?$basic_string@DU?$char_traits@D@std@@V?$allocator@D@2@@std@@PEBVImpl@time_zone@cctz@time_internal@lts_20250814@absl@@@std@@PEAX@std@@@1@AEBV?$basic_string@DU?$char_traits@D@std@@V?$allocator@D@2@@1@_K@Z
	??$_Find_last_of_pos_vectorized@DD@std@@YA_KQEBD_K01@Z
	??$_Find_last_vectorized@$$CBDD@std@@YAPEBDQEBD0D@Z
	??$_Find_unchecked@PEAPEAVLogSink@lts_20250814@absl@@PEAV123@@std@@YAPEAPEAVLogSink@lts_20250814@absl@@PEAPEAV123@QEAPEAV123@AEBQEAV123@@Z
	??$_Find_unchecked@PEBDD@std@@YAPEBDPEBDQEBDAEBD@Z
	??$_Find_unchecked@PEB_W_W@std@@YAPEB_WPEB_WQEB_WAEB_W@Z
	??$_Find_vectorized@$$CBDD@std@@YAPEBDQEBD0D@Z
	??$_Find_vectorized@$$CB_W_W@std@@YAPEB_WQEB_W0_W@Z
	??$_Find_vectorized@PEAVLogSink@lts_20250814@absl@@PEAV123@@std@@YAPEAPEAVLogSink@lts_20250814@absl@@QEAPEAV123@0QEAV123@@Z
	??$_Fnv1a_append_value@H@std@@YA_K_KAEBH@Z
	??$_Fnv1a_append_value@PEBUCordRep@cord_internal@lts_20250814@absl@@@std@@YA_K_KAEBQEBUCordRep@cord_internal@lts_20250814@absl@@@Z
	??$_Fputc@D@std@@YA_NDPEAU_iobuf@@@Z
	??$_Free_non_head@V?$allocator@U?$_List_node@HPEAX@std@@@std@@@?$_List_node@HPEAX@std@@SAXAEAV?$allocator@U?$_List_node@HPEAX@std@@@1@PEAU01@@Z
	??$_Free_non_head@V?$allocator@U?$_List_node@PEBUCordRep@cord_internal@lts_20250814@absl@@PEAX@std@@@std@@@?$_List_node@PEBUCordRep@cord_internal@lts_20250814@absl@@PEAX@std@@SAXAEAV?$allocator@U?$_List_node@PEBUCordRep@cord_internal@lts_20250814@absl@@PEAX@std@@@1@PEAU01@@Z
	??$_Free_non_head@V?$allocator@U?$_List_node@U?$pair@$$CBV?$basic_string@DU?$char_traits@D@std@@V?$allocator@D@2@@std@@PEBVImpl@time_zone@cctz@time_internal@lts_20250814@absl@@@std@@PEAX@std@@@std@@@?$_List_node@U?$pair@$$CBV?$basic_string@DU?$char_traits@D@std@@V?$allocator@D@2@@std@@PEBVImpl@time_zone@cctz@time_internal@lts_20250814@absl@@@std@@PEAX@std@@SAXAEAV?$allocator@U?$_List_node@U?$pair@$$CBV?$basic_string@DU?$char_traits@D@std@@V?$allocator@D@2@@std@@PEBVImpl@time_zone@cctz@time_internal@lts_20250814@absl@@@std@@PEAX@std@@@1@PEAU01@@Z
	??$_Freenode0@V?$allocator@U?$_List_node@HPEAX@std@@@std@@@?$_List_node@HPEAX@std@@SAXAEAV?$allocator@U?$_List_node@HPEAX@std@@@1@PEAU01@@Z
	??$_Freenode0@V?$allocator@U?$_List_node@PEBUCordRep@cord_internal@lts_20250814@absl@@PEAX@std@@@std@@@?$_List_node@PEBUCordRep@cord_internal@lts_20250814@absl@@PEAX@std@@SAXAEAV?$allocator@U?$_List_node@PEBUCordRep@cord_internal@lts_20250814@absl@@PEAX@std@@@1@PEAU01@@Z
	??$_Freenode0@V?$allocator@U?$_List_node@U?$pair@$$CBV?$basic_string@DU?$char_traits@D@std@@V?$allocator@D@2@@std@@PEBVImpl@time_zone@cctz@time_internal@lts_20250814@absl@@@std@@PEAX@std@@@std@@@?$_List_node@U?$pair@$$CBV?$basic_string@DU?$char_traits@D@std@@V?$allocator@D@2@@std@@PEBVImpl@time_zone@cctz@time_internal@lts_20250814@absl@@@std@@PEAX@std@@SAXAEAV?$allocator@U?$_List_node@U?$pair@$$CBV?$basic_string@DU?$char_traits@D@std@@V?$allocator@D@2@@std@@PEBVImpl@time_zone@cctz@time_internal@lts_20250814@absl@@@std@@PEAX@std@@@1@PEAU01@@Z
	??$_Freenode@V?$allocator@U?$_List_node@HPEAX@std@@@std@@@?$_List_node@HPEAX@std@@SAXAEAV?$allocator@U?$_List_node@HPEAX@std@@@1@PEAU01@@Z
	??$_Freenode@V?$allocator@U?$_List_node@PEBUCordRep@cord_internal@lts_20250814@absl@@PEAX@std@@@std@@@?$_List_node@PEBUCordRep@cord_internal@lts_20250814@absl@@PEAX@std@@SAXAEAV?$allocator@U?$_List_node@PEBUCordRep@cord_internal@lts_20250814@absl@@PEAX@std@@@1@PEAU01@@Z
	??$_Freenode@V?$allocator@U?$_List_node@U?$pair@$$CBV?$basic_string@DU?$char_traits@D@std@@V?$allocator@D@2@@std@@PEBVImpl@time_zone@cctz@time_internal@lts_20250814@absl@@@std@@PEAX@std@@@std@@@?$_List_node@U?$pair@$$CBV?$basic_string@DU?$char_traits@D@std@@V?$allocator@D@2@@std@@PEBVImpl@time_zone@cctz@time_internal@lts_20250814@absl@@@std@@PEAX@std@@SAXAEAV?$allocator@U?$_List_node@U?$pair@$$CBV?$basic_string@DU?$char_traits@D@std@@V?$allocator@D@2@@std@@PEBVImpl@time_zone@cctz@time_internal@lts_20250814@absl@@@std@@PEAX@std@@@1@PEAU01@@Z
	??$_Get_index@$0A@@id@locale@std@@QEAA_KXZ
	??$_Get_size_of_n@$00@std@@YA_K_K@Z
	??$_Get_size_of_n@$03@std@@YA_K_K@Z
	??$_Get_size_of_n@$07@std@@YA_K_K@Z
	??$_Get_size_of_n@$0BA@@std@@YA_K_K@Z
	??$_Get_size_of_n@$0BI@@std@@YA_K_K@Z
	??$_Get_size_of_n@$0CA@@std@@YA_K_K@Z
	??$_Get_size_of_n@$0CI@@std@@YA_K_K@Z
	??$_Get_size_of_n@$0DA@@std@@YA_K_K@Z
	??$_Get_size_of_n@$0DI@@std@@YA_K_K@Z
	??$_Get_size_of_n@$0EA@@std@@YA_K_K@Z
	??$_Get_size_of_n@$0FI@@std@@YA_K_K@Z
	??$_Get_unwrapped@AEAPEAD@std@@YA?A_TAEAPEAD@Z
	??$_Get_unwrapped@AEAPEAH@std@@YA?A_TAEAPEAH@Z
	??$_Get_unwrapped@AEAPEAI@std@@YA?A_TAEAPEAI@Z
	??$_Get_unwrapped@AEAPEBD@std@@YA?A_TAEAPEBD@Z
	??$_Get_unwrapped@AEAPEBI@std@@YA?A_TAEAPEBI@Z
	??$_Get_unwrapped@AEAPEBUTransition@cctz@time_internal@lts_20250814@absl@@@std@@YA?A_TAEAPEBUTransition@cctz@time_internal@lts_20250814@absl@@@Z
	??$_Get_unwrapped@AEAPEB_W@std@@YA?A_TAEAPEB_W@Z
	??$_Get_unwrapped@AEAV?$_Array_iterator@E$0GG@@std@@@std@@YA?A_TAEAV?$_Array_iterator@E$0GG@@0@@Z
	??$_Get_unwrapped@AEAV?$_Deque_unchecked_const_iterator@V?$_Deque_val@U?$_Deque_simple_types@UPrefixCrc@CrcCordState@crc_internal@lts_20250814@absl@@@std@@@std@@@std@@@std@@YA?A_TAEAV?$_Deque_unchecked_const_iterator@V?$_Deque_val@U?$_Deque_simple_types@UPrefixCrc@CrcCordState@crc_internal@lts_20250814@absl@@@std@@@std@@@0@@Z
	??$_Get_unwrapped@AEAV?$_String_view_iterator@U?$char_traits@D@std@@@std@@@std@@YA?A_TAEAV?$_String_view_iterator@U?$char_traits@D@std@@@0@@Z
	??$_Get_unwrapped@AEAV?$_Vector_iterator@V?$_Vector_val@U?$_Simple_types@PEAVLogSink@lts_20250814@absl@@@std@@@std@@@std@@@std@@YA?A_TAEAV?$_Vector_iterator@V?$_Vector_val@U?$_Simple_types@PEAVLogSink@lts_20250814@absl@@@std@@@std@@@0@@Z
	??$_Get_unwrapped@AEAV?$reverse_iterator@V?$_String_view_iterator@U?$char_traits@D@std@@@std@@@std@@@std@@YA?A_TAEAV?$reverse_iterator@V?$_String_view_iterator@U?$char_traits@D@std@@@std@@@0@@Z
	??$_Get_unwrapped@AEBQEAD@std@@YA?A_TAEBQEAD@Z
	??$_Get_unwrapped@AEBQEAH@std@@YA?A_TAEBQEAH@Z
	??$_Get_unwrapped@AEBQEAI@std@@YA?A_TAEBQEAI@Z
	??$_Get_unwrapped@AEBQEAPEAPEBVImpl@time_zone@cctz@time_internal@lts_20250814@absl@@@std@@YA?A_TAEBQEAPEAPEBVImpl@time_zone@cctz@time_internal@lts_20250814@absl@@@Z
	??$_Get_unwrapped@AEBQEAPEAUPrefixCrc@CrcCordState@crc_internal@lts_20250814@absl@@@std@@YA?A_TAEBQEAPEAUPrefixCrc@CrcCordState@crc_internal@lts_20250814@absl@@@Z
	??$_Get_unwrapped@AEBQEAPEAVCordzHandle@cord_internal@lts_20250814@absl@@@std@@YA?A_TAEBQEAPEAVCordzHandle@cord_internal@lts_20250814@absl@@@Z
	??$_Get_unwrapped@AEBQEAPEAVLogSink@lts_20250814@absl@@@std@@YA?A_TAEBQEAPEAVLogSink@lts_20250814@absl@@@Z
	??$_Get_unwrapped@AEBQEAPEBVCordzHandle@cord_internal@lts_20250814@absl@@@std@@YA?A_TAEBQEAPEBVCordzHandle@cord_internal@lts_20250814@absl@@@Z
	??$_Get_unwrapped@AEBQEAU?$pair@N_K@std@@@std@@YA?A_TAEBQEAU?$pair@N_K@0@@Z
	??$_Get_unwrapped@AEBQEAU?$pair@V?$basic_string_view@DU?$char_traits@D@std@@@std@@H@std@@@std@@YA?A_TAEBQEAU?$pair@V?$basic_string_view@DU?$char_traits@D@std@@@std@@H@0@@Z
	??$_Get_unwrapped@AEBQEAU?$pair@W4StringId@debugging_internal@lts_20250814@absl@@_J@std@@@std@@YA?A_TAEBQEAU?$pair@W4StringId@debugging_internal@lts_20250814@absl@@_J@0@@Z
	??$_Get_unwrapped@AEBQEAUConversionItem@ParsedFormatBase@str_format_internal@lts_20250814@absl@@@std@@YA?A_TAEBQEAUConversionItem@ParsedFormatBase@str_format_internal@lts_20250814@absl@@@Z
	??$_Get_unwrapped@AEBQEAUMapping@ProfileBuilder@debugging_internal@lts_20250814@absl@@@std@@YA?A_TAEBQEAUMapping@ProfileBuilder@debugging_internal@lts_20250814@absl@@@Z
	??$_Get_unwrapped@AEBQEAUTransition@cctz@time_internal@lts_20250814@absl@@@std@@YA?A_TAEBQEAUTransition@cctz@time_internal@lts_20250814@absl@@@Z
	??$_Get_unwrapped@AEBQEAUTransitionType@cctz@time_internal@lts_20250814@absl@@@std@@YA?A_TAEBQEAUTransitionType@cctz@time_internal@lts_20250814@absl@@@Z
	??$_Get_unwrapped@AEBQEAUViableSubstitution@strings_internal@lts_20250814@absl@@@std@@YA?A_TAEBQEAUViableSubstitution@strings_internal@lts_20250814@absl@@@Z
	??$_Get_unwrapped@AEBQEAV?$_List_unchecked_const_iterator@V?$_List_val@U?$_List_simple_types@H@std@@@std@@U_Iterator_base0@2@@std@@@std@@YA?A_TAEBQEAV?$_List_unchecked_const_iterator@V?$_List_val@U?$_List_simple_types@H@std@@@std@@U_Iterator_base0@2@@0@@Z
	??$_Get_unwrapped@AEBQEAV?$_List_unchecked_const_iterator@V?$_List_val@U?$_List_simple_types@PEBUCordRep@cord_internal@lts_20250814@absl@@@std@@@std@@U_Iterator_base0@2@@std@@@std@@YA?A_TAEBQEAV?$_List_unchecked_const_iterator@V?$_List_val@U?$_List_simple_types@PEBUCordRep@cord_internal@lts_20250814@absl@@@std@@@std@@U_Iterator_base0@2@@0@@Z
	??$_Get_unwrapped@AEBQEAV?$_List_unchecked_iterator@V?$_List_val@U?$_List_simple_types@U?$pair@$$CBV?$basic_string@DU?$char_traits@D@std@@V?$allocator@D@2@@std@@PEBVImpl@time_zone@cctz@time_internal@lts_20250814@absl@@@std@@@std@@@std@@@std@@@std@@YA?A_TAEBQEAV?$_List_unchecked_iterator@V?$_List_val@U?$_List_simple_types@U?$pair@$$CBV?$basic_string@DU?$char_traits@D@std@@V?$allocator@D@2@@std@@PEBVImpl@time_zone@cctz@time_internal@lts_20250814@absl@@@std@@@std@@@std@@@0@@Z
	??$_Get_unwrapped@AEBQEAV?$basic_string@DU?$char_traits@D@std@@V?$allocator@D@2@@std@@@std@@YA?A_TAEBQEAV?$basic_string@DU?$char_traits@D@std@@V?$allocator@D@2@@0@@Z
	??$_Get_unwrapped@AEBQEAV?$function@$$A6AXXZ@std@@@std@@YA?A_TAEBQEAV?$function@$$A6AXXZ@0@@Z
	??$_Get_unwrapped@AEBQEA_K@std@@YA?A_TAEBQEA_K@Z
	??$_Get_unwrapped@AEBQEBD@std@@YA?A_TAEBQEBD@Z
	??$_Get_unwrapped@AEBQEBUTransition@cctz@time_internal@lts_20250814@absl@@@std@@YA?A_TAEBQEBUTransition@cctz@time_internal@lts_20250814@absl@@@Z
	??$_Get_unwrapped@AEBQEB_W@std@@YA?A_TAEBQEB_W@Z
	??$_Get_unwrapped@AEBV?$_String_iterator@V?$_String_val@U?$_Simple_types@D@std@@@std@@@std@@@std@@YA?A_TAEBV?$_String_iterator@V?$_String_val@U?$_Simple_types@D@std@@@std@@@0@@Z
	??$_Get_unwrapped@AEBV?$_String_view_iterator@U?$char_traits@D@std@@@std@@@std@@YA?A_TAEBV?$_String_view_iterator@U?$char_traits@D@std@@@0@@Z
	??$_Get_unwrapped@AEBV?$_Vector_iterator@V?$_Vector_val@U?$_Simple_types@N@std@@@std@@@std@@@std@@YA?A_TAEBV?$_Vector_iterator@V?$_Vector_val@U?$_Simple_types@N@std@@@std@@@0@@Z
	??$_Get_unwrapped@AEBV?$_Vector_iterator@V?$_Vector_val@U?$_Simple_types@PEAVLogSink@lts_20250814@absl@@@std@@@std@@@std@@@std@@YA?A_TAEBV?$_Vector_iterator@V?$_Vector_val@U?$_Simple_types@PEAVLogSink@lts_20250814@absl@@@std@@@std@@@0@@Z
	??$_Get_unwrapped@AEBV?$reverse_iterator@V?$_String_view_iterator@U?$char_traits@D@std@@@std@@@std@@@std@@YA?A_TAEBV?$reverse_iterator@V?$_String_view_iterator@U?$char_traits@D@std@@@std@@@0@@Z
	??$_Get_unwrapped_n@AEAPEADH@std@@YA?A_TAEAPEADH@Z
	??$_Get_unwrapped_n@AEAPEAD_J@std@@YA?A_TAEAPEAD_J@Z
	??$_Get_unwrapped_n@AEAPEAD_K@std@@YA?A_TAEAPEAD_K@Z
	??$_Get_unwrapped_n@AEAPEAHI@std@@YA?A_TAEAPEAHI@Z
	??$_Get_unwrapped_n@AEAPEAH_J@std@@YA?A_TAEAPEAH_J@Z
	??$_Get_unwrapped_n@AEAPEAH_K@std@@YA?A_TAEAPEAH_K@Z
	??$_Get_unwrapped_n@AEAPEAIH@std@@YA?A_TAEAPEAIH@Z
	??$_Get_unwrapped_n@AEAPEAI_J@std@@YA?A_TAEAPEAI_J@Z
	??$_Get_unwrapped_n@AEAPEAPEAPEBVImpl@time_zone@cctz@time_internal@lts_20250814@absl@@_J@std@@YA?A_TAEAPEAPEAPEBVImpl@time_zone@cctz@time_internal@lts_20250814@absl@@_J@Z
	??$_Get_unwrapped_n@AEAPEAPEAUPrefixCrc@CrcCordState@crc_internal@lts_20250814@absl@@_J@std@@YA?A_TAEAPEAPEAUPrefixCrc@CrcCordState@crc_internal@lts_20250814@absl@@_J@Z
	??$_Get_unwrapped_n@AEAPEBDH@std@@YA?A_TAEAPEBDH@Z
	??$_Get_unwrapped_n@AEAPEBD_J@std@@YA?A_TAEAPEBD_J@Z
	??$_Get_unwrapped_n@AEAPEBD_K@std@@YA?A_TAEAPEBD_K@Z
	??$_Get_unwrapped_n@AEAPEBIH@std@@YA?A_TAEAPEBIH@Z
	??$_Get_unwrapped_n@AEBV?$_String_const_iterator@V?$_String_val@U?$_Simple_types@D@std@@@std@@@std@@_J@std@@YA?A_TAEBV?$_String_const_iterator@V?$_String_val@U?$_Simple_types@D@std@@@std@@@0@_J@Z
	??$_Get_unwrapped_n@PEAD_J@std@@YA?A_T$$QEAPEAD_J@Z
	??$_Get_unwrapped_n@PEAI_J@std@@YA?A_T$$QEAPEAI_J@Z
	??$_Getvals@_W@?$time_get@DV?$istreambuf_iterator@DU?$char_traits@D@std@@@std@@@std@@IEAAX_WAEBV_Locinfo@1@@Z
	??$_Getvals@_W@?$time_get@_WV?$istreambuf_iterator@_WU?$char_traits@_W@std@@@std@@@std@@IEAAX_WAEBV_Locinfo@1@@Z
	??$_Hash_array_representation@D@std@@YA_KQEBD_K@Z
	??$_Hash_representation@H@std@@YA_KAEBH@Z
	??$_Hash_representation@PEBUCordRep@cord_internal@lts_20250814@absl@@@std@@YA_KAEBQEBUCordRep@cord_internal@lts_20250814@absl@@@Z
	??$_Idl_dist_add@_J_J@std@@YA?A_P_J0@Z
	??$_Idl_distance@PEAHPEAH@std@@YA?A_PAEBQEAH0@Z
	??$_Idl_distance@PEAIPEAI@std@@YA?A_PAEBQEAI0@Z
	??$_Idl_distance@PEAPEAPEBVImpl@time_zone@cctz@time_internal@lts_20250814@absl@@PEAPEAPEBV123456@@std@@YA?A_PAEBQEAPEAPEBVImpl@time_zone@cctz@time_internal@lts_20250814@absl@@0@Z
	??$_Idl_distance@PEAPEAUPrefixCrc@CrcCordState@crc_internal@lts_20250814@absl@@PEAPEAU12345@@std@@YA?A_PAEBQEAPEAUPrefixCrc@CrcCordState@crc_internal@lts_20250814@absl@@0@Z
	??$_Idl_distance@PEBDPEBD@std@@YA?A_PAEBQEBD0@Z
	??$_Idl_distance@PEBIPEBI@std@@YA?A_PAEBQEBI0@Z
	??$_Idl_distance@V?$_String_view_iterator@U?$char_traits@D@std@@@std@@PEBD@std@@YA?A_PAEBQEBD0@Z
	??$_In_range@H_K@std@@YA_N_K@Z
	??$_Insert_string@DU?$char_traits@D@std@@_K@std@@YAAEAV?$basic_ostream@DU?$char_traits@D@std@@@0@AEAV10@QEBD_K@Z
	??$_Is_all_bits_zero@H@std@@YA_NAEBH@Z
	??$_Is_all_bits_zero@I@std@@YA_NAEBI@Z
	??$_Is_all_bits_zero@_K@std@@YA_NAEB_K@Z
	??$_Kfn@$$CBV?$basic_string@DU?$char_traits@D@std@@V?$allocator@D@2@@std@@PEBVImpl@time_zone@cctz@time_internal@lts_20250814@absl@@@?$_Umap_traits@V?$basic_string@DU?$char_traits@D@std@@V?$allocator@D@2@@std@@PEBVImpl@time_zone@cctz@time_internal@lts_20250814@absl@@V?$_Uhash_compare@V?$basic_string@DU?$char_traits@D@std@@V?$allocator@D@2@@std@@U?$hash@V?$basic_string@DU?$char_traits@D@std@@V?$allocator@D@2@@std@@@2@U?$equal_to@V?$basic_string@DU?$char_traits@D@std@@V?$allocator@D@2@@std@@@2@@2@V?$allocator@U?$pair@$$CBV?$basic_string@DU?$char_traits@D@std@@V?$allocator@D@2@@std@@PEBVImpl@time_zone@cctz@time_internal@lts_20250814@absl@@@std@@@2@$0A@@std@@SAAEBV?$basic_string@DU?$char_traits@D@std@@V?$allocator@D@2@@1@AEBU?$pair@$$CBV?$basic_string@DU?$char_traits@D@std@@V?$allocator@D@2@@std@@PEBVImpl@time_zone@cctz@time_internal@lts_20250814@absl@@@1@@Z
	??$_Max_limit@_J@std@@YA_JXZ
	??$_Min_element_unchecked@PEBEU?$less@X@std@@@std@@YAPEBEPEBE0U?$less@X@0@@Z
	??$_Min_element_vectorized@$$CBE@std@@YAPEBEQEBE0@Z
	??$_Min_vectorized@$$CBE@std@@YA?A_PQEBE0@Z
	??$_Move_backward_unchecked@PEAHPEAH@std@@YAPEAHPEAH00@Z
	??$_Move_backward_unchecked@PEAUTransition@cctz@time_internal@lts_20250814@absl@@PEAU12345@@std@@YAPEAUTransition@cctz@time_internal@lts_20250814@absl@@PEAU12345@00@Z
	??$_Move_backward_unchecked@PEAUTransitionType@cctz@time_internal@lts_20250814@absl@@PEAU12345@@std@@YAPEAUTransitionType@cctz@time_internal@lts_20250814@absl@@PEAU12345@00@Z
	??$_Move_unchecked@PEAPEAVLogSink@lts_20250814@absl@@PEAPEAV123@@std@@YAPEAPEAVLogSink@lts_20250814@absl@@PEAPEAV123@00@Z
	??$_Next_iter@PEAH@std@@YAPEAHPEAH@Z
	??$_Next_iter@PEBUTransition@cctz@time_internal@lts_20250814@absl@@@std@@YAPEBUTransition@cctz@time_internal@lts_20250814@absl@@PEBU12345@@Z
	??$_Pass_fn@U?$less@X@std@@@std@@YA?A_PAEAU?$less@X@0@@Z
	??$_Pocca@V?$allocator@D@std@@@std@@YAXAEAV?$allocator@D@0@AEBV10@@Z
	??$_Pocca@V?$allocator@UPrefixCrc@CrcCordState@crc_internal@lts_20250814@absl@@@std@@@std@@YAXAEAV?$allocator@UPrefixCrc@CrcCordState@crc_internal@lts_20250814@absl@@@0@AEBV10@@Z
	??$_Pocma@V?$allocator@D@std@@@std@@YAXAEAV?$allocator@D@0@0@Z
	??$_Pocs@V?$allocator@D@std@@@std@@YAXAEAV?$allocator@D@0@0@Z
	??$_Prev_iter@PEAH@std@@YAPEAHPEAH@Z
	??$_Reallocate@$00@?$vector@UTransition@cctz@time_internal@lts_20250814@absl@@V?$allocator@UTransition@cctz@time_internal@lts_20250814@absl@@@std@@@std@@AEAAXAEA_K@Z
	??$_Reallocate@$0A@@?$vector@U?$pair@N_K@std@@V?$allocator@U?$pair@N_K@std@@@2@@std@@AEAAXAEA_K@Z
	??$_Reallocate@$0A@@?$vector@UTransition@cctz@time_internal@lts_20250814@absl@@V?$allocator@UTransition@cctz@time_internal@lts_20250814@absl@@@std@@@std@@AEAAXAEA_K@Z
	??$_Reallocate@$0A@@?$vector@UTransitionType@cctz@time_internal@lts_20250814@absl@@V?$allocator@UTransitionType@cctz@time_internal@lts_20250814@absl@@@std@@@std@@AEAAXAEA_K@Z
	??$_Reallocate@$0A@@?$vector@UViableSubstitution@strings_internal@lts_20250814@absl@@V?$allocator@UViableSubstitution@strings_internal@lts_20250814@absl@@@std@@@std@@AEAAXAEA_K@Z
	??$_Reallocate_for@V<lambda_66f57f934f28d61049862f64df852ff0>@@PEBD@?$basic_string@DU?$char_traits@D@std@@V?$allocator@D@2@@std@@AEAAAEAV01@_KV<lambda_66f57f934f28d61049862f64df852ff0>@@PEBD@Z
	??$_Reallocate_grow_by@V<lambda_319d5e083f45f90dcdce5dce53cbb275>@@D@?$basic_string@DU?$char_traits@D@std@@V?$allocator@D@2@@std@@AEAAAEAV01@_KV<lambda_319d5e083f45f90dcdce5dce53cbb275>@@D@Z
	??$_Reallocate_grow_by@V<lambda_65e615be2a453ca0576c979606f46740>@@PEBD_K@?$basic_string@DU?$char_traits@D@std@@V?$allocator@D@2@@std@@AEAAAEAV01@_KV<lambda_65e615be2a453ca0576c979606f46740>@@PEBD_K@Z
	??$_Reallocate_grow_by@V<lambda_9013ee9e23efe4882b67eff5b0ecf103>@@$$V@?$basic_string@DU?$char_traits@D@std@@V?$allocator@D@2@@std@@AEAAAEAV01@_KV<lambda_9013ee9e23efe4882b67eff5b0ecf103>@@@Z
	??$_Reallocate_grow_by@V<lambda_b986da8d428e4af07c64af60eec09b61>@@_K_KD@?$basic_string@DU?$char_traits@D@std@@V?$allocator@D@2@@std@@AEAAAEAV01@_KV<lambda_b986da8d428e4af07c64af60eec09b61>@@_K2D@Z
	??$_Reallocate_grow_by@V<lambda_e1befb086ad3257e3f042a63030725f7>@@_KD@?$basic_string@DU?$char_traits@D@std@@V?$allocator@D@2@@std@@AEAAAEAV01@_KV<lambda_e1befb086ad3257e3f042a63030725f7>@@_KD@Z
	??$_Reallocate_grow_by@V<lambda_f3a66ab6a0570788f31503db83886f49>@@_KPEBD_K@?$basic_string@DU?$char_traits@D@std@@V?$allocator@D@2@@std@@AEAAAEAV01@_KV<lambda_f3a66ab6a0570788f31503db83886f49>@@_KPEBD2@Z
	??$_Refancy@PEAD$0A@@std@@YAPEADPEAD@Z
	??$_Refancy@PEBD$0A@@std@@YAPEBDPEBD@Z
	??$_Refancy_maybe_null@PEAPEAVLogSink@lts_20250814@absl@@$0A@@std@@YAPEAPEAVLogSink@lts_20250814@absl@@PEAPEAV123@@Z
	??$_Resize@U_Value_init_tag@std@@@?$vector@UTransition@cctz@time_internal@lts_20250814@absl@@V?$allocator@UTransition@cctz@time_internal@lts_20250814@absl@@@std@@@std@@AEAAX_KAEBU_Value_init_tag@1@@Z
	??$_Resize@U_Value_init_tag@std@@@?$vector@UTransitionType@cctz@time_internal@lts_20250814@absl@@V?$allocator@UTransitionType@cctz@time_internal@lts_20250814@absl@@@std@@@std@@AEAAX_KAEBU_Value_init_tag@1@@Z
	??$_Resize_reallocate@U_Value_init_tag@std@@@?$vector@UTransition@cctz@time_internal@lts_20250814@absl@@V?$allocator@UTransition@cctz@time_internal@lts_20250814@absl@@@std@@@std@@AEAAX_KAEBU_Value_init_tag@1@@Z
	??$_Resize_reallocate@U_Value_init_tag@std@@@?$vector@UTransitionType@cctz@time_internal@lts_20250814@absl@@V?$allocator@UTransitionType@cctz@time_internal@lts_20250814@absl@@@std@@@std@@AEAAX_KAEBU_Value_init_tag@1@@Z
	??$_Reverse_vectorized@$00@std@@YAXPEAX0@Z
	??$_Search_vectorized@$$CBD$$CBD@std@@YAPEBDQEBD00_K@Z
	??$_Seek_to@PEBD$0A@@?$reverse_iterator@V?$_String_view_iterator@U?$char_traits@D@std@@@std@@@std@@QEAAXAEBV?$reverse_iterator@PEBD@1@@Z
	??$_Seek_wrapped@PEADAEAPEAD@std@@YAXAEAPEAD0@Z
	??$_Seek_wrapped@PEADPEAD@std@@YAXAEAPEAD$$QEAPEAD@Z
	??$_Seek_wrapped@PEAHAEAPEAH@std@@YAXAEAPEAH0@Z
	??$_Seek_wrapped@PEAHPEAH@std@@YAXAEAPEAH$$QEAPEAH@Z
	??$_Seek_wrapped@PEAIAEAPEAI@std@@YAXAEAPEAI0@Z
	??$_Seek_wrapped@PEAIPEAI@std@@YAXAEAPEAI$$QEAPEAI@Z
	??$_Seek_wrapped@PEAPEAPEBVImpl@time_zone@cctz@time_internal@lts_20250814@absl@@PEAPEAPEBV123456@@std@@YAXAEAPEAPEAPEBVImpl@time_zone@cctz@time_internal@lts_20250814@absl@@$$QEAPEAPEAPEBV123456@@Z
	??$_Seek_wrapped@PEAPEAUPrefixCrc@CrcCordState@crc_internal@lts_20250814@absl@@PEAPEAU12345@@std@@YAXAEAPEAPEAUPrefixCrc@CrcCordState@crc_internal@lts_20250814@absl@@$$QEAPEAPEAU12345@@Z
	??$_Seek_wrapped@PEBDPEBD@std@@YAXAEAPEBD$$QEAPEBD@Z
	??$_Seek_wrapped@PEBUTransition@cctz@time_internal@lts_20250814@absl@@AEAPEBU12345@@std@@YAXAEAPEBUTransition@cctz@time_internal@lts_20250814@absl@@0@Z
	??$_Seek_wrapped@PEB_WPEB_W@std@@YAXAEAPEB_W$$QEAPEB_W@Z
	??$_Seek_wrapped@V?$_String_view_iterator@U?$char_traits@D@std@@@std@@AEAPEBD@std@@YAXAEAV?$_String_view_iterator@U?$char_traits@D@std@@@0@AEAPEBD@Z
	??$_Seek_wrapped@V?$_Vector_iterator@V?$_Vector_val@U?$_Simple_types@PEAVLogSink@lts_20250814@absl@@@std@@@std@@@std@@PEAPEAVLogSink@lts_20250814@absl@@@std@@YAXAEAV?$_Vector_iterator@V?$_Vector_val@U?$_Simple_types@PEAVLogSink@lts_20250814@absl@@@std@@@std@@@0@$$QEAPEAPEAVLogSink@lts_20250814@absl@@@Z
	??$_Seek_wrapped@V?$reverse_iterator@V?$_String_view_iterator@U?$char_traits@D@std@@@std@@@std@@AEAV?$reverse_iterator@PEBD@2@@std@@YAXAEAV?$reverse_iterator@V?$_String_view_iterator@U?$char_traits@D@std@@@std@@@0@AEAV?$reverse_iterator@PEBD@0@@Z
	??$_To_absolute_time@_JU?$ratio@$00$0DLJKMKAA@@std@@@std@@YA?A_PAEBV?$duration@_JU?$ratio@$00$0DLJKMKAA@@std@@@chrono@0@@Z
	??$_To_address@PEAD@std@@YA?A_PAEBQEAD@Z
	??$_To_address@PEAE@std@@YA?A_PAEBQEAE@Z
	??$_To_address@PEAH@std@@YA?A_PAEBQEAH@Z
	??$_To_address@PEAI@std@@YA?A_PAEBQEAI@Z
	??$_To_address@PEAPEAPEBVImpl@time_zone@cctz@time_internal@lts_20250814@absl@@@std@@YA?A_PAEBQEAPEAPEBVImpl@time_zone@cctz@time_internal@lts_20250814@absl@@@Z
	??$_To_address@PEAPEAUPrefixCrc@CrcCordState@crc_internal@lts_20250814@absl@@@std@@YA?A_PAEBQEAPEAUPrefixCrc@CrcCordState@crc_internal@lts_20250814@absl@@@Z
	??$_To_address@PEAPEAVCordzHandle@cord_internal@lts_20250814@absl@@@std@@YA?A_PAEBQEAPEAVCordzHandle@cord_internal@lts_20250814@absl@@@Z
	??$_To_address@PEAPEAVLogSink@lts_20250814@absl@@@std@@YA?A_PAEBQEAPEAVLogSink@lts_20250814@absl@@@Z
	??$_To_address@PEAPEBVCordzHandle@cord_internal@lts_20250814@absl@@@std@@YA?A_PAEBQEAPEBVCordzHandle@cord_internal@lts_20250814@absl@@@Z
	??$_To_address@PEAU?$pair@N_K@std@@@std@@YA?A_PAEBQEAU?$pair@N_K@0@@Z
	??$_To_address@PEAU?$pair@V?$basic_string_view@DU?$char_traits@D@std@@@std@@H@std@@@std@@YA?A_PAEBQEAU?$pair@V?$basic_string_view@DU?$char_traits@D@std@@@std@@H@0@@Z
	??$_To_address@PEAU?$pair@W4StringId@debugging_internal@lts_20250814@absl@@_J@std@@@std@@YA?A_PAEBQEAU?$pair@W4StringId@debugging_internal@lts_20250814@absl@@_J@0@@Z
	??$_To_address@PEAUConversionItem@ParsedFormatBase@str_format_internal@lts_20250814@absl@@@std@@YA?A_PAEBQEAUConversionItem@ParsedFormatBase@str_format_internal@lts_20250814@absl@@@Z
	??$_To_address@PEAUTransition@cctz@time_internal@lts_20250814@absl@@@std@@YA?A_PAEBQEAUTransition@cctz@time_internal@lts_20250814@absl@@@Z
	??$_To_address@PEAUTransitionType@cctz@time_internal@lts_20250814@absl@@@std@@YA?A_PAEBQEAUTransitionType@cctz@time_internal@lts_20250814@absl@@@Z
	??$_To_address@PEAUViableSubstitution@strings_internal@lts_20250814@absl@@@std@@YA?A_PAEBQEAUViableSubstitution@strings_internal@lts_20250814@absl@@@Z
	??$_To_address@PEA_K@std@@YA?A_PAEBQEA_K@Z
	??$_To_address@PEBD@std@@YA?A_PAEBQEBD@Z
	??$_To_address@PEBE@std@@YA?A_PAEBQEBE@Z
	??$_To_address@PEBI@std@@YA?A_PAEBQEBI@Z
	??$_To_address@PEB_W@std@@YA?A_PAEBQEB_W@Z
	??$_Traits_compare@U?$char_traits@D@std@@@std@@YAHQEBD_K01@Z
	??$_Traits_equal@U?$char_traits@D@std@@@std@@YA_NQEBD_K01@Z
	??$_Traits_find@U?$char_traits@D@std@@@std@@YA_KQEBD_K101@Z
	??$_Traits_find_ch@U?$char_traits@D@std@@@std@@YA_KQEBD_K1D@Z
	??$_Traits_find_first_of@U?$char_traits@D@std@@@std@@YA_KQEBD_K101@Z
	??$_Traits_find_last_of@U?$char_traits@D@std@@@std@@YA_KQEBD_K101@Z
	??$_Traits_find_not_ch@U?$char_traits@D@std@@@std@@YA_KQEBD_K1D@Z
	??$_Traits_rfind_ch@U?$char_traits@D@std@@@std@@YA_KQEBD_K1D@Z
	??$_Try_emplace@AEBV?$basic_string@DU?$char_traits@D@std@@V?$allocator@D@2@@std@@$$V@?$_Hash@V?$_Umap_traits@V?$basic_string@DU?$char_traits@D@std@@V?$allocator@D@2@@std@@PEBVImpl@time_zone@cctz@time_internal@lts_20250814@absl@@V?$_Uhash_compare@V?$basic_string@DU?$char_traits@D@std@@V?$allocator@D@2@@std@@U?$hash@V?$basic_string@DU?$char_traits@D@std@@V?$allocator@D@2@@std@@@2@U?$equal_to@V?$basic_string@DU?$char_traits@D@std@@V?$allocator@D@2@@std@@@2@@2@V?$allocator@U?$pair@$$CBV?$basic_string@DU?$char_traits@D@std@@V?$allocator@D@2@@std@@PEBVImpl@time_zone@cctz@time_internal@lts_20250814@absl@@@std@@@2@$0A@@std@@@std@@IEAA?AU?$pair@PEAU?$_List_node@U?$pair@$$CBV?$basic_string@DU?$char_traits@D@std@@V?$allocator@D@2@@std@@PEBVImpl@time_zone@cctz@time_internal@lts_20250814@absl@@@std@@PEAX@std@@_N@1@AEBV?$basic_string@DU?$char_traits@D@std@@V?$allocator@D@2@@1@@Z
	??$_Tuple_get@$0A@$$QEAW4LocationId@debugging_internal@lts_20250814@absl@@@std@@YA$$QEA_P$$QEAV?$tuple@$$QEAW4LocationId@debugging_internal@lts_20250814@absl@@@0@@Z
	??$_Tuple_get@$0A@$$QEAW4StringId@debugging_internal@lts_20250814@absl@@@std@@YA$$QEA_P$$QEAV?$tuple@$$QEAW4StringId@debugging_internal@lts_20250814@absl@@@0@@Z
	??$_Tuple_get@$0A@$$QEA_K@std@@YA$$QEA_P$$QEAV?$tuple@$$QEA_K@0@@Z
	??$_Tuple_get@$0A@AEAV?$basic_string_view@DU?$char_traits@D@std@@@std@@@std@@YA$$QEA_P$$QEAV?$tuple@AEAV?$basic_string_view@DU?$char_traits@D@std@@@std@@@0@@Z
	??$_Tuple_get@$0A@AEBV?$basic_string@DU?$char_traits@D@std@@V?$allocator@D@2@@std@@@std@@YA$$QEA_P$$QEAV?$tuple@AEBV?$basic_string@DU?$char_traits@D@std@@V?$allocator@D@2@@std@@@0@@Z
	??$_Tuple_get@$0A@AEBW4LocationId@debugging_internal@lts_20250814@absl@@@std@@YA$$QEA_P$$QEAV?$tuple@AEBW4LocationId@debugging_internal@lts_20250814@absl@@@0@@Z
	??$_Tuple_get@$0A@AEBW4StringId@debugging_internal@lts_20250814@absl@@@std@@YA$$QEA_P$$QEAV?$tuple@AEBW4StringId@debugging_internal@lts_20250814@absl@@@0@@Z
	??$_Tuple_get@$0A@AEB_K@std@@YA$$QEA_P$$QEAV?$tuple@AEB_K@0@@Z
	??$_Unfancy@D@std@@YAPEADPEAD@Z
	??$_Unfancy@I@std@@YAPEAIPEAI@Z
	??$_Unfancy@PEAVCordzHandle@cord_internal@lts_20250814@absl@@@std@@YAPEAPEAVCordzHandle@cord_internal@lts_20250814@absl@@PEAPEAV1234@@Z
	??$_Unfancy@PEAVLogSink@lts_20250814@absl@@@std@@YAPEAPEAVLogSink@lts_20250814@absl@@PEAPEAV123@@Z
	??$_Unfancy@PEBVCordzHandle@cord_internal@lts_20250814@absl@@@std@@YAPEAPEBVCordzHandle@cord_internal@lts_20250814@absl@@PEAPEBV1234@@Z
	??$_Unfancy@PEBVImpl@time_zone@cctz@time_internal@lts_20250814@absl@@@std@@YAPEAPEBVImpl@time_zone@cctz@time_internal@lts_20250814@absl@@PEAPEBV123456@@Z
	??$_Unfancy@U?$pair@N_K@std@@@std@@YAPEAU?$pair@N_K@0@PEAU10@@Z
	??$_Unfancy@U?$pair@V?$basic_string_view@DU?$char_traits@D@std@@@std@@H@std@@@std@@YAPEAU?$pair@V?$basic_string_view@DU?$char_traits@D@std@@@std@@H@0@PEAU10@@Z
	??$_Unfancy@U?$pair@W4StringId@debugging_internal@lts_20250814@absl@@_J@std@@@std@@YAPEAU?$pair@W4StringId@debugging_internal@lts_20250814@absl@@_J@0@PEAU10@@Z
	??$_Unfancy@UConversionItem@ParsedFormatBase@str_format_internal@lts_20250814@absl@@@std@@YAPEAUConversionItem@ParsedFormatBase@str_format_internal@lts_20250814@absl@@PEAU12345@@Z
	??$_Unfancy@UMapping@ProfileBuilder@debugging_internal@lts_20250814@absl@@@std@@YAPEAUMapping@ProfileBuilder@debugging_internal@lts_20250814@absl@@PEAU12345@@Z
	??$_Unfancy@UPrefixCrc@CrcCordState@crc_internal@lts_20250814@absl@@@std@@YAPEAUPrefixCrc@CrcCordState@crc_internal@lts_20250814@absl@@PEAU12345@@Z
	??$_Unfancy@UTransition@cctz@time_internal@lts_20250814@absl@@@std@@YAPEAUTransition@cctz@time_internal@lts_20250814@absl@@PEAU12345@@Z
	??$_Unfancy@UTransitionType@cctz@time_internal@lts_20250814@absl@@@std@@YAPEAUTransitionType@cctz@time_internal@lts_20250814@absl@@PEAU12345@@Z
	??$_Unfancy@UViableSubstitution@strings_internal@lts_20250814@absl@@@std@@YAPEAUViableSubstitution@strings_internal@lts_20250814@absl@@PEAU1234@@Z
	??$_Unfancy@U_Container_proxy@std@@@std@@YAPEAU_Container_proxy@0@PEAU10@@Z
	??$_Unfancy@V?$basic_string@DU?$char_traits@D@std@@V?$allocator@D@2@@std@@@std@@YAPEAV?$basic_string@DU?$char_traits@D@std@@V?$allocator@D@2@@0@PEAV10@@Z
	??$_Unfancy@V?$basic_string_view@DU?$char_traits@D@std@@@std@@@std@@YAPEAV?$basic_string_view@DU?$char_traits@D@std@@@0@PEAV10@@Z
	??$_Unfancy@V?$function@$$A6AXXZ@std@@@std@@YAPEAV?$function@$$A6AXXZ@0@PEAV10@@Z
	??$_Unfancy@V?$unique_ptr@VCRCImpl@crc_internal@lts_20250814@absl@@U?$default_delete@VCRCImpl@crc_internal@lts_20250814@absl@@@std@@@std@@@std@@YAPEAV?$unique_ptr@VCRCImpl@crc_internal@lts_20250814@absl@@U?$default_delete@VCRCImpl@crc_internal@lts_20250814@absl@@@std@@@0@PEAV10@@Z
	??$_Unfancy@_K@std@@YAPEA_KPEA_K@Z
	??$_Unfancy@_W@std@@YAPEA_WPEA_W@Z
	??$_Unfancy_maybe_null@$$CBD@std@@YAPEBDPEBD@Z
	??$_Unfancy_maybe_null@D@std@@YAPEADPEAD@Z
	??$_Unfancy_maybe_null@N@std@@YAPEANPEAN@Z
	??$_Unfancy_maybe_null@PEAVCordzHandle@cord_internal@lts_20250814@absl@@@std@@YAPEAPEAVCordzHandle@cord_internal@lts_20250814@absl@@PEAPEAV1234@@Z
	??$_Unfancy_maybe_null@PEAVLogSink@lts_20250814@absl@@@std@@YAPEAPEAVLogSink@lts_20250814@absl@@PEAPEAV123@@Z
	??$_Unfancy_maybe_null@U?$pair@V?$basic_string_view@DU?$char_traits@D@std@@@std@@H@std@@@std@@YAPEAU?$pair@V?$basic_string_view@DU?$char_traits@D@std@@@std@@H@0@PEAU10@@Z
	??$_Unfancy_maybe_null@U?$pair@W4StringId@debugging_internal@lts_20250814@absl@@_J@std@@@std@@YAPEAU?$pair@W4StringId@debugging_internal@lts_20250814@absl@@_J@0@PEAU10@@Z
	??$_Unfancy_maybe_null@UConversionItem@ParsedFormatBase@str_format_internal@lts_20250814@absl@@@std@@YAPEAUConversionItem@ParsedFormatBase@str_format_internal@lts_20250814@absl@@PEAU12345@@Z
	??$_Unfancy_maybe_null@UTransitionType@cctz@time_internal@lts_20250814@absl@@@std@@YAPEAUTransitionType@cctz@time_internal@lts_20250814@absl@@PEAU12345@@Z
	??$_Unfancy_maybe_null@V?$basic_string@DU?$char_traits@D@std@@V?$allocator@D@2@@std@@@std@@YAPEAV?$basic_string@DU?$char_traits@D@std@@V?$allocator@D@2@@0@PEAV10@@Z
	??$_Unfancy_maybe_null@V?$basic_string_view@DU?$char_traits@D@std@@@std@@@std@@YAPEAV?$basic_string_view@DU?$char_traits@D@std@@@0@PEAV10@@Z
	??$_Unfancy_maybe_null@V?$function@$$A6AXXZ@std@@@std@@YAPEAV?$function@$$A6AXXZ@0@PEAV10@@Z
	??$_Unfancy_maybe_null@_K@std@@YAPEA_KPEA_K@Z
	??$_Ungetc@D@std@@YA_NAEBDPEAU_iobuf@@@Z
	??$_Uninitialized_copy_unchecked@PEAPEAPEBVImpl@time_zone@cctz@time_internal@lts_20250814@absl@@PEAPEAPEBV123456@@std@@YAPEAPEAPEBVImpl@time_zone@cctz@time_internal@lts_20250814@absl@@PEAPEAPEBV123456@QEAPEAPEBV123456@0@Z
	??$_Uninitialized_copy_unchecked@PEAPEAUPrefixCrc@CrcCordState@crc_internal@lts_20250814@absl@@PEAPEAU12345@@std@@YAPEAPEAUPrefixCrc@CrcCordState@crc_internal@lts_20250814@absl@@PEAPEAU12345@QEAPEAU12345@0@Z
	??$_Uninitialized_move@PEAIV?$allocator@I@std@@@std@@YAPEAIQEAI0PEAIAEAV?$allocator@I@0@@Z
	??$_Uninitialized_move@PEAPEAVCordzHandle@cord_internal@lts_20250814@absl@@V?$allocator@PEAVCordzHandle@cord_internal@lts_20250814@absl@@@std@@@std@@YAPEAPEAVCordzHandle@cord_internal@lts_20250814@absl@@QEAPEAV1234@0PEAPEAV1234@AEAV?$allocator@PEAVCordzHandle@cord_internal@lts_20250814@absl@@@0@@Z
	??$_Uninitialized_move@PEAPEAVLogSink@lts_20250814@absl@@V?$allocator@PEAVLogSink@lts_20250814@absl@@@std@@@std@@YAPEAPEAVLogSink@lts_20250814@absl@@QEAPEAV123@0PEAPEAV123@AEAV?$allocator@PEAVLogSink@lts_20250814@absl@@@0@@Z
	??$_Uninitialized_move@PEAPEBVCordzHandle@cord_internal@lts_20250814@absl@@V?$allocator@PEBVCordzHandle@cord_internal@lts_20250814@absl@@@std@@@std@@YAPEAPEBVCordzHandle@cord_internal@lts_20250814@absl@@QEAPEBV1234@0PEAPEBV1234@AEAV?$allocator@PEBVCordzHandle@cord_internal@lts_20250814@absl@@@0@@Z
	??$_Uninitialized_move@PEAU?$pair@N_K@std@@V?$allocator@U?$pair@N_K@std@@@2@@std@@YAPEAU?$pair@N_K@0@QEAU10@0PEAU10@AEAV?$allocator@U?$pair@N_K@std@@@0@@Z
	??$_Uninitialized_move@PEAU?$pair@V?$basic_string_view@DU?$char_traits@D@std@@@std@@H@std@@V?$allocator@U?$pair@V?$basic_string_view@DU?$char_traits@D@std@@@std@@H@std@@@2@@std@@YAPEAU?$pair@V?$basic_string_view@DU?$char_traits@D@std@@@std@@H@0@QEAU10@0PEAU10@AEAV?$allocator@U?$pair@V?$basic_string_view@DU?$char_traits@D@std@@@std@@H@std@@@0@@Z
	??$_Uninitialized_move@PEAU?$pair@W4StringId@debugging_internal@lts_20250814@absl@@_J@std@@V?$allocator@U?$pair@W4StringId@debugging_internal@lts_20250814@absl@@_J@std@@@2@@std@@YAPEAU?$pair@W4StringId@debugging_internal@lts_20250814@absl@@_J@0@QEAU10@0PEAU10@AEAV?$allocator@U?$pair@W4StringId@debugging_internal@lts_20250814@absl@@_J@std@@@0@@Z
	??$_Uninitialized_move@PEAUConversionItem@ParsedFormatBase@str_format_internal@lts_20250814@absl@@V?$allocator@UConversionItem@ParsedFormatBase@str_format_internal@lts_20250814@absl@@@std@@@std@@YAPEAUConversionItem@ParsedFormatBase@str_format_internal@lts_20250814@absl@@QEAU12345@0PEAU12345@AEAV?$allocator@UConversionItem@ParsedFormatBase@str_format_internal@lts_20250814@absl@@@0@@Z
	??$_Uninitialized_move@PEAUMapping@ProfileBuilder@debugging_internal@lts_20250814@absl@@V?$allocator@UMapping@ProfileBuilder@debugging_internal@lts_20250814@absl@@@std@@@std@@YAPEAUMapping@ProfileBuilder@debugging_internal@lts_20250814@absl@@QEAU12345@0PEAU12345@AEAV?$allocator@UMapping@ProfileBuilder@debugging_internal@lts_20250814@absl@@@0@@Z
	??$_Uninitialized_move@PEAUTransition@cctz@time_internal@lts_20250814@absl@@V?$allocator@UTransition@cctz@time_internal@lts_20250814@absl@@@std@@@std@@YAPEAUTransition@cctz@time_internal@lts_20250814@absl@@QEAU12345@0PEAU12345@AEAV?$allocator@UTransition@cctz@time_internal@lts_20250814@absl@@@0@@Z
	??$_Uninitialized_move@PEAUTransitionType@cctz@time_internal@lts_20250814@absl@@V?$allocator@UTransitionType@cctz@time_internal@lts_20250814@absl@@@std@@@std@@YAPEAUTransitionType@cctz@time_internal@lts_20250814@absl@@QEAU12345@0PEAU12345@AEAV?$allocator@UTransitionType@cctz@time_internal@lts_20250814@absl@@@0@@Z
	??$_Uninitialized_move@PEAUViableSubstitution@strings_internal@lts_20250814@absl@@V?$allocator@UViableSubstitution@strings_internal@lts_20250814@absl@@@std@@@std@@YAPEAUViableSubstitution@strings_internal@lts_20250814@absl@@QEAU1234@0PEAU1234@AEAV?$allocator@UViableSubstitution@strings_internal@lts_20250814@absl@@@0@@Z
	??$_Uninitialized_move@PEAV?$basic_string@DU?$char_traits@D@std@@V?$allocator@D@2@@std@@V?$allocator@V?$basic_string@DU?$char_traits@D@std@@V?$allocator@D@2@@std@@@2@@std@@YAPEAV?$basic_string@DU?$char_traits@D@std@@V?$allocator@D@2@@0@QEAV10@0PEAV10@AEAV?$allocator@V?$basic_string@DU?$char_traits@D@std@@V?$allocator@D@2@@std@@@0@@Z
	??$_Uninitialized_move@PEAV?$function@$$A6AXXZ@std@@V?$allocator@V?$function@$$A6AXXZ@std@@@2@@std@@YAPEAV?$function@$$A6AXXZ@0@QEAV10@0PEAV10@AEAV?$allocator@V?$function@$$A6AXXZ@std@@@0@@Z
	??$_Uninitialized_move@PEA_KV?$allocator@_K@std@@@std@@YAPEA_KQEA_K0PEA_KAEAV?$allocator@_K@0@@Z
	??$_Uninitialized_value_construct_n@V?$allocator@D@std@@@std@@YAPEADPEAD_KAEAV?$allocator@D@0@@Z
	??$_Uninitialized_value_construct_n@V?$allocator@UTransition@cctz@time_internal@lts_20250814@absl@@@std@@@std@@YAPEAUTransition@cctz@time_internal@lts_20250814@absl@@PEAU12345@_KAEAV?$allocator@UTransition@cctz@time_internal@lts_20250814@absl@@@0@@Z
	??$_Uninitialized_value_construct_n@V?$allocator@UTransitionType@cctz@time_internal@lts_20250814@absl@@@std@@@std@@YAPEAUTransitionType@cctz@time_internal@lts_20250814@absl@@PEAU12345@_KAEAV?$allocator@UTransitionType@cctz@time_internal@lts_20250814@absl@@@0@@Z
	??$_Uninitialized_value_construct_n@V?$allocator@V?$basic_string_view@DU?$char_traits@D@std@@@std@@@std@@@std@@YAPEAV?$basic_string_view@DU?$char_traits@D@std@@@0@PEAV10@_KAEAV?$allocator@V?$basic_string_view@DU?$char_traits@D@std@@@std@@@0@@Z
	??$_Uninitialized_value_construct_n_unchecked1@PEAPEAPEBVImpl@time_zone@cctz@time_internal@lts_20250814@absl@@_K@std@@YAPEAPEAPEBVImpl@time_zone@cctz@time_internal@lts_20250814@absl@@PEAPEAPEBV123456@_K@Z
	??$_Uninitialized_value_construct_n_unchecked1@PEAPEAUPrefixCrc@CrcCordState@crc_internal@lts_20250814@absl@@_K@std@@YAPEAPEAUPrefixCrc@CrcCordState@crc_internal@lts_20250814@absl@@PEAPEAU12345@_K@Z
	??$_Unwrapped@V?$_String_view_iterator@U?$char_traits@D@std@@@std@@$0A@@?$reverse_iterator@V?$_String_view_iterator@U?$char_traits@D@std@@@std@@@std@@QEGBA?AV?$reverse_iterator@PEBD@1@XZ
	??$_Variant_raw_get@$00AEAV?$_Variant_storage_@$00IHM@std@@@std@@YA?A_TAEAV?$_Variant_storage_@$00IHM@0@@Z
	??$_Variant_raw_get@$00AEAV?$_Variant_storage_@$00V?$variant@_K_JIH_N@std@@V?$variant@_K_JN@2@V?$Span@$$CBD@lts_20250814@absl@@V?$variant@IHM@2@@std@@@std@@YA?A_TAEAV?$_Variant_storage_@$00V?$variant@_K_JIH_N@std@@V?$variant@_K_JN@2@V?$Span@$$CBD@lts_20250814@absl@@V?$variant@IHM@2@@0@@Z
	??$_Variant_raw_get@$00AEAV?$_Variant_storage_@$00_K_JIH_N@std@@@std@@YA?A_TAEAV?$_Variant_storage_@$00_K_JIH_N@0@@Z
	??$_Variant_raw_get@$00AEAV?$_Variant_storage_@$00_K_JN@std@@@std@@YA?A_TAEAV?$_Variant_storage_@$00_K_JN@0@@Z
	??$_Variant_raw_get@$01AEAV?$_Variant_storage_@$00IHM@std@@@std@@YA?A_TAEAV?$_Variant_storage_@$00IHM@0@@Z
	??$_Variant_raw_get@$01AEAV?$_Variant_storage_@$00V?$variant@_K_JIH_N@std@@V?$variant@_K_JN@2@V?$Span@$$CBD@lts_20250814@absl@@V?$variant@IHM@2@@std@@@std@@YA?A_TAEAV?$_Variant_storage_@$00V?$variant@_K_JIH_N@std@@V?$variant@_K_JN@2@V?$Span@$$CBD@lts_20250814@absl@@V?$variant@IHM@2@@0@@Z
	??$_Variant_raw_get@$01AEAV?$_Variant_storage_@$00_K_JIH_N@std@@@std@@YA?A_TAEAV?$_Variant_storage_@$00_K_JIH_N@0@@Z
	??$_Variant_raw_get@$01AEAV?$_Variant_storage_@$00_K_JN@std@@@std@@YA?A_TAEAV?$_Variant_storage_@$00_K_JN@0@@Z
	??$_Variant_raw_get@$02AEAV?$_Variant_storage_@$00V?$variant@_K_JIH_N@std@@V?$variant@_K_JN@2@V?$Span@$$CBD@lts_20250814@absl@@V?$variant@IHM@2@@std@@@std@@YA?A_TAEAV?$_Variant_storage_@$00V?$variant@_K_JIH_N@std@@V?$variant@_K_JN@2@V?$Span@$$CBD@lts_20250814@absl@@V?$variant@IHM@2@@0@@Z
	??$_Variant_raw_get@$02AEAV?$_Variant_storage_@$00_K_JIH_N@std@@@std@@YA?A_TAEAV?$_Variant_storage_@$00_K_JIH_N@0@@Z
	??$_Variant_raw_get@$03AEAV?$_Variant_storage_@$00_K_JIH_N@std@@@std@@YA?A_TAEAV?$_Variant_storage_@$00_K_JIH_N@0@@Z
	??$_Variant_raw_get@$0A@AEAV?$_Variant_storage_@$00IHM@std@@@std@@YA?A_TAEAV?$_Variant_storage_@$00IHM@0@@Z
	??$_Variant_raw_get@$0A@AEAV?$_Variant_storage_@$00V?$variant@_K_JIH_N@std@@V?$variant@_K_JN@2@V?$Span@$$CBD@lts_20250814@absl@@V?$variant@IHM@2@@std@@@std@@YA?A_TAEAV?$_Variant_storage_@$00V?$variant@_K_JIH_N@std@@V?$variant@_K_JN@2@V?$Span@$$CBD@lts_20250814@absl@@V?$variant@IHM@2@@0@@Z
	??$_Variant_raw_get@$0A@AEAV?$_Variant_storage_@$00_K_JIH_N@std@@@std@@YA?A_TAEAV?$_Variant_storage_@$00_K_JIH_N@0@@Z
	??$_Variant_raw_get@$0A@AEAV?$_Variant_storage_@$00_K_JN@std@@@std@@YA?A_TAEAV?$_Variant_storage_@$00_K_JN@0@@Z
	??$_Variant_visit_index1@V?$variant@IHM@std@@$$V@std@@YA_K_KAEBV?$variant@IHM@0@@Z
	??$_Variant_visit_index1@V?$variant@V?$variant@_K_JIH_N@std@@V?$variant@_K_JN@2@V?$Span@$$CBD@lts_20250814@absl@@V?$variant@IHM@2@@std@@$$V@std@@YA_K_KAEBV?$variant@V?$variant@_K_JIH_N@std@@V?$variant@_K_JN@2@V?$Span@$$CBD@lts_20250814@absl@@V?$variant@IHM@2@@0@@Z
	??$_Variant_visit_index1@V?$variant@_K_JIH_N@std@@$$V@std@@YA_K_KAEBV?$variant@_K_JIH_N@0@@Z
	??$_Variant_visit_index1@V?$variant@_K_JN@std@@$$V@std@@YA_K_KAEBV?$variant@_K_JN@0@@Z
	??$_Visit2@_KU?$_Meta_list@U?$integer_sequence@_K$0A@@std@@U?$integer_sequence@_K$00@2@U?$integer_sequence@_K$01@2@U?$integer_sequence@_K$02@2@U?$integer_sequence@_K$03@2@@std@@UBufferSizeVisitor@?1??BufferSizeForStructuredProtoField@log_internal@lts_20250814@absl@@YA_KUStructuredProtoField@567@@Z@AEAV?$variant@V?$variant@_K_JIH_N@std@@V?$variant@_K_JN@2@V?$Span@$$CBD@lts_20250814@absl@@V?$variant@IHM@2@@2@@?$_Visit_strategy@$01@std@@SA_K_K$$QEAUBufferSizeVisitor@?1??BufferSizeForStructuredProtoField@log_internal@lts_20250814@absl@@YA_KUStructuredProtoField@456@@Z@AEAV?$variant@V?$variant@_K_JIH_N@std@@V?$variant@_K_JN@2@V?$Span@$$CBD@lts_20250814@absl@@V?$variant@IHM@2@@1@@Z
	??$_Visit_impl@$04_KU?$_Meta_list@U?$integer_sequence@_K$0A@@std@@U?$integer_sequence@_K$00@2@U?$integer_sequence@_K$01@2@U?$integer_sequence@_K$02@2@U?$integer_sequence@_K$03@2@@std@@UBufferSizeVisitor@?1??BufferSizeForStructuredProtoField@log_internal@lts_20250814@absl@@YA_KUStructuredProtoField@567@@Z@AEAV?$variant@V?$variant@_K_JIH_N@std@@V?$variant@_K_JN@2@V?$Span@$$CBD@lts_20250814@absl@@V?$variant@IHM@2@@2@@std@@YA_K$$QEAUBufferSizeVisitor@?1??BufferSizeForStructuredProtoField@log_internal@lts_20250814@absl@@YA_KUStructuredProtoField@345@@Z@AEAV?$variant@V?$variant@_K_JIH_N@std@@V?$variant@_K_JN@2@V?$Span@$$CBD@lts_20250814@absl@@V?$variant@IHM@2@@0@@Z
	??$_Zero_range@PEAD@std@@YAPEADQEAD0@Z
	??$_Zero_range@PEAPEAPEBVImpl@time_zone@cctz@time_internal@lts_20250814@absl@@@std@@YAPEAPEAPEBVImpl@time_zone@cctz@time_internal@lts_20250814@absl@@QEAPEAPEBV123456@0@Z
	??$_Zero_range@PEAPEAUPrefixCrc@CrcCordState@crc_internal@lts_20250814@absl@@@std@@YAPEAPEAUPrefixCrc@CrcCordState@crc_internal@lts_20250814@absl@@QEAPEAU12345@0@Z
	??$accumulate@V?$_Vector_iterator@V?$_Vector_val@U?$_Simple_types@N@std@@@std@@@std@@N@std@@YANV?$_Vector_iterator@V?$_Vector_val@U?$_Simple_types@N@std@@@std@@@0@0N@Z
	??$accumulate@V?$_Vector_iterator@V?$_Vector_val@U?$_Simple_types@N@std@@@std@@@std@@NU?$plus@X@2@@std@@YANV?$_Vector_iterator@V?$_Vector_val@U?$_Simple_types@N@std@@@std@@@0@0NU?$plus@X@0@@Z
	??$addressof@$$BY0BA@E@std@@YAPEAY0BA@EAEAY0BA@E@Z
	??$addressof@$$CBG@std@@YAPEBGAEBG@Z
	??$addressof@$$CBI@std@@YAPEBIAEBI@Z
	??$addressof@$$CBM@std@@YAPEBMAEBM@Z
	??$addressof@$$CBN@std@@YAPEBNAEBN@Z
	??$addressof@$$CBU?$pair@$$CBV?$basic_string@DU?$char_traits@D@std@@V?$allocator@D@2@@std@@PEBVImpl@time_zone@cctz@time_internal@lts_20250814@absl@@@std@@@std@@YAPEBU?$pair@$$CBV?$basic_string@DU?$char_traits@D@std@@V?$allocator@D@2@@std@@PEBVImpl@time_zone@cctz@time_internal@lts_20250814@absl@@@0@AEBU10@@Z
	??$addressof@$$CBV?$_Deque_val@U?$_Deque_simple_types@UPrefixCrc@CrcCordState@crc_internal@lts_20250814@absl@@@std@@@std@@@std@@YAPEBV?$_Deque_val@U?$_Deque_simple_types@UPrefixCrc@CrcCordState@crc_internal@lts_20250814@absl@@@std@@@0@AEBV10@@Z
	??$addressof@$$CBV?$_List_val@U?$_List_simple_types@H@std@@@std@@@std@@YAPEBV?$_List_val@U?$_List_simple_types@H@std@@@0@AEBV10@@Z
	??$addressof@$$CBV?$_List_val@U?$_List_simple_types@PEBUCordRep@cord_internal@lts_20250814@absl@@@std@@@std@@@std@@YAPEBV?$_List_val@U?$_List_simple_types@PEBUCordRep@cord_internal@lts_20250814@absl@@@std@@@0@AEBV10@@Z
	??$addressof@$$CBV?$_List_val@U?$_List_simple_types@U?$pair@$$CBV?$basic_string@DU?$char_traits@D@std@@V?$allocator@D@2@@std@@PEBVImpl@time_zone@cctz@time_internal@lts_20250814@absl@@@std@@@std@@@std@@@std@@YAPEBV?$_List_val@U?$_List_simple_types@U?$pair@$$CBV?$basic_string@DU?$char_traits@D@std@@V?$allocator@D@2@@std@@PEBVImpl@time_zone@cctz@time_internal@lts_20250814@absl@@@std@@@std@@@0@AEBV10@@Z
	??$addressof@$$CBV?$_String_val@U?$_Simple_types@D@std@@@std@@@std@@YAPEBV?$_String_val@U?$_Simple_types@D@std@@@0@AEBV10@@Z
	??$addressof@$$CBV?$basic_string@DU?$char_traits@D@std@@V?$allocator@D@2@@std@@@std@@YAPEBV?$basic_string@DU?$char_traits@D@std@@V?$allocator@D@2@@0@AEBV10@@Z
	??$addressof@$$CBV?$basic_string_view@DU?$char_traits@D@std@@@std@@@std@@YAPEBV?$basic_string_view@DU?$char_traits@D@std@@@0@AEBV10@@Z
	??$addressof@$$CBV?$codecvt@DDU_Mbstatet@@@std@@@std@@YAPEBV?$codecvt@DDU_Mbstatet@@@0@AEBV10@@Z
	??$addressof@$$CBV?$deque@UPrefixCrc@CrcCordState@crc_internal@lts_20250814@absl@@V?$allocator@UPrefixCrc@CrcCordState@crc_internal@lts_20250814@absl@@@std@@@std@@@std@@YAPEBV?$deque@UPrefixCrc@CrcCordState@crc_internal@lts_20250814@absl@@V?$allocator@UPrefixCrc@CrcCordState@crc_internal@lts_20250814@absl@@@std@@@0@AEBV10@@Z
	??$addressof@$$CBW4OnDeadlockCycle@lts_20250814@absl@@@std@@YAPEBW4OnDeadlockCycle@lts_20250814@absl@@AEBW4123@@Z
	??$addressof@$$CBW4State@PerThreadSynch@base_internal@lts_20250814@absl@@@std@@YAPEBW4State@PerThreadSynch@base_internal@lts_20250814@absl@@AEBW412345@@Z
	??$addressof@$$CB_J@std@@YAPEB_JAEB_J@Z
	??$addressof@$$CB_K@std@@YAPEB_KAEB_K@Z
	??$addressof@D@std@@YAPEADAEAD@Z
	??$addressof@F@std@@YAPEAFAEAF@Z
	??$addressof@H@std@@YAPEAHAEAH@Z
	??$addressof@I@std@@YAPEAIAEAI@Z
	??$addressof@M@std@@YAPEAMAEAM@Z
	??$addressof@N@std@@YAPEANAEAN@Z
	??$addressof@PEAD@std@@YAPEAPEADAEAPEAD@Z
	??$addressof@PEAPEBVImpl@time_zone@cctz@time_internal@lts_20250814@absl@@@std@@YAPEAPEAPEBVImpl@time_zone@cctz@time_internal@lts_20250814@absl@@AEAPEAPEBV123456@@Z
	??$addressof@PEAU?$_List_node@HPEAX@std@@@std@@YAPEAPEAU?$_List_node@HPEAX@0@AEAPEAU10@@Z
	??$addressof@PEAU?$_List_node@PEBUCordRep@cord_internal@lts_20250814@absl@@PEAX@std@@@std@@YAPEAPEAU?$_List_node@PEBUCordRep@cord_internal@lts_20250814@absl@@PEAX@0@AEAPEAU10@@Z
	??$addressof@PEAU?$_List_node@U?$pair@$$CBV?$basic_string@DU?$char_traits@D@std@@V?$allocator@D@2@@std@@PEBVImpl@time_zone@cctz@time_internal@lts_20250814@absl@@@std@@PEAX@std@@@std@@YAPEAPEAU?$_List_node@U?$pair@$$CBV?$basic_string@DU?$char_traits@D@std@@V?$allocator@D@2@@std@@PEBVImpl@time_zone@cctz@time_internal@lts_20250814@absl@@@std@@PEAX@0@AEAPEAU10@@Z
	??$addressof@PEAUArena@LowLevelAlloc@base_internal@lts_20250814@absl@@@std@@YAPEAPEAUArena@LowLevelAlloc@base_internal@lts_20250814@absl@@AEAPEAU12345@@Z
	??$addressof@PEAUHashtablezInfo@container_internal@lts_20250814@absl@@@std@@YAPEAPEAUHashtablezInfo@container_internal@lts_20250814@absl@@AEAPEAU1234@@Z
	??$addressof@PEAUPrefixCrc@CrcCordState@crc_internal@lts_20250814@absl@@@std@@YAPEAPEAUPrefixCrc@CrcCordState@crc_internal@lts_20250814@absl@@AEAPEAU12345@@Z
	??$addressof@PEAVCordzHandle@cord_internal@lts_20250814@absl@@@std@@YAPEAPEAVCordzHandle@cord_internal@lts_20250814@absl@@AEAPEAV1234@@Z
	??$addressof@PEAVLogSink@lts_20250814@absl@@@std@@YAPEAPEAVLogSink@lts_20250814@absl@@AEAPEAV123@@Z
	??$addressof@PEAVTimeZone@lts_20250814@absl@@@std@@YAPEAPEAVTimeZone@lts_20250814@absl@@AEAPEAV123@@Z
	??$addressof@PEAVVLogSite@log_internal@lts_20250814@absl@@@std@@YAPEAPEAVVLogSite@log_internal@lts_20250814@absl@@AEAPEAV1234@@Z
	??$addressof@PEBUCordRep@cord_internal@lts_20250814@absl@@@std@@YAPEAPEBUCordRep@cord_internal@lts_20250814@absl@@AEAPEBU1234@@Z
	??$addressof@PEBVCordzHandle@cord_internal@lts_20250814@absl@@@std@@YAPEAPEBVCordzHandle@cord_internal@lts_20250814@absl@@AEAPEBV1234@@Z
	??$addressof@PEBX@std@@YAPEAPEBXAEAPEBX@Z
	??$addressof@QEBX@std@@YAPEBQEBXAEBQEBX@Z
	??$addressof@U?$pair@$$CBV?$basic_string@DU?$char_traits@D@std@@V?$allocator@D@2@@std@@PEBVImpl@time_zone@cctz@time_internal@lts_20250814@absl@@@std@@@std@@YAPEAU?$pair@$$CBV?$basic_string@DU?$char_traits@D@std@@V?$allocator@D@2@@std@@PEBVImpl@time_zone@cctz@time_internal@lts_20250814@absl@@@0@AEAU10@@Z
	??$addressof@U?$pair@N_K@std@@@std@@YAPEAU?$pair@N_K@0@AEAU10@@Z
	??$addressof@U?$pair@V?$basic_string_view@DU?$char_traits@D@std@@@std@@H@std@@@std@@YAPEAU?$pair@V?$basic_string_view@DU?$char_traits@D@std@@@std@@H@0@AEAU10@@Z
	??$addressof@U?$pair@W4StringId@debugging_internal@lts_20250814@absl@@_J@std@@@std@@YAPEAU?$pair@W4StringId@debugging_internal@lts_20250814@absl@@_J@0@AEAU10@@Z
	??$addressof@UConversionItem@ParsedFormatBase@str_format_internal@lts_20250814@absl@@@std@@YAPEAUConversionItem@ParsedFormatBase@str_format_internal@lts_20250814@absl@@AEAU12345@@Z
	??$addressof@UMapping@ProfileBuilder@debugging_internal@lts_20250814@absl@@@std@@YAPEAUMapping@ProfileBuilder@debugging_internal@lts_20250814@absl@@AEAU12345@@Z
	??$addressof@UTransition@cctz@time_internal@lts_20250814@absl@@@std@@YAPEAUTransition@cctz@time_internal@lts_20250814@absl@@AEAU12345@@Z
	??$addressof@UTransitionType@cctz@time_internal@lts_20250814@absl@@@std@@YAPEAUTransitionType@cctz@time_internal@lts_20250814@absl@@AEAU12345@@Z
	??$addressof@U_Container_proxy@std@@@std@@YAPEAU_Container_proxy@0@AEAU10@@Z
	??$addressof@V?$_Deque_val@U?$_Deque_simple_types@UPrefixCrc@CrcCordState@crc_internal@lts_20250814@absl@@@std@@@std@@@std@@YAPEAV?$_Deque_val@U?$_Deque_simple_types@UPrefixCrc@CrcCordState@crc_internal@lts_20250814@absl@@@std@@@0@AEAV10@@Z
	??$addressof@V?$_List_unchecked_const_iterator@V?$_List_val@U?$_List_simple_types@H@std@@@std@@U_Iterator_base0@2@@std@@@std@@YAPEAV?$_List_unchecked_const_iterator@V?$_List_val@U?$_List_simple_types@H@std@@@std@@U_Iterator_base0@2@@0@AEAV10@@Z
	??$addressof@V?$_List_unchecked_const_iterator@V?$_List_val@U?$_List_simple_types@PEBUCordRep@cord_internal@lts_20250814@absl@@@std@@@std@@U_Iterator_base0@2@@std@@@std@@YAPEAV?$_List_unchecked_const_iterator@V?$_List_val@U?$_List_simple_types@PEBUCordRep@cord_internal@lts_20250814@absl@@@std@@@std@@U_Iterator_base0@2@@0@AEAV10@@Z
	??$addressof@V?$_List_unchecked_iterator@V?$_List_val@U?$_List_simple_types@U?$pair@$$CBV?$basic_string@DU?$char_traits@D@std@@V?$allocator@D@2@@std@@PEBVImpl@time_zone@cctz@time_internal@lts_20250814@absl@@@std@@@std@@@std@@@std@@@std@@YAPEAV?$_List_unchecked_iterator@V?$_List_val@U?$_List_simple_types@U?$pair@$$CBV?$basic_string@DU?$char_traits@D@std@@V?$allocator@D@2@@std@@PEBVImpl@time_zone@cctz@time_internal@lts_20250814@absl@@@std@@@std@@@std@@@0@AEAV10@@Z
	??$addressof@V?$_List_val@U?$_List_simple_types@U?$pair@$$CBV?$basic_string@DU?$char_traits@D@std@@V?$allocator@D@2@@std@@PEBVImpl@time_zone@cctz@time_internal@lts_20250814@absl@@@std@@@std@@@std@@@std@@YAPEAV?$_List_val@U?$_List_simple_types@U?$pair@$$CBV?$basic_string@DU?$char_traits@D@std@@V?$allocator@D@2@@std@@PEBVImpl@time_zone@cctz@time_internal@lts_20250814@absl@@@std@@@std@@@0@AEAV10@@Z
	??$addressof@V?$_String_val@U?$_Simple_types@D@std@@@std@@@std@@YAPEAV?$_String_val@U?$_Simple_types@D@std@@@0@AEAV10@@Z
	??$addressof@V?$_Vector_val@U?$_Simple_types@N@std@@@std@@@std@@YAPEAV?$_Vector_val@U?$_Simple_types@N@std@@@0@AEAV10@@Z
	??$addressof@V?$_Vector_val@U?$_Simple_types@PEAVLogSink@lts_20250814@absl@@@std@@@std@@@std@@YAPEAV?$_Vector_val@U?$_Simple_types@PEAVLogSink@lts_20250814@absl@@@std@@@0@AEAV10@@Z
	??$addressof@V?$_Vector_val@U?$_Simple_types@UTransition@cctz@time_internal@lts_20250814@absl@@@std@@@std@@@std@@YAPEAV?$_Vector_val@U?$_Simple_types@UTransition@cctz@time_internal@lts_20250814@absl@@@std@@@0@AEAV10@@Z
	??$addressof@V?$_Vector_val@U?$_Simple_types@UTransitionType@cctz@time_internal@lts_20250814@absl@@@std@@@std@@@std@@YAPEAV?$_Vector_val@U?$_Simple_types@UTransitionType@cctz@time_internal@lts_20250814@absl@@@std@@@0@AEAV10@@Z
	??$addressof@V?$allocator@U?$pair@$$CB_K_K@std@@@std@@@std@@YAPEAV?$allocator@U?$pair@$$CB_K_K@std@@@0@AEAV10@@Z
	??$addressof@V?$basic_filebuf@DU?$char_traits@D@std@@@std@@@std@@YAPEAV?$basic_filebuf@DU?$char_traits@D@std@@@0@AEAV10@@Z
	??$addressof@V?$basic_ostream@DU?$char_traits@D@std@@@std@@@std@@YAPEAV?$basic_ostream@DU?$char_traits@D@std@@@0@AEAV10@@Z
	??$addressof@V?$basic_string@DU?$char_traits@D@std@@V?$allocator@D@2@@std@@@std@@YAPEAV?$basic_string@DU?$char_traits@D@std@@V?$allocator@D@2@@0@AEAV10@@Z
	??$addressof@V?$basic_stringbuf@DU?$char_traits@D@std@@V?$allocator@D@2@@std@@@std@@YAPEAV?$basic_stringbuf@DU?$char_traits@D@std@@V?$allocator@D@2@@0@AEAV10@@Z
	??$addressof@V?$function@$$A6AXXZ@std@@@std@@YAPEAV?$function@$$A6AXXZ@0@AEAV10@@Z
	??$addressof@Vmutex@std@@@std@@YAPEAVmutex@0@AEAV10@@Z
	??$addressof@_J@std@@YAPEA_JAEA_J@Z
	??$addressof@_K@std@@YAPEA_KAEA_K@Z
	??$advance@PEBD_J@std@@YAXAEAPEBD_J@Z
	??$advance@PEBUTransition@cctz@time_internal@lts_20250814@absl@@_J@std@@YAXAEAPEBUTransition@cctz@time_internal@lts_20250814@absl@@_J@Z
	??$apply@U?$EqualElement@V?$basic_string@DU?$char_traits@D@std@@V?$allocator@D@2@@std@@UStringEq@container_internal@lts_20250814@absl@@@container_internal@lts_20250814@absl@@AEAU?$pair@$$CBV?$basic_string@DU?$char_traits@D@std@@V?$allocator@D@2@@std@@W4StringId@debugging_internal@lts_20250814@absl@@@std@@@?$FlatHashMapPolicy@V?$basic_string@DU?$char_traits@D@std@@V?$allocator@D@2@@std@@W4StringId@debugging_internal@lts_20250814@absl@@@container_internal@lts_20250814@absl@@SA_N$$QEAU?$EqualElement@V?$basic_string@DU?$char_traits@D@std@@V?$allocator@D@2@@std@@UStringEq@container_internal@lts_20250814@absl@@@123@AEAU?$pair@$$CBV?$basic_string@DU?$char_traits@D@std@@V?$allocator@D@2@@std@@W4StringId@debugging_internal@lts_20250814@absl@@@std@@@Z
	??$apply@U?$EqualElement@V?$basic_string@DU?$char_traits@D@std@@V?$allocator@D@2@@std@@UStringEq@container_internal@lts_20250814@absl@@@container_internal@lts_20250814@absl@@AEAU?$pair@$$CBV?$basic_string@DU?$char_traits@D@std@@V?$allocator@D@2@@std@@W4StringId@debugging_internal@lts_20250814@absl@@@std@@U?$FlatHashMapPolicy@V?$basic_string@DU?$char_traits@D@std@@V?$allocator@D@2@@std@@W4StringId@debugging_internal@lts_20250814@absl@@@234@@?$hash_policy_traits@U?$FlatHashMapPolicy@V?$basic_string@DU?$char_traits@D@std@@V?$allocator@D@2@@std@@W4StringId@debugging_internal@lts_20250814@absl@@@container_internal@lts_20250814@absl@@X@container_internal@lts_20250814@absl@@SA_N$$QEAU?$EqualElement@V?$basic_string@DU?$char_traits@D@std@@V?$allocator@D@2@@std@@UStringEq@container_internal@lts_20250814@absl@@@123@AEAU?$pair@$$CBV?$basic_string@DU?$char_traits@D@std@@V?$allocator@D@2@@std@@W4StringId@debugging_internal@lts_20250814@absl@@@std@@@Z
	??$apply@U?$EqualElement@V?$basic_string_view@DU?$char_traits@D@std@@@std@@UStringEq@container_internal@lts_20250814@absl@@@container_internal@lts_20250814@absl@@AEAU?$pair@$$CBV?$basic_string@DU?$char_traits@D@std@@V?$allocator@D@2@@std@@W4StringId@debugging_internal@lts_20250814@absl@@@std@@@?$FlatHashMapPolicy@V?$basic_string@DU?$char_traits@D@std@@V?$allocator@D@2@@std@@W4StringId@debugging_internal@lts_20250814@absl@@@container_internal@lts_20250814@absl@@SA_N$$QEAU?$EqualElement@V?$basic_string_view@DU?$char_traits@D@std@@@std@@UStringEq@container_internal@lts_20250814@absl@@@123@AEAU?$pair@$$CBV?$basic_string@DU?$char_traits@D@std@@V?$allocator@D@2@@std@@W4StringId@debugging_internal@lts_20250814@absl@@@std@@@Z
	??$apply@U?$EqualElement@V?$basic_string_view@DU?$char_traits@D@std@@@std@@UStringEq@container_internal@lts_20250814@absl@@@container_internal@lts_20250814@absl@@AEAU?$pair@$$CBV?$basic_string@DU?$char_traits@D@std@@V?$allocator@D@2@@std@@W4StringId@debugging_internal@lts_20250814@absl@@@std@@U?$FlatHashMapPolicy@V?$basic_string@DU?$char_traits@D@std@@V?$allocator@D@2@@std@@W4StringId@debugging_internal@lts_20250814@absl@@@234@@?$hash_policy_traits@U?$FlatHashMapPolicy@V?$basic_string@DU?$char_traits@D@std@@V?$allocator@D@2@@std@@W4StringId@debugging_internal@lts_20250814@absl@@@container_internal@lts_20250814@absl@@X@container_internal@lts_20250814@absl@@SA_N$$QEAU?$EqualElement@V?$basic_string_view@DU?$char_traits@D@std@@@std@@UStringEq@container_internal@lts_20250814@absl@@@123@AEAU?$pair@$$CBV?$basic_string@DU?$char_traits@D@std@@V?$allocator@D@2@@std@@W4StringId@debugging_internal@lts_20250814@absl@@@std@@@Z
	??$apply@U?$EqualElement@_KU?$equal_to@_K@std@@@container_internal@lts_20250814@absl@@AEAU?$pair@$$CB_KW4LocationId@debugging_internal@lts_20250814@absl@@@std@@@?$FlatHashMapPolicy@_KW4LocationId@debugging_internal@lts_20250814@absl@@@container_internal@lts_20250814@absl@@SA_N$$QEAU?$EqualElement@_KU?$equal_to@_K@std@@@123@AEAU?$pair@$$CB_KW4LocationId@debugging_internal@lts_20250814@absl@@@std@@@Z
	??$apply@U?$EqualElement@_KU?$equal_to@_K@std@@@container_internal@lts_20250814@absl@@AEAU?$pair@$$CB_KW4LocationId@debugging_internal@lts_20250814@absl@@@std@@U?$FlatHashMapPolicy@_KW4LocationId@debugging_internal@lts_20250814@absl@@@234@@?$hash_policy_traits@U?$FlatHashMapPolicy@_KW4LocationId@debugging_internal@lts_20250814@absl@@@container_internal@lts_20250814@absl@@X@container_internal@lts_20250814@absl@@SA_N$$QEAU?$EqualElement@_KU?$equal_to@_K@std@@@123@AEAU?$pair@$$CB_KW4LocationId@debugging_internal@lts_20250814@absl@@@std@@@Z
	??$apply@U?$HashElement@U?$Hash@_K@hash_internal@lts_20250814@absl@@$00@container_internal@lts_20250814@absl@@AEAU?$pair@$$CB_KW4LocationId@debugging_internal@lts_20250814@absl@@@std@@@?$FlatHashMapPolicy@_KW4LocationId@debugging_internal@lts_20250814@absl@@@container_internal@lts_20250814@absl@@SA_K$$QEAU?$HashElement@U?$Hash@_K@hash_internal@lts_20250814@absl@@$00@123@AEAU?$pair@$$CB_KW4LocationId@debugging_internal@lts_20250814@absl@@@std@@@Z
	??$apply@U?$HashElement@U?$Hash@_K@hash_internal@lts_20250814@absl@@$00@container_internal@lts_20250814@absl@@AEAU?$pair@$$CB_KW4LocationId@debugging_internal@lts_20250814@absl@@@std@@U?$FlatHashMapPolicy@_KW4LocationId@debugging_internal@lts_20250814@absl@@@234@@?$hash_policy_traits@U?$FlatHashMapPolicy@_KW4LocationId@debugging_internal@lts_20250814@absl@@@container_internal@lts_20250814@absl@@X@container_internal@lts_20250814@absl@@SA_K$$QEAU?$HashElement@U?$Hash@_K@hash_internal@lts_20250814@absl@@$00@123@AEAU?$pair@$$CB_KW4LocationId@debugging_internal@lts_20250814@absl@@@std@@@Z
	??$apply@U?$HashElement@UStringHash@container_internal@lts_20250814@absl@@$00@container_internal@lts_20250814@absl@@AEAU?$pair@$$CBV?$basic_string@DU?$char_traits@D@std@@V?$allocator@D@2@@std@@W4StringId@debugging_internal@lts_20250814@absl@@@std@@@?$FlatHashMapPolicy@V?$basic_string@DU?$char_traits@D@std@@V?$allocator@D@2@@std@@W4StringId@debugging_internal@lts_20250814@absl@@@container_internal@lts_20250814@absl@@SA_K$$QEAU?$HashElement@UStringHash@container_internal@lts_20250814@absl@@$00@123@AEAU?$pair@$$CBV?$basic_string@DU?$char_traits@D@std@@V?$allocator@D@2@@std@@W4StringId@debugging_internal@lts_20250814@absl@@@std@@@Z
	??$apply@U?$HashElement@UStringHash@container_internal@lts_20250814@absl@@$00@container_internal@lts_20250814@absl@@AEAU?$pair@$$CBV?$basic_string@DU?$char_traits@D@std@@V?$allocator@D@2@@std@@W4StringId@debugging_internal@lts_20250814@absl@@@std@@U?$FlatHashMapPolicy@V?$basic_string@DU?$char_traits@D@std@@V?$allocator@D@2@@std@@W4StringId@debugging_internal@lts_20250814@absl@@@234@@?$hash_policy_traits@U?$FlatHashMapPolicy@V?$basic_string@DU?$char_traits@D@std@@V?$allocator@D@2@@std@@W4StringId@debugging_internal@lts_20250814@absl@@@container_internal@lts_20250814@absl@@X@container_internal@lts_20250814@absl@@SA_K$$QEAU?$HashElement@UStringHash@container_internal@lts_20250814@absl@@$00@123@AEAU?$pair@$$CBV?$basic_string@DU?$char_traits@D@std@@V?$allocator@D@2@@std@@W4StringId@debugging_internal@lts_20250814@absl@@@std@@@Z
	??$apply@UEmplaceDecomposable@?$raw_hash_set@U?$FlatHashMapPolicy@V?$basic_string@DU?$char_traits@D@std@@V?$allocator@D@2@@std@@W4StringId@debugging_internal@lts_20250814@absl@@@container_internal@lts_20250814@absl@@UStringHash@234@UStringEq@234@V?$allocator@U?$pair@$$CBV?$basic_string@DU?$char_traits@D@std@@V?$allocator@D@2@@std@@W4StringId@debugging_internal@lts_20250814@absl@@@std@@@std@@@container_internal@lts_20250814@absl@@AEAV?$basic_string_view@DU?$char_traits@D@std@@@std@@W4StringId@debugging_internal@45@@?$FlatHashMapPolicy@V?$basic_string@DU?$char_traits@D@std@@V?$allocator@D@2@@std@@W4StringId@debugging_internal@lts_20250814@absl@@@container_internal@lts_20250814@absl@@SA?AU?$pair@Viterator@?$raw_hash_set@U?$FlatHashMapPolicy@V?$basic_string@DU?$char_traits@D@std@@V?$allocator@D@2@@std@@W4StringId@debugging_internal@lts_20250814@absl@@@container_internal@lts_20250814@absl@@UStringHash@234@UStringEq@234@V?$allocator@U?$pair@$$CBV?$basic_string@DU?$char_traits@D@std@@V?$allocator@D@2@@std@@W4StringId@debugging_internal@lts_20250814@absl@@@std@@@std@@@container_internal@lts_20250814@absl@@_N@std@@$$QEAUEmplaceDecomposable@?$raw_hash_set@U?$FlatHashMapPolicy@V?$basic_string@DU?$char_traits@D@std@@V?$allocator@D@2@@std@@W4StringId@debugging_internal@lts_20250814@absl@@@container_internal@lts_20250814@absl@@UStringHash@234@UStringEq@234@V?$allocator@U?$pair@$$CBV?$basic_string@DU?$char_traits@D@std@@V?$allocator@D@2@@std@@W4StringId@debugging_internal@lts_20250814@absl@@@std@@@std@@@123@AEAV?$basic_string_view@DU?$char_traits@D@std@@@5@$$QEAW4StringId@debugging_internal@23@@Z
	??$apply@UEmplaceDecomposable@?$raw_hash_set@U?$FlatHashMapPolicy@V?$basic_string@DU?$char_traits@D@std@@V?$allocator@D@2@@std@@W4StringId@debugging_internal@lts_20250814@absl@@@container_internal@lts_20250814@absl@@UStringHash@234@UStringEq@234@V?$allocator@U?$pair@$$CBV?$basic_string@DU?$char_traits@D@std@@V?$allocator@D@2@@std@@W4StringId@debugging_internal@lts_20250814@absl@@@std@@@std@@@container_internal@lts_20250814@absl@@AEAV?$basic_string_view@DU?$char_traits@D@std@@@std@@W4StringId@debugging_internal@45@U?$FlatHashMapPolicy@V?$basic_string@DU?$char_traits@D@std@@V?$allocator@D@2@@std@@W4StringId@debugging_internal@lts_20250814@absl@@@345@@?$hash_policy_traits@U?$FlatHashMapPolicy@V?$basic_string@DU?$char_traits@D@std@@V?$allocator@D@2@@std@@W4StringId@debugging_internal@lts_20250814@absl@@@container_internal@lts_20250814@absl@@X@container_internal@lts_20250814@absl@@SA?AU?$pair@Viterator@?$raw_hash_set@U?$FlatHashMapPolicy@V?$basic_string@DU?$char_traits@D@std@@V?$allocator@D@2@@std@@W4StringId@debugging_internal@lts_20250814@absl@@@container_internal@lts_20250814@absl@@UStringHash@234@UStringEq@234@V?$allocator@U?$pair@$$CBV?$basic_string@DU?$char_traits@D@std@@V?$allocator@D@2@@std@@W4StringId@debugging_internal@lts_20250814@absl@@@std@@@std@@@container_internal@lts_20250814@absl@@_N@std@@$$QEAUEmplaceDecomposable@?$raw_hash_set@U?$FlatHashMapPolicy@V?$basic_string@DU?$char_traits@D@std@@V?$allocator@D@2@@std@@W4StringId@debugging_internal@lts_20250814@absl@@@container_internal@lts_20250814@absl@@UStringHash@234@UStringEq@234@V?$allocator@U?$pair@$$CBV?$basic_string@DU?$char_traits@D@std@@V?$allocator@D@2@@std@@W4StringId@debugging_internal@lts_20250814@absl@@@std@@@std@@@123@AEAV?$basic_string_view@DU?$char_traits@D@std@@@5@$$QEAW4StringId@debugging_internal@23@@Z
	??$apply@UEmplaceDecomposable@?$raw_hash_set@U?$FlatHashMapPolicy@V?$basic_string@DU?$char_traits@D@std@@V?$allocator@D@2@@std@@W4StringId@debugging_internal@lts_20250814@absl@@@container_internal@lts_20250814@absl@@UStringHash@234@UStringEq@234@V?$allocator@U?$pair@$$CBV?$basic_string@DU?$char_traits@D@std@@V?$allocator@D@2@@std@@W4StringId@debugging_internal@lts_20250814@absl@@@std@@@std@@@container_internal@lts_20250814@absl@@AEBU?$pair@V?$basic_string@DU?$char_traits@D@std@@V?$allocator@D@2@@std@@W4StringId@debugging_internal@lts_20250814@absl@@@std@@@?$FlatHashMapPolicy@V?$basic_string@DU?$char_traits@D@std@@V?$allocator@D@2@@std@@W4StringId@debugging_internal@lts_20250814@absl@@@container_internal@lts_20250814@absl@@SA?AU?$pair@Viterator@?$raw_hash_set@U?$FlatHashMapPolicy@V?$basic_string@DU?$char_traits@D@std@@V?$allocator@D@2@@std@@W4StringId@debugging_internal@lts_20250814@absl@@@container_internal@lts_20250814@absl@@UStringHash@234@UStringEq@234@V?$allocator@U?$pair@$$CBV?$basic_string@DU?$char_traits@D@std@@V?$allocator@D@2@@std@@W4StringId@debugging_internal@lts_20250814@absl@@@std@@@std@@@container_internal@lts_20250814@absl@@_N@std@@$$QEAUEmplaceDecomposable@?$raw_hash_set@U?$FlatHashMapPolicy@V?$basic_string@DU?$char_traits@D@std@@V?$allocator@D@2@@std@@W4StringId@debugging_internal@lts_20250814@absl@@@container_internal@lts_20250814@absl@@UStringHash@234@UStringEq@234@V?$allocator@U?$pair@$$CBV?$basic_string@DU?$char_traits@D@std@@V?$allocator@D@2@@std@@W4StringId@debugging_internal@lts_20250814@absl@@@std@@@std@@@123@AEBU?$pair@V?$basic_string@DU?$char_traits@D@std@@V?$allocator@D@2@@std@@W4StringId@debugging_internal@lts_20250814@absl@@@5@@Z
	??$apply@UEmplaceDecomposable@?$raw_hash_set@U?$FlatHashMapPolicy@V?$basic_string@DU?$char_traits@D@std@@V?$allocator@D@2@@std@@W4StringId@debugging_internal@lts_20250814@absl@@@container_internal@lts_20250814@absl@@UStringHash@234@UStringEq@234@V?$allocator@U?$pair@$$CBV?$basic_string@DU?$char_traits@D@std@@V?$allocator@D@2@@std@@W4StringId@debugging_internal@lts_20250814@absl@@@std@@@std@@@container_internal@lts_20250814@absl@@AEBU?$pair@V?$basic_string@DU?$char_traits@D@std@@V?$allocator@D@2@@std@@W4StringId@debugging_internal@lts_20250814@absl@@@std@@U?$FlatHashMapPolicy@V?$basic_string@DU?$char_traits@D@std@@V?$allocator@D@2@@std@@W4StringId@debugging_internal@lts_20250814@absl@@@345@@?$hash_policy_traits@U?$FlatHashMapPolicy@V?$basic_string@DU?$char_traits@D@std@@V?$allocator@D@2@@std@@W4StringId@debugging_internal@lts_20250814@absl@@@container_internal@lts_20250814@absl@@X@container_internal@lts_20250814@absl@@SA?AU?$pair@Viterator@?$raw_hash_set@U?$FlatHashMapPolicy@V?$basic_string@DU?$char_traits@D@std@@V?$allocator@D@2@@std@@W4StringId@debugging_internal@lts_20250814@absl@@@container_internal@lts_20250814@absl@@UStringHash@234@UStringEq@234@V?$allocator@U?$pair@$$CBV?$basic_string@DU?$char_traits@D@std@@V?$allocator@D@2@@std@@W4StringId@debugging_internal@lts_20250814@absl@@@std@@@std@@@container_internal@lts_20250814@absl@@_N@std@@$$QEAUEmplaceDecomposable@?$raw_hash_set@U?$FlatHashMapPolicy@V?$basic_string@DU?$char_traits@D@std@@V?$allocator@D@2@@std@@W4StringId@debugging_internal@lts_20250814@absl@@@container_internal@lts_20250814@absl@@UStringHash@234@UStringEq@234@V?$allocator@U?$pair@$$CBV?$basic_string@DU?$char_traits@D@std@@V?$allocator@D@2@@std@@W4StringId@debugging_internal@lts_20250814@absl@@@std@@@std@@@123@AEBU?$pair@V?$basic_string@DU?$char_traits@D@std@@V?$allocator@D@2@@std@@W4StringId@debugging_internal@lts_20250814@absl@@@5@@Z
	??$apply@UEmplaceDecomposable@?$raw_hash_set@U?$FlatHashMapPolicy@_KW4LocationId@debugging_internal@lts_20250814@absl@@@container_internal@lts_20250814@absl@@U?$Hash@_K@hash_internal@34@U?$equal_to@_K@std@@V?$allocator@U?$pair@$$CB_KW4LocationId@debugging_internal@lts_20250814@absl@@@std@@@8@@container_internal@lts_20250814@absl@@_KW4LocationId@debugging_internal@45@@?$FlatHashMapPolicy@_KW4LocationId@debugging_internal@lts_20250814@absl@@@container_internal@lts_20250814@absl@@SA?AU?$pair@Viterator@?$raw_hash_set@U?$FlatHashMapPolicy@_KW4LocationId@debugging_internal@lts_20250814@absl@@@container_internal@lts_20250814@absl@@U?$Hash@_K@hash_internal@34@U?$equal_to@_K@std@@V?$allocator@U?$pair@$$CB_KW4LocationId@debugging_internal@lts_20250814@absl@@@std@@@8@@container_internal@lts_20250814@absl@@_N@std@@$$QEAUEmplaceDecomposable@?$raw_hash_set@U?$FlatHashMapPolicy@_KW4LocationId@debugging_internal@lts_20250814@absl@@@container_internal@lts_20250814@absl@@U?$Hash@_K@hash_internal@34@U?$equal_to@_K@std@@V?$allocator@U?$pair@$$CB_KW4LocationId@debugging_internal@lts_20250814@absl@@@std@@@8@@123@$$QEA_K$$QEAW4LocationId@debugging_internal@23@@Z
	??$apply@UEmplaceDecomposable@?$raw_hash_set@U?$FlatHashMapPolicy@_KW4LocationId@debugging_internal@lts_20250814@absl@@@container_internal@lts_20250814@absl@@U?$Hash@_K@hash_internal@34@U?$equal_to@_K@std@@V?$allocator@U?$pair@$$CB_KW4LocationId@debugging_internal@lts_20250814@absl@@@std@@@8@@container_internal@lts_20250814@absl@@_KW4LocationId@debugging_internal@45@U?$FlatHashMapPolicy@_KW4LocationId@debugging_internal@lts_20250814@absl@@@345@@?$hash_policy_traits@U?$FlatHashMapPolicy@_KW4LocationId@debugging_internal@lts_20250814@absl@@@container_internal@lts_20250814@absl@@X@container_internal@lts_20250814@absl@@SA?AU?$pair@Viterator@?$raw_hash_set@U?$FlatHashMapPolicy@_KW4LocationId@debugging_internal@lts_20250814@absl@@@container_internal@lts_20250814@absl@@U?$Hash@_K@hash_internal@34@U?$equal_to@_K@std@@V?$allocator@U?$pair@$$CB_KW4LocationId@debugging_internal@lts_20250814@absl@@@std@@@8@@container_internal@lts_20250814@absl@@_N@std@@$$QEAUEmplaceDecomposable@?$raw_hash_set@U?$FlatHashMapPolicy@_KW4LocationId@debugging_internal@lts_20250814@absl@@@container_internal@lts_20250814@absl@@U?$Hash@_K@hash_internal@34@U?$equal_to@_K@std@@V?$allocator@U?$pair@$$CB_KW4LocationId@debugging_internal@lts_20250814@absl@@@std@@@8@@123@$$QEA_K$$QEAW4LocationId@debugging_internal@23@@Z
	??$assign@V?$_Deque_unchecked_const_iterator@V?$_Deque_val@U?$_Deque_simple_types@UPrefixCrc@CrcCordState@crc_internal@lts_20250814@absl@@@std@@@std@@@std@@$0A@@?$deque@UPrefixCrc@CrcCordState@crc_internal@lts_20250814@absl@@V?$allocator@UPrefixCrc@CrcCordState@crc_internal@lts_20250814@absl@@@std@@@std@@QEAAXV?$_Deque_unchecked_const_iterator@V?$_Deque_val@U?$_Deque_simple_types@UPrefixCrc@CrcCordState@crc_internal@lts_20250814@absl@@@std@@@std@@@1@0@Z
	??$begin@I$07@std@@YAPEAIAEAY07I@Z
	??$begin@I$0EA@@std@@YAPEAIAEAY0EA@I@Z
	??$begin@V?$vector@NV?$allocator@N@std@@@std@@@std@@YA?AV?$_Vector_iterator@V?$_Vector_val@U?$_Simple_types@N@std@@@std@@@0@AEAV?$vector@NV?$allocator@N@std@@@0@@Z
	??$binary_search@_KU?$upper_bound_adapter@Uchecked_compare@?$key_compare_adapter@U?$less@_K@std@@_K@container_internal@lts_20250814@absl@@@container_internal@lts_20250814@absl@@@?$btree_node@U?$map_params@_K_KU?$less@_K@std@@V?$allocator@U?$pair@$$CB_K_K@std@@@2@$0BAA@$0A@@container_internal@lts_20250814@absl@@@container_internal@lts_20250814@absl@@QEBA?AU?$SearchResult@_K$0A@@123@AEB_KAEBU?$upper_bound_adapter@Uchecked_compare@?$key_compare_adapter@U?$less@_K@std@@_K@container_internal@lts_20250814@absl@@@123@@Z
	??$binary_search@_KUchecked_compare@?$key_compare_adapter@U?$less@_K@std@@_K@container_internal@lts_20250814@absl@@@?$btree_node@U?$map_params@_K_KU?$less@_K@std@@V?$allocator@U?$pair@$$CB_K_K@std@@@2@$0BAA@$0A@@container_internal@lts_20250814@absl@@@container_internal@lts_20250814@absl@@QEBA?AU?$SearchResult@_K$0A@@123@AEB_KAEBUchecked_compare@?$key_compare_adapter@U?$less@_K@std@@_K@123@@Z
	??$binary_search_impl@_KU?$upper_bound_adapter@Uchecked_compare@?$key_compare_adapter@U?$less@_K@std@@_K@container_internal@lts_20250814@absl@@@container_internal@lts_20250814@absl@@@?$btree_node@U?$map_params@_K_KU?$less@_K@std@@V?$allocator@U?$pair@$$CB_K_K@std@@@2@$0BAA@$0A@@container_internal@lts_20250814@absl@@@container_internal@lts_20250814@absl@@QEBA?AU?$SearchResult@_K$0A@@123@AEB_K_K1AEBU?$upper_bound_adapter@Uchecked_compare@?$key_compare_adapter@U?$less@_K@std@@_K@container_internal@lts_20250814@absl@@@123@U?$integral_constant@_N$0A@@std@@@Z
	??$binary_search_impl@_KUchecked_compare@?$key_compare_adapter@U?$less@_K@std@@_K@container_internal@lts_20250814@absl@@@?$btree_node@U?$map_params@_K_KU?$less@_K@std@@V?$allocator@U?$pair@$$CB_K_K@std@@@2@$0BAA@$0A@@container_internal@lts_20250814@absl@@@container_internal@lts_20250814@absl@@QEBA?AU?$SearchResult@_K$0A@@123@AEB_K_K1AEBUchecked_compare@?$key_compare_adapter@U?$less@_K@std@@_K@123@U?$integral_constant@_N$0A@@std@@@Z
	??$bit_cast@FG$0A@@lts_20250814@absl@@YAFAEBG@Z
	??$bit_cast@IM$0A@@lts_20250814@absl@@YAIAEBM@Z
	??$bit_cast@MI$0A@@lts_20250814@absl@@YAMAEBI@Z
	??$bit_cast@N_K$0A@@lts_20250814@absl@@YANAEB_K@Z
	??$bit_cast@PEBX_K$0A@@lts_20250814@absl@@YAPEBXAEB_K@Z
	??$bit_cast@_J_K$0A@@lts_20250814@absl@@YA_JAEB_K@Z
	??$bit_cast@_KN$0A@@lts_20250814@absl@@YA_KAEBN@Z
	??$bit_cast@_KPEBX$0A@@lts_20250814@absl@@YA_KAEBQEBX@Z
	??$bit_cast@_K_J$0A@@lts_20250814@absl@@YA_KAEB_J@Z
	??$bit_width@_K@lts_20250814@absl@@YAH_K@Z
	??$call_once@A6AXXZ$$V@lts_20250814@absl@@YAXAEAVonce_flag@01@A6AXXZ@Z
	??$ceil@V?$duration@_JU?$ratio@$00$0DOI@@std@@@chrono@std@@_JU?$ratio@$00$0DLJKMKAA@@3@$0A@@chrono@std@@YA?AV?$duration@_JU?$ratio@$00$0DOI@@std@@@01@AEBV?$duration@_JU?$ratio@$00$0DLJKMKAA@@std@@@01@@Z
	??$ceil@V?$duration@_JU?$ratio@$00$0DOI@@std@@@chrono@std@@_JU?$ratio@$00$0JIJGIA@@3@$0A@@chrono@std@@YA?AV?$duration@_JU?$ratio@$00$0DOI@@std@@@01@AEBV?$duration@_JU?$ratio@$00$0JIJGIA@@std@@@01@@Z
	??$combine@H$$V@?$HashStateBase@VMixingHashState@hash_internal@lts_20250814@absl@@@hash_internal@lts_20250814@absl@@SA?AVMixingHashState@123@V4123@AEBH@Z
	??$combine@V?$basic_string_view@DU?$char_traits@D@std@@@std@@$$V@?$HashStateBase@VMixingHashState@hash_internal@lts_20250814@absl@@@hash_internal@lts_20250814@absl@@SA?AVMixingHashState@123@V4123@AEBV?$basic_string_view@DU?$char_traits@D@std@@@std@@@Z
	??$combine@V?$basic_string_view@DU?$char_traits@D@std@@@std@@H@?$HashStateBase@VMixingHashState@hash_internal@lts_20250814@absl@@@hash_internal@lts_20250814@absl@@SA?AVMixingHashState@123@V4123@AEBV?$basic_string_view@DU?$char_traits@D@std@@@std@@AEBH@Z
	??$combine@V?$tuple@AEBV?$basic_string_view@DU?$char_traits@D@std@@@std@@AEBH@std@@$$V@?$HashStateBase@VMixingHashState@hash_internal@lts_20250814@absl@@@hash_internal@lts_20250814@absl@@SA?AVMixingHashState@123@V4123@AEBV?$tuple@AEBV?$basic_string_view@DU?$char_traits@D@std@@@std@@AEBH@std@@@Z
	??$combine@V?$tuple@AEB_K@std@@$$V@?$HashStateBase@VMixingHashState@hash_internal@lts_20250814@absl@@@hash_internal@lts_20250814@absl@@SA?AVMixingHashState@123@V4123@AEBV?$tuple@AEB_K@std@@@Z
	??$combine@_K$$V@?$HashStateBase@VMixingHashState@hash_internal@lts_20250814@absl@@@hash_internal@lts_20250814@absl@@SA?AVMixingHashState@123@V4123@AEB_K@Z
	??$combine_contiguous@D@?$HashStateBase@VMixingHashState@hash_internal@lts_20250814@absl@@@hash_internal@lts_20250814@absl@@SA?AVMixingHashState@123@V4123@PEBD_K@Z
	??$compare_keys@_K_K@?$btree@U?$map_params@_K_KU?$less@_K@std@@V?$allocator@U?$pair@$$CB_K_K@std@@@2@$0BAA@$0A@@container_internal@lts_20250814@absl@@@container_internal@lts_20250814@absl@@QEBA_NAEB_K0@Z
	??$compare_result_as_less_than@_N$0A@@compare_internal@lts_20250814@absl@@YA_N_N@Z
	??$construct@AEBUpiecewise_construct_t@std@@V?$tuple@$$QEA_K@2@V?$tuple@$$QEAW4LocationId@debugging_internal@lts_20250814@absl@@@2@@?$raw_hash_set@U?$FlatHashMapPolicy@_KW4LocationId@debugging_internal@lts_20250814@absl@@@container_internal@lts_20250814@absl@@U?$Hash@_K@hash_internal@34@U?$equal_to@_K@std@@V?$allocator@U?$pair@$$CB_KW4LocationId@debugging_internal@lts_20250814@absl@@@std@@@8@@container_internal@lts_20250814@absl@@AEAAXPEAT?$map_slot_type@_KW4LocationId@debugging_internal@lts_20250814@absl@@@123@AEBUpiecewise_construct_t@std@@$$QEAV?$tuple@$$QEA_K@6@$$QEAV?$tuple@$$QEAW4LocationId@debugging_internal@lts_20250814@absl@@@6@@Z
	??$construct@AEBUpiecewise_construct_t@std@@V?$tuple@AEAV?$basic_string_view@DU?$char_traits@D@std@@@std@@@2@V?$tuple@$$QEAW4StringId@debugging_internal@lts_20250814@absl@@@2@@?$raw_hash_set@U?$FlatHashMapPolicy@V?$basic_string@DU?$char_traits@D@std@@V?$allocator@D@2@@std@@W4StringId@debugging_internal@lts_20250814@absl@@@container_internal@lts_20250814@absl@@UStringHash@234@UStringEq@234@V?$allocator@U?$pair@$$CBV?$basic_string@DU?$char_traits@D@std@@V?$allocator@D@2@@std@@W4StringId@debugging_internal@lts_20250814@absl@@@std@@@std@@@container_internal@lts_20250814@absl@@AEAAXPEAT?$map_slot_type@V?$basic_string@DU?$char_traits@D@std@@V?$allocator@D@2@@std@@W4StringId@debugging_internal@lts_20250814@absl@@@123@AEBUpiecewise_construct_t@std@@$$QEAV?$tuple@AEAV?$basic_string_view@DU?$char_traits@D@std@@@std@@@6@$$QEAV?$tuple@$$QEAW4StringId@debugging_internal@lts_20250814@absl@@@6@@Z
	??$construct@AEBUpiecewise_construct_t@std@@V?$tuple@AEBV?$basic_string@DU?$char_traits@D@std@@V?$allocator@D@2@@std@@@2@V?$tuple@AEBW4StringId@debugging_internal@lts_20250814@absl@@@2@@?$raw_hash_set@U?$FlatHashMapPolicy@V?$basic_string@DU?$char_traits@D@std@@V?$allocator@D@2@@std@@W4StringId@debugging_internal@lts_20250814@absl@@@container_internal@lts_20250814@absl@@UStringHash@234@UStringEq@234@V?$allocator@U?$pair@$$CBV?$basic_string@DU?$char_traits@D@std@@V?$allocator@D@2@@std@@W4StringId@debugging_internal@lts_20250814@absl@@@std@@@std@@@container_internal@lts_20250814@absl@@AEAAXPEAT?$map_slot_type@V?$basic_string@DU?$char_traits@D@std@@V?$allocator@D@2@@std@@W4StringId@debugging_internal@lts_20250814@absl@@@123@AEBUpiecewise_construct_t@std@@$$QEAV?$tuple@AEBV?$basic_string@DU?$char_traits@D@std@@V?$allocator@D@2@@std@@@6@$$QEAV?$tuple@AEBW4StringId@debugging_internal@lts_20250814@absl@@@6@@Z
	??$construct@D$$V@?$_Default_allocator_traits@V?$allocator@D@std@@@std@@SAXAEAV?$allocator@D@1@QEAD@Z
	??$construct@HAEBH@?$_Default_allocator_traits@V?$allocator@U?$_List_node@HPEAX@std@@@std@@@std@@SAXAEAV?$allocator@U?$_List_node@HPEAX@std@@@1@QEAHAEBH@Z
	??$construct@IAEBI@?$_Default_allocator_traits@V?$allocator@I@std@@@std@@SAXAEAV?$allocator@I@1@QEAIAEBI@Z
	??$construct@II@?$_Default_allocator_traits@V?$allocator@I@std@@@std@@SAXAEAV?$allocator@I@1@QEAI$$QEAI@Z
	??$construct@PEAUCordRep@cord_internal@lts_20250814@absl@@AEBQEAU1234@@?$_Default_allocator_traits@V?$allocator@PEAUCordRep@cord_internal@lts_20250814@absl@@@std@@@std@@SAXAEAV?$allocator@PEAUCordRep@cord_internal@lts_20250814@absl@@@1@QEAPEAUCordRep@cord_internal@lts_20250814@absl@@AEBQEAU3456@@Z
	??$construct@PEAUCordRep@cord_internal@lts_20250814@absl@@PEAU1234@@?$_Default_allocator_traits@V?$allocator@PEAUCordRep@cord_internal@lts_20250814@absl@@@std@@@std@@SAXAEAV?$allocator@PEAUCordRep@cord_internal@lts_20250814@absl@@@1@QEAPEAUCordRep@cord_internal@lts_20250814@absl@@$$QEAPEAU3456@@Z
	??$construct@PEAVCordzHandle@cord_internal@lts_20250814@absl@@AEBQEAV1234@@?$_Default_allocator_traits@V?$allocator@PEAVCordzHandle@cord_internal@lts_20250814@absl@@@std@@@std@@SAXAEAV?$allocator@PEAVCordzHandle@cord_internal@lts_20250814@absl@@@1@QEAPEAVCordzHandle@cord_internal@lts_20250814@absl@@AEBQEAV3456@@Z
	??$construct@PEAVCordzHandle@cord_internal@lts_20250814@absl@@PEAV1234@@?$_Default_allocator_traits@V?$allocator@PEAVCordzHandle@cord_internal@lts_20250814@absl@@@std@@@std@@SAXAEAV?$allocator@PEAVCordzHandle@cord_internal@lts_20250814@absl@@@1@QEAPEAVCordzHandle@cord_internal@lts_20250814@absl@@$$QEAPEAV3456@@Z
	??$construct@PEAVLogSink@lts_20250814@absl@@AEBQEAV123@@?$_Default_allocator_traits@V?$allocator@PEAVLogSink@lts_20250814@absl@@@std@@@std@@SAXAEAV?$allocator@PEAVLogSink@lts_20250814@absl@@@1@QEAPEAVLogSink@lts_20250814@absl@@AEBQEAV345@@Z
	??$construct@PEAVLogSink@lts_20250814@absl@@PEAV123@@?$_Default_allocator_traits@V?$allocator@PEAVLogSink@lts_20250814@absl@@@std@@@std@@SAXAEAV?$allocator@PEAVLogSink@lts_20250814@absl@@@1@QEAPEAVLogSink@lts_20250814@absl@@$$QEAPEAV345@@Z
	??$construct@PEBUCordRep@cord_internal@lts_20250814@absl@@AEBQEBU1234@@?$_Default_allocator_traits@V?$allocator@U?$_List_node@PEBUCordRep@cord_internal@lts_20250814@absl@@PEAX@std@@@std@@@std@@SAXAEAV?$allocator@U?$_List_node@PEBUCordRep@cord_internal@lts_20250814@absl@@PEAX@std@@@1@QEAPEBUCordRep@cord_internal@lts_20250814@absl@@AEBQEBU3456@@Z
	??$construct@PEBVCordzHandle@cord_internal@lts_20250814@absl@@AEBQEBV1234@@?$_Default_allocator_traits@V?$allocator@PEBVCordzHandle@cord_internal@lts_20250814@absl@@@std@@@std@@SAXAEAV?$allocator@PEBVCordzHandle@cord_internal@lts_20250814@absl@@@1@QEAPEBVCordzHandle@cord_internal@lts_20250814@absl@@AEBQEBV3456@@Z
	??$construct@PEBVCordzHandle@cord_internal@lts_20250814@absl@@PEBV1234@@?$_Default_allocator_traits@V?$allocator@PEBVCordzHandle@cord_internal@lts_20250814@absl@@@std@@@std@@SAXAEAV?$allocator@PEBVCordzHandle@cord_internal@lts_20250814@absl@@@1@QEAPEBVCordzHandle@cord_internal@lts_20250814@absl@@$$QEAPEBV3456@@Z
	??$construct@PEBVImpl@time_zone@cctz@time_internal@lts_20250814@absl@@AEBQEBV123456@@?$_Default_allocator_traits@V?$allocator@PEBVImpl@time_zone@cctz@time_internal@lts_20250814@absl@@@std@@@std@@SAXAEAV?$allocator@PEBVImpl@time_zone@cctz@time_internal@lts_20250814@absl@@@1@QEAPEBVImpl@time_zone@cctz@time_internal@lts_20250814@absl@@AEBQEBV345678@@Z
	??$construct@U?$pair@$$CBV?$basic_string@DU?$char_traits@D@std@@V?$allocator@D@2@@std@@PEBVImpl@time_zone@cctz@time_internal@lts_20250814@absl@@@std@@AEBUpiecewise_construct_t@2@V?$tuple@AEBV?$basic_string@DU?$char_traits@D@std@@V?$allocator@D@2@@std@@@2@V?$tuple@$$V@2@@?$_Default_allocator_traits@V?$allocator@U?$_List_node@U?$pair@$$CBV?$basic_string@DU?$char_traits@D@std@@V?$allocator@D@2@@std@@PEBVImpl@time_zone@cctz@time_internal@lts_20250814@absl@@@std@@PEAX@std@@@std@@@std@@SAXAEAV?$allocator@U?$_List_node@U?$pair@$$CBV?$basic_string@DU?$char_traits@D@std@@V?$allocator@D@2@@std@@PEBVImpl@time_zone@cctz@time_internal@lts_20250814@absl@@@std@@PEAX@std@@@1@QEAU?$pair@$$CBV?$basic_string@DU?$char_traits@D@std@@V?$allocator@D@2@@std@@PEBVImpl@time_zone@cctz@time_internal@lts_20250814@absl@@@1@AEBUpiecewise_construct_t@1@$$QEAV?$tuple@AEBV?$basic_string@DU?$char_traits@D@std@@V?$allocator@D@2@@std@@@1@$$QEAV?$tuple@$$V@1@@Z
	??$construct@U?$pair@$$CBV?$basic_string@DU?$char_traits@D@std@@V?$allocator@D@2@@std@@W4StringId@debugging_internal@lts_20250814@absl@@@std@@AEBUpiecewise_construct_t@2@V?$tuple@AEAV?$basic_string_view@DU?$char_traits@D@std@@@std@@@2@V?$tuple@$$QEAW4StringId@debugging_internal@lts_20250814@absl@@@2@@?$_Default_allocator_traits@V?$allocator@U?$pair@$$CBV?$basic_string@DU?$char_traits@D@std@@V?$allocator@D@2@@std@@W4StringId@debugging_internal@lts_20250814@absl@@@std@@@std@@@std@@SAXAEAV?$allocator@U?$pair@$$CBV?$basic_string@DU?$char_traits@D@std@@V?$allocator@D@2@@std@@W4StringId@debugging_internal@lts_20250814@absl@@@std@@@1@QEAU?$pair@$$CBV?$basic_string@DU?$char_traits@D@std@@V?$allocator@D@2@@std@@W4StringId@debugging_internal@lts_20250814@absl@@@1@AEBUpiecewise_construct_t@1@$$QEAV?$tuple@AEAV?$basic_string_view@DU?$char_traits@D@std@@@std@@@1@$$QEAV?$tuple@$$QEAW4StringId@debugging_internal@lts_20250814@absl@@@1@@Z
	??$construct@U?$pair@$$CBV?$basic_string@DU?$char_traits@D@std@@V?$allocator@D@2@@std@@W4StringId@debugging_internal@lts_20250814@absl@@@std@@AEBUpiecewise_construct_t@2@V?$tuple@AEBV?$basic_string@DU?$char_traits@D@std@@V?$allocator@D@2@@std@@@2@V?$tuple@AEBW4StringId@debugging_internal@lts_20250814@absl@@@2@@?$_Default_allocator_traits@V?$allocator@U?$pair@$$CBV?$basic_string@DU?$char_traits@D@std@@V?$allocator@D@2@@std@@W4StringId@debugging_internal@lts_20250814@absl@@@std@@@std@@@std@@SAXAEAV?$allocator@U?$pair@$$CBV?$basic_string@DU?$char_traits@D@std@@V?$allocator@D@2@@std@@W4StringId@debugging_internal@lts_20250814@absl@@@std@@@1@QEAU?$pair@$$CBV?$basic_string@DU?$char_traits@D@std@@V?$allocator@D@2@@std@@W4StringId@debugging_internal@lts_20250814@absl@@@1@AEBUpiecewise_construct_t@1@$$QEAV?$tuple@AEBV?$basic_string@DU?$char_traits@D@std@@V?$allocator@D@2@@std@@@1@$$QEAV?$tuple@AEBW4StringId@debugging_internal@lts_20250814@absl@@@1@@Z
	??$construct@U?$pair@$$CBV?$basic_string@DU?$char_traits@D@std@@V?$allocator@D@2@@std@@W4StringId@debugging_internal@lts_20250814@absl@@@std@@U12@@?$_Default_allocator_traits@V?$allocator@U?$pair@$$CBV?$basic_string@DU?$char_traits@D@std@@V?$allocator@D@2@@std@@W4StringId@debugging_internal@lts_20250814@absl@@@std@@@std@@@std@@SAXAEAV?$allocator@U?$pair@$$CBV?$basic_string@DU?$char_traits@D@std@@V?$allocator@D@2@@std@@W4StringId@debugging_internal@lts_20250814@absl@@@std@@@1@QEAU?$pair@$$CBV?$basic_string@DU?$char_traits@D@std@@V?$allocator@D@2@@std@@W4StringId@debugging_internal@lts_20250814@absl@@@1@$$QEAU31@@Z
	??$construct@U?$pair@$$CB_KW4LocationId@debugging_internal@lts_20250814@absl@@@std@@AEBUpiecewise_construct_t@2@V?$tuple@$$QEA_K@2@V?$tuple@$$QEAW4LocationId@debugging_internal@lts_20250814@absl@@@2@@?$_Default_allocator_traits@V?$allocator@U?$pair@$$CB_KW4LocationId@debugging_internal@lts_20250814@absl@@@std@@@std@@@std@@SAXAEAV?$allocator@U?$pair@$$CB_KW4LocationId@debugging_internal@lts_20250814@absl@@@std@@@1@QEAU?$pair@$$CB_KW4LocationId@debugging_internal@lts_20250814@absl@@@1@AEBUpiecewise_construct_t@1@$$QEAV?$tuple@$$QEA_K@1@$$QEAV?$tuple@$$QEAW4LocationId@debugging_internal@lts_20250814@absl@@@1@@Z
	??$construct@U?$pair@$$CB_KW4LocationId@debugging_internal@lts_20250814@absl@@@std@@U12@@?$_Default_allocator_traits@V?$allocator@U?$pair@$$CB_KW4LocationId@debugging_internal@lts_20250814@absl@@@std@@@std@@@std@@SAXAEAV?$allocator@U?$pair@$$CB_KW4LocationId@debugging_internal@lts_20250814@absl@@@std@@@1@QEAU?$pair@$$CB_KW4LocationId@debugging_internal@lts_20250814@absl@@@1@$$QEAU31@@Z
	??$construct@U?$pair@$$CB_K_K@std@@AEA_KAEA_K@?$_Default_allocator_traits@V?$allocator@U?$pair@$$CB_K_K@std@@@std@@@std@@SAXAEAV?$allocator@U?$pair@$$CB_K_K@std@@@1@QEAU?$pair@$$CB_K_K@1@AEA_K2@Z
	??$construct@U?$pair@$$CB_K_K@std@@U12@@?$_Default_allocator_traits@V?$allocator@U?$pair@$$CB_K_K@std@@@std@@@std@@SAXAEAV?$allocator@U?$pair@$$CB_K_K@std@@@1@QEAU?$pair@$$CB_K_K@1@$$QEAU31@@Z
	??$construct@U?$pair@N_K@std@@AEBNH@?$_Default_allocator_traits@V?$allocator@U?$pair@N_K@std@@@std@@@std@@SAXAEAV?$allocator@U?$pair@N_K@std@@@1@QEAU?$pair@N_K@1@AEBN$$QEAH@Z
	??$construct@U?$pair@N_K@std@@U12@@?$_Default_allocator_traits@V?$allocator@U?$pair@N_K@std@@@std@@@std@@SAXAEAV?$allocator@U?$pair@N_K@std@@@1@QEAU?$pair@N_K@1@$$QEAU31@@Z
	??$construct@U?$pair@V?$basic_string@DU?$char_traits@D@std@@V?$allocator@D@2@@std@@W4StringId@debugging_internal@lts_20250814@absl@@@std@@AEBUpiecewise_construct_t@2@V?$tuple@AEAV?$basic_string_view@DU?$char_traits@D@std@@@std@@@2@V?$tuple@$$QEAW4StringId@debugging_internal@lts_20250814@absl@@@2@@?$_Default_allocator_traits@V?$allocator@U?$pair@$$CBV?$basic_string@DU?$char_traits@D@std@@V?$allocator@D@2@@std@@W4StringId@debugging_internal@lts_20250814@absl@@@std@@@std@@@std@@SAXAEAV?$allocator@U?$pair@$$CBV?$basic_string@DU?$char_traits@D@std@@V?$allocator@D@2@@std@@W4StringId@debugging_internal@lts_20250814@absl@@@std@@@1@QEAU?$pair@V?$basic_string@DU?$char_traits@D@std@@V?$allocator@D@2@@std@@W4StringId@debugging_internal@lts_20250814@absl@@@1@AEBUpiecewise_construct_t@1@$$QEAV?$tuple@AEAV?$basic_string_view@DU?$char_traits@D@std@@@std@@@1@$$QEAV?$tuple@$$QEAW4StringId@debugging_internal@lts_20250814@absl@@@1@@Z
	??$construct@U?$pair@V?$basic_string@DU?$char_traits@D@std@@V?$allocator@D@2@@std@@W4StringId@debugging_internal@lts_20250814@absl@@@std@@AEBUpiecewise_construct_t@2@V?$tuple@AEBV?$basic_string@DU?$char_traits@D@std@@V?$allocator@D@2@@std@@@2@V?$tuple@AEBW4StringId@debugging_internal@lts_20250814@absl@@@2@@?$_Default_allocator_traits@V?$allocator@U?$pair@$$CBV?$basic_string@DU?$char_traits@D@std@@V?$allocator@D@2@@std@@W4StringId@debugging_internal@lts_20250814@absl@@@std@@@std@@@std@@SAXAEAV?$allocator@U?$pair@$$CBV?$basic_string@DU?$char_traits@D@std@@V?$allocator@D@2@@std@@W4StringId@debugging_internal@lts_20250814@absl@@@std@@@1@QEAU?$pair@V?$basic_string@DU?$char_traits@D@std@@V?$allocator@D@2@@std@@W4StringId@debugging_internal@lts_20250814@absl@@@1@AEBUpiecewise_construct_t@1@$$QEAV?$tuple@AEBV?$basic_string@DU?$char_traits@D@std@@V?$allocator@D@2@@std@@@1@$$QEAV?$tuple@AEBW4StringId@debugging_internal@lts_20250814@absl@@@1@@Z
	??$construct@U?$pair@V?$basic_string@DU?$char_traits@D@std@@V?$allocator@D@2@@std@@W4StringId@debugging_internal@lts_20250814@absl@@@std@@U12@@?$_Default_allocator_traits@V?$allocator@U?$pair@$$CBV?$basic_string@DU?$char_traits@D@std@@V?$allocator@D@2@@std@@W4StringId@debugging_internal@lts_20250814@absl@@@std@@@std@@@std@@SAXAEAV?$allocator@U?$pair@$$CBV?$basic_string@DU?$char_traits@D@std@@V?$allocator@D@2@@std@@W4StringId@debugging_internal@lts_20250814@absl@@@std@@@1@QEAU?$pair@V?$basic_string@DU?$char_traits@D@std@@V?$allocator@D@2@@std@@W4StringId@debugging_internal@lts_20250814@absl@@@1@$$QEAU31@@Z
	??$construct@U?$pair@V?$basic_string_view@DU?$char_traits@D@std@@@std@@H@std@@AEBV?$basic_string_view@DU?$char_traits@D@std@@@2@AEAH@?$_Default_allocator_traits@V?$allocator@U?$pair@V?$basic_string_view@DU?$char_traits@D@std@@@std@@H@std@@@std@@@std@@SAXAEAV?$allocator@U?$pair@V?$basic_string_view@DU?$char_traits@D@std@@@std@@H@std@@@1@QEAU?$pair@V?$basic_string_view@DU?$char_traits@D@std@@@std@@H@1@AEBV?$basic_string_view@DU?$char_traits@D@std@@@1@AEAH@Z
	??$construct@U?$pair@V?$basic_string_view@DU?$char_traits@D@std@@@std@@H@std@@U12@@?$_Default_allocator_traits@V?$allocator@U?$pair@V?$basic_string_view@DU?$char_traits@D@std@@@std@@H@std@@@std@@@std@@SAXAEAV?$allocator@U?$pair@V?$basic_string_view@DU?$char_traits@D@std@@@std@@H@std@@@1@QEAU?$pair@V?$basic_string_view@DU?$char_traits@D@std@@@std@@H@1@$$QEAU31@@Z
	??$construct@U?$pair@W4StringId@debugging_internal@lts_20250814@absl@@_J@std@@AEAW4StringId@debugging_internal@lts_20250814@absl@@_J@?$_Default_allocator_traits@V?$allocator@U?$pair@W4StringId@debugging_internal@lts_20250814@absl@@_J@std@@@std@@@std@@SAXAEAV?$allocator@U?$pair@W4StringId@debugging_internal@lts_20250814@absl@@_J@std@@@1@QEAU?$pair@W4StringId@debugging_internal@lts_20250814@absl@@_J@1@AEAW4StringId@debugging_internal@lts_20250814@absl@@$$QEA_J@Z
	??$construct@U?$pair@W4StringId@debugging_internal@lts_20250814@absl@@_J@std@@U12@@?$_Default_allocator_traits@V?$allocator@U?$pair@W4StringId@debugging_internal@lts_20250814@absl@@_J@std@@@std@@@std@@SAXAEAV?$allocator@U?$pair@W4StringId@debugging_internal@lts_20250814@absl@@_J@std@@@1@QEAU?$pair@W4StringId@debugging_internal@lts_20250814@absl@@_J@1@$$QEAU31@@Z
	??$construct@U?$pair@_KW4LocationId@debugging_internal@lts_20250814@absl@@@std@@AEBUpiecewise_construct_t@2@V?$tuple@$$QEA_K@2@V?$tuple@$$QEAW4LocationId@debugging_internal@lts_20250814@absl@@@2@@?$_Default_allocator_traits@V?$allocator@U?$pair@$$CB_KW4LocationId@debugging_internal@lts_20250814@absl@@@std@@@std@@@std@@SAXAEAV?$allocator@U?$pair@$$CB_KW4LocationId@debugging_internal@lts_20250814@absl@@@std@@@1@QEAU?$pair@_KW4LocationId@debugging_internal@lts_20250814@absl@@@1@AEBUpiecewise_construct_t@1@$$QEAV?$tuple@$$QEA_K@1@$$QEAV?$tuple@$$QEAW4LocationId@debugging_internal@lts_20250814@absl@@@1@@Z
	??$construct@U?$pair@_KW4LocationId@debugging_internal@lts_20250814@absl@@@std@@U12@@?$_Default_allocator_traits@V?$allocator@U?$pair@$$CB_KW4LocationId@debugging_internal@lts_20250814@absl@@@std@@@std@@@std@@SAXAEAV?$allocator@U?$pair@$$CB_KW4LocationId@debugging_internal@lts_20250814@absl@@@std@@@1@QEAU?$pair@_KW4LocationId@debugging_internal@lts_20250814@absl@@@1@$$QEAU31@@Z
	??$construct@U?$pair@_K_K@std@@AEA_KAEA_K@?$_Default_allocator_traits@V?$allocator@U?$pair@$$CB_K_K@std@@@std@@@std@@SAXAEAV?$allocator@U?$pair@$$CB_K_K@std@@@1@QEAU?$pair@_K_K@1@AEA_K2@Z
	??$construct@U?$pair@_K_K@std@@U12@@?$_Default_allocator_traits@V?$allocator@U?$pair@$$CB_K_K@std@@@std@@@std@@SAXAEAV?$allocator@U?$pair@$$CB_K_K@std@@@1@QEAU?$pair@_K_K@1@$$QEAU31@@Z
	??$construct@UConversionItem@ParsedFormatBase@str_format_internal@lts_20250814@absl@@U12345@@?$_Default_allocator_traits@V?$allocator@UConversionItem@ParsedFormatBase@str_format_internal@lts_20250814@absl@@@std@@@std@@SAXAEAV?$allocator@UConversionItem@ParsedFormatBase@str_format_internal@lts_20250814@absl@@@1@QEAUConversionItem@ParsedFormatBase@str_format_internal@lts_20250814@absl@@$$QEAU34567@@Z
	??$construct@UMapping@ProfileBuilder@debugging_internal@lts_20250814@absl@@U12345@@?$_Default_allocator_traits@V?$allocator@UMapping@ProfileBuilder@debugging_internal@lts_20250814@absl@@@std@@@std@@SAXAEAV?$allocator@UMapping@ProfileBuilder@debugging_internal@lts_20250814@absl@@@1@QEAUMapping@ProfileBuilder@debugging_internal@lts_20250814@absl@@$$QEAU34567@@Z
	??$construct@UPayload@status_internal@lts_20250814@absl@@AEBU1234@@?$_Default_allocator_traits@V?$allocator@UPayload@status_internal@lts_20250814@absl@@@std@@@std@@SAXAEAV?$allocator@UPayload@status_internal@lts_20250814@absl@@@1@QEAUPayload@status_internal@lts_20250814@absl@@AEBU3456@@Z
	??$construct@UPayload@status_internal@lts_20250814@absl@@U1234@@?$_Default_allocator_traits@V?$allocator@UPayload@status_internal@lts_20250814@absl@@@std@@@std@@SAXAEAV?$allocator@UPayload@status_internal@lts_20250814@absl@@@1@QEAUPayload@status_internal@lts_20250814@absl@@$$QEAU3456@@Z
	??$construct@UPrefixCrc@CrcCordState@crc_internal@lts_20250814@absl@@AEBU12345@@?$_Default_allocator_traits@V?$allocator@UPrefixCrc@CrcCordState@crc_internal@lts_20250814@absl@@@std@@@std@@SAXAEAV?$allocator@UPrefixCrc@CrcCordState@crc_internal@lts_20250814@absl@@@1@QEAUPrefixCrc@CrcCordState@crc_internal@lts_20250814@absl@@AEBU34567@@Z
	??$construct@UPrefixCrc@CrcCordState@crc_internal@lts_20250814@absl@@HVcrc32c_t@45@@?$_Default_allocator_traits@V?$allocator@UPrefixCrc@CrcCordState@crc_internal@lts_20250814@absl@@@std@@@std@@SAXAEAV?$allocator@UPrefixCrc@CrcCordState@crc_internal@lts_20250814@absl@@@1@QEAUPrefixCrc@CrcCordState@crc_internal@lts_20250814@absl@@$$QEAH$$QEAVcrc32c_t@67@@Z
	??$construct@UPrefixCrc@CrcCordState@crc_internal@lts_20250814@absl@@U12345@@?$_Default_allocator_traits@V?$allocator@UPrefixCrc@CrcCordState@crc_internal@lts_20250814@absl@@@std@@@std@@SAXAEAV?$allocator@UPrefixCrc@CrcCordState@crc_internal@lts_20250814@absl@@@1@QEAUPrefixCrc@CrcCordState@crc_internal@lts_20250814@absl@@$$QEAU34567@@Z
	??$construct@UTransition@cctz@time_internal@lts_20250814@absl@@$$V@?$_Default_allocator_traits@V?$allocator@UTransition@cctz@time_internal@lts_20250814@absl@@@std@@@std@@SAXAEAV?$allocator@UTransition@cctz@time_internal@lts_20250814@absl@@@1@QEAUTransition@cctz@time_internal@lts_20250814@absl@@@Z
	??$construct@UTransition@cctz@time_internal@lts_20250814@absl@@AEBU12345@@?$_Default_allocator_traits@V?$allocator@UTransition@cctz@time_internal@lts_20250814@absl@@@std@@@std@@SAXAEAV?$allocator@UTransition@cctz@time_internal@lts_20250814@absl@@@1@QEAUTransition@cctz@time_internal@lts_20250814@absl@@AEBU34567@@Z
	??$construct@UTransition@cctz@time_internal@lts_20250814@absl@@U12345@@?$_Default_allocator_traits@V?$allocator@UTransition@cctz@time_internal@lts_20250814@absl@@@std@@@std@@SAXAEAV?$allocator@UTransition@cctz@time_internal@lts_20250814@absl@@@1@QEAUTransition@cctz@time_internal@lts_20250814@absl@@$$QEAU34567@@Z
	??$construct@UTransitionType@cctz@time_internal@lts_20250814@absl@@$$V@?$_Default_allocator_traits@V?$allocator@UTransitionType@cctz@time_internal@lts_20250814@absl@@@std@@@std@@SAXAEAV?$allocator@UTransitionType@cctz@time_internal@lts_20250814@absl@@@1@QEAUTransitionType@cctz@time_internal@lts_20250814@absl@@@Z
	??$construct@UTransitionType@cctz@time_internal@lts_20250814@absl@@U12345@@?$_Default_allocator_traits@V?$allocator@UTransitionType@cctz@time_internal@lts_20250814@absl@@@std@@@std@@SAXAEAV?$allocator@UTransitionType@cctz@time_internal@lts_20250814@absl@@@1@QEAUTransitionType@cctz@time_internal@lts_20250814@absl@@$$QEAU34567@@Z
	??$construct@UViableSubstitution@strings_internal@lts_20250814@absl@@AEAV?$basic_string_view@DU?$char_traits@D@std@@@std@@AEBV56@AEA_K@?$_Default_allocator_traits@V?$allocator@UViableSubstitution@strings_internal@lts_20250814@absl@@@std@@@std@@SAXAEAV?$allocator@UViableSubstitution@strings_internal@lts_20250814@absl@@@1@QEAUViableSubstitution@strings_internal@lts_20250814@absl@@AEAV?$basic_string_view@DU?$char_traits@D@std@@@1@AEBV71@AEA_K@Z
	??$construct@UViableSubstitution@strings_internal@lts_20250814@absl@@U1234@@?$_Default_allocator_traits@V?$allocator@UViableSubstitution@strings_internal@lts_20250814@absl@@@std@@@std@@SAXAEAV?$allocator@UViableSubstitution@strings_internal@lts_20250814@absl@@@1@QEAUViableSubstitution@strings_internal@lts_20250814@absl@@$$QEAU3456@@Z
	??$construct@V?$allocator@U?$pair@$$CBV?$basic_string@DU?$char_traits@D@std@@V?$allocator@D@2@@std@@W4StringId@debugging_internal@lts_20250814@absl@@@std@@@std@@AEBUpiecewise_construct_t@2@V?$tuple@AEAV?$basic_string_view@DU?$char_traits@D@std@@@std@@@2@V?$tuple@$$QEAW4StringId@debugging_internal@lts_20250814@absl@@@2@@?$FlatHashMapPolicy@V?$basic_string@DU?$char_traits@D@std@@V?$allocator@D@2@@std@@W4StringId@debugging_internal@lts_20250814@absl@@@container_internal@lts_20250814@absl@@SAXPEAV?$allocator@U?$pair@$$CBV?$basic_string@DU?$char_traits@D@std@@V?$allocator@D@2@@std@@W4StringId@debugging_internal@lts_20250814@absl@@@std@@@std@@PEAT?$map_slot_type@V?$basic_string@DU?$char_traits@D@std@@V?$allocator@D@2@@std@@W4StringId@debugging_internal@lts_20250814@absl@@@123@AEBUpiecewise_construct_t@5@$$QEAV?$tuple@AEAV?$basic_string_view@DU?$char_traits@D@std@@@std@@@5@$$QEAV?$tuple@$$QEAW4StringId@debugging_internal@lts_20250814@absl@@@5@@Z
	??$construct@V?$allocator@U?$pair@$$CBV?$basic_string@DU?$char_traits@D@std@@V?$allocator@D@2@@std@@W4StringId@debugging_internal@lts_20250814@absl@@@std@@@std@@AEBUpiecewise_construct_t@2@V?$tuple@AEAV?$basic_string_view@DU?$char_traits@D@std@@@std@@@2@V?$tuple@$$QEAW4StringId@debugging_internal@lts_20250814@absl@@@2@@?$common_policy_traits@U?$FlatHashMapPolicy@V?$basic_string@DU?$char_traits@D@std@@V?$allocator@D@2@@std@@W4StringId@debugging_internal@lts_20250814@absl@@@container_internal@lts_20250814@absl@@X@container_internal@lts_20250814@absl@@SAXPEAV?$allocator@U?$pair@$$CBV?$basic_string@DU?$char_traits@D@std@@V?$allocator@D@2@@std@@W4StringId@debugging_internal@lts_20250814@absl@@@std@@@std@@PEAT?$map_slot_type@V?$basic_string@DU?$char_traits@D@std@@V?$allocator@D@2@@std@@W4StringId@debugging_internal@lts_20250814@absl@@@123@AEBUpiecewise_construct_t@5@$$QEAV?$tuple@AEAV?$basic_string_view@DU?$char_traits@D@std@@@std@@@5@$$QEAV?$tuple@$$QEAW4StringId@debugging_internal@lts_20250814@absl@@@5@@Z
	??$construct@V?$allocator@U?$pair@$$CBV?$basic_string@DU?$char_traits@D@std@@V?$allocator@D@2@@std@@W4StringId@debugging_internal@lts_20250814@absl@@@std@@@std@@AEBUpiecewise_construct_t@2@V?$tuple@AEAV?$basic_string_view@DU?$char_traits@D@std@@@std@@@2@V?$tuple@$$QEAW4StringId@debugging_internal@lts_20250814@absl@@@2@@?$map_slot_policy@V?$basic_string@DU?$char_traits@D@std@@V?$allocator@D@2@@std@@W4StringId@debugging_internal@lts_20250814@absl@@@container_internal@lts_20250814@absl@@SAXPEAV?$allocator@U?$pair@$$CBV?$basic_string@DU?$char_traits@D@std@@V?$allocator@D@2@@std@@W4StringId@debugging_internal@lts_20250814@absl@@@std@@@std@@PEAT?$map_slot_type@V?$basic_string@DU?$char_traits@D@std@@V?$allocator@D@2@@std@@W4StringId@debugging_internal@lts_20250814@absl@@@123@AEBUpiecewise_construct_t@5@$$QEAV?$tuple@AEAV?$basic_string_view@DU?$char_traits@D@std@@@std@@@5@$$QEAV?$tuple@$$QEAW4StringId@debugging_internal@lts_20250814@absl@@@5@@Z
	??$construct@V?$allocator@U?$pair@$$CBV?$basic_string@DU?$char_traits@D@std@@V?$allocator@D@2@@std@@W4StringId@debugging_internal@lts_20250814@absl@@@std@@@std@@AEBUpiecewise_construct_t@2@V?$tuple@AEBV?$basic_string@DU?$char_traits@D@std@@V?$allocator@D@2@@std@@@2@V?$tuple@AEBW4StringId@debugging_internal@lts_20250814@absl@@@2@@?$FlatHashMapPolicy@V?$basic_string@DU?$char_traits@D@std@@V?$allocator@D@2@@std@@W4StringId@debugging_internal@lts_20250814@absl@@@container_internal@lts_20250814@absl@@SAXPEAV?$allocator@U?$pair@$$CBV?$basic_string@DU?$char_traits@D@std@@V?$allocator@D@2@@std@@W4StringId@debugging_internal@lts_20250814@absl@@@std@@@std@@PEAT?$map_slot_type@V?$basic_string@DU?$char_traits@D@std@@V?$allocator@D@2@@std@@W4StringId@debugging_internal@lts_20250814@absl@@@123@AEBUpiecewise_construct_t@5@$$QEAV?$tuple@AEBV?$basic_string@DU?$char_traits@D@std@@V?$allocator@D@2@@std@@@5@$$QEAV?$tuple@AEBW4StringId@debugging_internal@lts_20250814@absl@@@5@@Z
	??$construct@V?$allocator@U?$pair@$$CBV?$basic_string@DU?$char_traits@D@std@@V?$allocator@D@2@@std@@W4StringId@debugging_internal@lts_20250814@absl@@@std@@@std@@AEBUpiecewise_construct_t@2@V?$tuple@AEBV?$basic_string@DU?$char_traits@D@std@@V?$allocator@D@2@@std@@@2@V?$tuple@AEBW4StringId@debugging_internal@lts_20250814@absl@@@2@@?$common_policy_traits@U?$FlatHashMapPolicy@V?$basic_string@DU?$char_traits@D@std@@V?$allocator@D@2@@std@@W4StringId@debugging_internal@lts_20250814@absl@@@container_internal@lts_20250814@absl@@X@container_internal@lts_20250814@absl@@SAXPEAV?$allocator@U?$pair@$$CBV?$basic_string@DU?$char_traits@D@std@@V?$allocator@D@2@@std@@W4StringId@debugging_internal@lts_20250814@absl@@@std@@@std@@PEAT?$map_slot_type@V?$basic_string@DU?$char_traits@D@std@@V?$allocator@D@2@@std@@W4StringId@debugging_internal@lts_20250814@absl@@@123@AEBUpiecewise_construct_t@5@$$QEAV?$tuple@AEBV?$basic_string@DU?$char_traits@D@std@@V?$allocator@D@2@@std@@@5@$$QEAV?$tuple@AEBW4StringId@debugging_internal@lts_20250814@absl@@@5@@Z
	??$construct@V?$allocator@U?$pair@$$CBV?$basic_string@DU?$char_traits@D@std@@V?$allocator@D@2@@std@@W4StringId@debugging_internal@lts_20250814@absl@@@std@@@std@@AEBUpiecewise_construct_t@2@V?$tuple@AEBV?$basic_string@DU?$char_traits@D@std@@V?$allocator@D@2@@std@@@2@V?$tuple@AEBW4StringId@debugging_internal@lts_20250814@absl@@@2@@?$map_slot_policy@V?$basic_string@DU?$char_traits@D@std@@V?$allocator@D@2@@std@@W4StringId@debugging_internal@lts_20250814@absl@@@container_internal@lts_20250814@absl@@SAXPEAV?$allocator@U?$pair@$$CBV?$basic_string@DU?$char_traits@D@std@@V?$allocator@D@2@@std@@W4StringId@debugging_internal@lts_20250814@absl@@@std@@@std@@PEAT?$map_slot_type@V?$basic_string@DU?$char_traits@D@std@@V?$allocator@D@2@@std@@W4StringId@debugging_internal@lts_20250814@absl@@@123@AEBUpiecewise_construct_t@5@$$QEAV?$tuple@AEBV?$basic_string@DU?$char_traits@D@std@@V?$allocator@D@2@@std@@@5@$$QEAV?$tuple@AEBW4StringId@debugging_internal@lts_20250814@absl@@@5@@Z
	??$construct@V?$allocator@U?$pair@$$CB_KW4LocationId@debugging_internal@lts_20250814@absl@@@std@@@std@@AEBUpiecewise_construct_t@2@V?$tuple@$$QEA_K@2@V?$tuple@$$QEAW4LocationId@debugging_internal@lts_20250814@absl@@@2@@?$FlatHashMapPolicy@_KW4LocationId@debugging_internal@lts_20250814@absl@@@container_internal@lts_20250814@absl@@SAXPEAV?$allocator@U?$pair@$$CB_KW4LocationId@debugging_internal@lts_20250814@absl@@@std@@@std@@PEAT?$map_slot_type@_KW4LocationId@debugging_internal@lts_20250814@absl@@@123@AEBUpiecewise_construct_t@5@$$QEAV?$tuple@$$QEA_K@5@$$QEAV?$tuple@$$QEAW4LocationId@debugging_internal@lts_20250814@absl@@@5@@Z
	??$construct@V?$allocator@U?$pair@$$CB_KW4LocationId@debugging_internal@lts_20250814@absl@@@std@@@std@@AEBUpiecewise_construct_t@2@V?$tuple@$$QEA_K@2@V?$tuple@$$QEAW4LocationId@debugging_internal@lts_20250814@absl@@@2@@?$common_policy_traits@U?$FlatHashMapPolicy@_KW4LocationId@debugging_internal@lts_20250814@absl@@@container_internal@lts_20250814@absl@@X@container_internal@lts_20250814@absl@@SAXPEAV?$allocator@U?$pair@$$CB_KW4LocationId@debugging_internal@lts_20250814@absl@@@std@@@std@@PEAT?$map_slot_type@_KW4LocationId@debugging_internal@lts_20250814@absl@@@123@AEBUpiecewise_construct_t@5@$$QEAV?$tuple@$$QEA_K@5@$$QEAV?$tuple@$$QEAW4LocationId@debugging_internal@lts_20250814@absl@@@5@@Z
	??$construct@V?$allocator@U?$pair@$$CB_KW4LocationId@debugging_internal@lts_20250814@absl@@@std@@@std@@AEBUpiecewise_construct_t@2@V?$tuple@$$QEA_K@2@V?$tuple@$$QEAW4LocationId@debugging_internal@lts_20250814@absl@@@2@@?$map_slot_policy@_KW4LocationId@debugging_internal@lts_20250814@absl@@@container_internal@lts_20250814@absl@@SAXPEAV?$allocator@U?$pair@$$CB_KW4LocationId@debugging_internal@lts_20250814@absl@@@std@@@std@@PEAT?$map_slot_type@_KW4LocationId@debugging_internal@lts_20250814@absl@@@123@AEBUpiecewise_construct_t@5@$$QEAV?$tuple@$$QEA_K@5@$$QEAV?$tuple@$$QEAW4LocationId@debugging_internal@lts_20250814@absl@@@5@@Z
	??$construct@V?$allocator@U?$pair@$$CB_K_K@std@@@std@@@?$map_slot_policy@_K_K@container_internal@lts_20250814@absl@@SAXPEAV?$allocator@U?$pair@$$CB_K_K@std@@@std@@PEAT?$map_slot_type@_K_K@123@1@Z
	??$construct@V?$allocator@U?$pair@$$CB_K_K@std@@@std@@AEAPEAT?$map_slot_type@_K_K@container_internal@lts_20250814@absl@@@?$common_policy_traits@U?$map_slot_policy@_K_K@container_internal@lts_20250814@absl@@X@container_internal@lts_20250814@absl@@SAXPEAV?$allocator@U?$pair@$$CB_K_K@std@@@std@@PEAT?$map_slot_type@_K_K@123@AEAPEAT6123@@Z
	??$construct@V?$allocator@U?$pair@$$CB_K_K@std@@@std@@AEA_KAEA_K@?$common_policy_traits@U?$map_slot_policy@_K_K@container_internal@lts_20250814@absl@@X@container_internal@lts_20250814@absl@@SAXPEAV?$allocator@U?$pair@$$CB_K_K@std@@@std@@PEAT?$map_slot_type@_K_K@123@AEA_K2@Z
	??$construct@V?$allocator@U?$pair@$$CB_K_K@std@@@std@@AEA_KAEA_K@?$map_slot_policy@_K_K@container_internal@lts_20250814@absl@@SAXPEAV?$allocator@U?$pair@$$CB_K_K@std@@@std@@PEAT?$map_slot_type@_K_K@123@AEA_K2@Z
	??$construct@V?$allocator@U?$pair@$$CB_K_K@std@@@std@@PEAT?$map_slot_type@_K_K@container_internal@lts_20250814@absl@@@?$common_policy_traits@U?$map_slot_policy@_K_K@container_internal@lts_20250814@absl@@X@container_internal@lts_20250814@absl@@SAXPEAV?$allocator@U?$pair@$$CB_K_K@std@@@std@@PEAT?$map_slot_type@_K_K@123@$$QEAPEAT6123@@Z
	??$construct@V?$basic_string@DU?$char_traits@D@std@@V?$allocator@D@2@@std@@V12@@?$_Default_allocator_traits@V?$allocator@V?$basic_string@DU?$char_traits@D@std@@V?$allocator@D@2@@std@@@std@@@std@@SAXAEAV?$allocator@V?$basic_string@DU?$char_traits@D@std@@V?$allocator@D@2@@std@@@1@QEAV?$basic_string@DU?$char_traits@D@std@@V?$allocator@D@2@@1@$$QEAV31@@Z
	??$construct@V?$basic_string_view@DU?$char_traits@D@std@@@std@@$$V@?$_Default_allocator_traits@V?$allocator@V?$basic_string_view@DU?$char_traits@D@std@@@std@@@std@@@std@@SAXAEAV?$allocator@V?$basic_string_view@DU?$char_traits@D@std@@@std@@@1@QEAV?$basic_string_view@DU?$char_traits@D@std@@@1@@Z
	??$construct@V?$function@$$A6AXXZ@std@@V12@@?$_Default_allocator_traits@V?$allocator@V?$function@$$A6AXXZ@std@@@std@@@std@@SAXAEAV?$allocator@V?$function@$$A6AXXZ@std@@@1@QEAV?$function@$$A6AXXZ@1@$$QEAV31@@Z
	??$construct@VFormatArgImpl@str_format_internal@lts_20250814@absl@@AEBV1234@@?$_Default_allocator_traits@V?$allocator@VFormatArgImpl@str_format_internal@lts_20250814@absl@@@std@@@std@@SAXAEAV?$allocator@VFormatArgImpl@str_format_internal@lts_20250814@absl@@@1@QEAVFormatArgImpl@str_format_internal@lts_20250814@absl@@AEBV3456@@Z
	??$construct@_KAEB_K@?$_Default_allocator_traits@V?$allocator@_K@std@@@std@@SAXAEAV?$allocator@_K@1@QEA_KAEB_K@Z
	??$construct@_K_K@?$_Default_allocator_traits@V?$allocator@_K@std@@@std@@SAXAEAV?$allocator@_K@1@QEA_K$$QEA_K@Z
	??$copy@PEBDPEAD@std@@YAPEADPEBD0PEAD@Z
	??$copy@PEBIPEAI@std@@YAPEAIPEBI0PEAI@Z
	??$copy@V?$_String_view_iterator@U?$char_traits@D@std@@@std@@PEAD@std@@YAPEADV?$_String_view_iterator@U?$char_traits@D@std@@@0@0PEAD@Z
	??$copy_backward@PEAIPEAI@std@@YAPEAIPEAI00@Z
	??$copy_n@PEAHIPEAH@std@@YAPEAHPEAHI0@Z
	??$copy_n@PEBDHPEAD@std@@YAPEADPEBDHPEAD@Z
	??$copy_n@PEBD_JPEAD@std@@YAPEADPEBD_JPEAD@Z
	??$copy_n@PEBD_KPEAD@std@@YAPEADPEBD_KPEAD@Z
	??$copy_n@PEBIHPEAI@std@@YAPEAIPEBIHPEAI@Z
	??$countl_zero@G@lts_20250814@absl@@YAHG@Z
	??$countl_zero@_K@lts_20250814@absl@@YAH_K@Z
	??$countr_zero@G@lts_20250814@absl@@YAHG@Z
	??$countr_zero@I@lts_20250814@absl@@YAHI@Z
	??$countr_zero@_K@lts_20250814@absl@@YAH_K@Z
	??$destroy@D@?$_Default_allocator_traits@V?$allocator@D@std@@@std@@SAXAEAV?$allocator@D@1@QEAD@Z
	??$destroy@H@?$_Default_allocator_traits@V?$allocator@U?$_List_node@HPEAX@std@@@std@@@std@@SAXAEAV?$allocator@U?$_List_node@HPEAX@std@@@1@QEAH@Z
	??$destroy@PEAUCordRep@cord_internal@lts_20250814@absl@@@?$_Default_allocator_traits@V?$allocator@PEAUCordRep@cord_internal@lts_20250814@absl@@@std@@@std@@SAXAEAV?$allocator@PEAUCordRep@cord_internal@lts_20250814@absl@@@1@QEAPEAUCordRep@cord_internal@lts_20250814@absl@@@Z
	??$destroy@PEAVLogSink@lts_20250814@absl@@@?$_Default_allocator_traits@V?$allocator@PEAVLogSink@lts_20250814@absl@@@std@@@std@@SAXAEAV?$allocator@PEAVLogSink@lts_20250814@absl@@@1@QEAPEAVLogSink@lts_20250814@absl@@@Z
	??$destroy@PEBUCordRep@cord_internal@lts_20250814@absl@@@?$_Default_allocator_traits@V?$allocator@U?$_List_node@PEBUCordRep@cord_internal@lts_20250814@absl@@PEAX@std@@@std@@@std@@SAXAEAV?$allocator@U?$_List_node@PEBUCordRep@cord_internal@lts_20250814@absl@@PEAX@std@@@1@QEAPEBUCordRep@cord_internal@lts_20250814@absl@@@Z
	??$destroy@U?$pair@$$CBV?$basic_string@DU?$char_traits@D@std@@V?$allocator@D@2@@std@@PEBVImpl@time_zone@cctz@time_internal@lts_20250814@absl@@@std@@@?$_Default_allocator_traits@V?$allocator@U?$_List_node@U?$pair@$$CBV?$basic_string@DU?$char_traits@D@std@@V?$allocator@D@2@@std@@PEBVImpl@time_zone@cctz@time_internal@lts_20250814@absl@@@std@@PEAX@std@@@std@@@std@@SAXAEAV?$allocator@U?$_List_node@U?$pair@$$CBV?$basic_string@DU?$char_traits@D@std@@V?$allocator@D@2@@std@@PEBVImpl@time_zone@cctz@time_internal@lts_20250814@absl@@@std@@PEAX@std@@@1@QEAU?$pair@$$CBV?$basic_string@DU?$char_traits@D@std@@V?$allocator@D@2@@std@@PEBVImpl@time_zone@cctz@time_internal@lts_20250814@absl@@@1@@Z
	??$destroy@U?$pair@$$CBV?$basic_string@DU?$char_traits@D@std@@V?$allocator@D@2@@std@@W4StringId@debugging_internal@lts_20250814@absl@@@std@@@?$_Default_allocator_traits@V?$allocator@U?$pair@$$CBV?$basic_string@DU?$char_traits@D@std@@V?$allocator@D@2@@std@@W4StringId@debugging_internal@lts_20250814@absl@@@std@@@std@@@std@@SAXAEAV?$allocator@U?$pair@$$CBV?$basic_string@DU?$char_traits@D@std@@V?$allocator@D@2@@std@@W4StringId@debugging_internal@lts_20250814@absl@@@std@@@1@QEAU?$pair@$$CBV?$basic_string@DU?$char_traits@D@std@@V?$allocator@D@2@@std@@W4StringId@debugging_internal@lts_20250814@absl@@@1@@Z
	??$destroy@U?$pair@$$CB_KW4LocationId@debugging_internal@lts_20250814@absl@@@std@@@?$_Default_allocator_traits@V?$allocator@U?$pair@$$CB_KW4LocationId@debugging_internal@lts_20250814@absl@@@std@@@std@@@std@@SAXAEAV?$allocator@U?$pair@$$CB_KW4LocationId@debugging_internal@lts_20250814@absl@@@std@@@1@QEAU?$pair@$$CB_KW4LocationId@debugging_internal@lts_20250814@absl@@@1@@Z
	??$destroy@U?$pair@$$CB_K_K@std@@@?$_Default_allocator_traits@V?$allocator@U?$pair@$$CB_K_K@std@@@std@@@std@@SAXAEAV?$allocator@U?$pair@$$CB_K_K@std@@@1@QEAU?$pair@$$CB_K_K@1@@Z
	??$destroy@U?$pair@V?$basic_string@DU?$char_traits@D@std@@V?$allocator@D@2@@std@@W4StringId@debugging_internal@lts_20250814@absl@@@std@@@?$_Default_allocator_traits@V?$allocator@U?$pair@$$CBV?$basic_string@DU?$char_traits@D@std@@V?$allocator@D@2@@std@@W4StringId@debugging_internal@lts_20250814@absl@@@std@@@std@@@std@@SAXAEAV?$allocator@U?$pair@$$CBV?$basic_string@DU?$char_traits@D@std@@V?$allocator@D@2@@std@@W4StringId@debugging_internal@lts_20250814@absl@@@std@@@1@QEAU?$pair@V?$basic_string@DU?$char_traits@D@std@@V?$allocator@D@2@@std@@W4StringId@debugging_internal@lts_20250814@absl@@@1@@Z
	??$destroy@U?$pair@_KW4LocationId@debugging_internal@lts_20250814@absl@@@std@@@?$_Default_allocator_traits@V?$allocator@U?$pair@$$CB_KW4LocationId@debugging_internal@lts_20250814@absl@@@std@@@std@@@std@@SAXAEAV?$allocator@U?$pair@$$CB_KW4LocationId@debugging_internal@lts_20250814@absl@@@std@@@1@QEAU?$pair@_KW4LocationId@debugging_internal@lts_20250814@absl@@@1@@Z
	??$destroy@U?$pair@_K_K@std@@@?$_Default_allocator_traits@V?$allocator@U?$pair@$$CB_K_K@std@@@std@@@std@@SAXAEAV?$allocator@U?$pair@$$CB_K_K@std@@@1@QEAU?$pair@_K_K@1@@Z
	??$destroy@UMapping@ProfileBuilder@debugging_internal@lts_20250814@absl@@@?$_Default_allocator_traits@V?$allocator@UMapping@ProfileBuilder@debugging_internal@lts_20250814@absl@@@std@@@std@@SAXAEAV?$allocator@UMapping@ProfileBuilder@debugging_internal@lts_20250814@absl@@@1@QEAUMapping@ProfileBuilder@debugging_internal@lts_20250814@absl@@@Z
	??$destroy@UPayload@status_internal@lts_20250814@absl@@@?$_Default_allocator_traits@V?$allocator@UPayload@status_internal@lts_20250814@absl@@@std@@@std@@SAXAEAV?$allocator@UPayload@status_internal@lts_20250814@absl@@@1@QEAUPayload@status_internal@lts_20250814@absl@@@Z
	??$destroy@UPrefixCrc@CrcCordState@crc_internal@lts_20250814@absl@@@?$_Default_allocator_traits@V?$allocator@UPrefixCrc@CrcCordState@crc_internal@lts_20250814@absl@@@std@@@std@@SAXAEAV?$allocator@UPrefixCrc@CrcCordState@crc_internal@lts_20250814@absl@@@1@QEAUPrefixCrc@CrcCordState@crc_internal@lts_20250814@absl@@@Z
	??$destroy@UTransition@cctz@time_internal@lts_20250814@absl@@@?$_Default_allocator_traits@V?$allocator@UTransition@cctz@time_internal@lts_20250814@absl@@@std@@@std@@SAXAEAV?$allocator@UTransition@cctz@time_internal@lts_20250814@absl@@@1@QEAUTransition@cctz@time_internal@lts_20250814@absl@@@Z
	??$destroy@UTransitionType@cctz@time_internal@lts_20250814@absl@@@?$_Default_allocator_traits@V?$allocator@UTransitionType@cctz@time_internal@lts_20250814@absl@@@std@@@std@@SAXAEAV?$allocator@UTransitionType@cctz@time_internal@lts_20250814@absl@@@1@QEAUTransitionType@cctz@time_internal@lts_20250814@absl@@@Z
	??$destroy@UViableSubstitution@strings_internal@lts_20250814@absl@@@?$_Default_allocator_traits@V?$allocator@UViableSubstitution@strings_internal@lts_20250814@absl@@@std@@@std@@SAXAEAV?$allocator@UViableSubstitution@strings_internal@lts_20250814@absl@@@1@QEAUViableSubstitution@strings_internal@lts_20250814@absl@@@Z
	??$destroy@V?$allocator@U?$pair@$$CBV?$basic_string@DU?$char_traits@D@std@@V?$allocator@D@2@@std@@W4StringId@debugging_internal@lts_20250814@absl@@@std@@@std@@@?$FlatHashMapPolicy@V?$basic_string@DU?$char_traits@D@std@@V?$allocator@D@2@@std@@W4StringId@debugging_internal@lts_20250814@absl@@@container_internal@lts_20250814@absl@@SA?A_PPEAV?$allocator@U?$pair@$$CBV?$basic_string@DU?$char_traits@D@std@@V?$allocator@D@2@@std@@W4StringId@debugging_internal@lts_20250814@absl@@@std@@@std@@PEAT?$map_slot_type@V?$basic_string@DU?$char_traits@D@std@@V?$allocator@D@2@@std@@W4StringId@debugging_internal@lts_20250814@absl@@@123@@Z
	??$destroy@V?$allocator@U?$pair@$$CBV?$basic_string@DU?$char_traits@D@std@@V?$allocator@D@2@@std@@W4StringId@debugging_internal@lts_20250814@absl@@@std@@@std@@@?$common_policy_traits@U?$FlatHashMapPolicy@V?$basic_string@DU?$char_traits@D@std@@V?$allocator@D@2@@std@@W4StringId@debugging_internal@lts_20250814@absl@@@container_internal@lts_20250814@absl@@X@container_internal@lts_20250814@absl@@SA?A_PPEAV?$allocator@U?$pair@$$CBV?$basic_string@DU?$char_traits@D@std@@V?$allocator@D@2@@std@@W4StringId@debugging_internal@lts_20250814@absl@@@std@@@std@@PEAT?$map_slot_type@V?$basic_string@DU?$char_traits@D@std@@V?$allocator@D@2@@std@@W4StringId@debugging_internal@lts_20250814@absl@@@123@@Z
	??$destroy@V?$allocator@U?$pair@$$CBV?$basic_string@DU?$char_traits@D@std@@V?$allocator@D@2@@std@@W4StringId@debugging_internal@lts_20250814@absl@@@std@@@std@@@?$map_slot_policy@V?$basic_string@DU?$char_traits@D@std@@V?$allocator@D@2@@std@@W4StringId@debugging_internal@lts_20250814@absl@@@container_internal@lts_20250814@absl@@SA?A_PPEAV?$allocator@U?$pair@$$CBV?$basic_string@DU?$char_traits@D@std@@V?$allocator@D@2@@std@@W4StringId@debugging_internal@lts_20250814@absl@@@std@@@std@@PEAT?$map_slot_type@V?$basic_string@DU?$char_traits@D@std@@V?$allocator@D@2@@std@@W4StringId@debugging_internal@lts_20250814@absl@@@123@@Z
	??$destroy@V?$allocator@U?$pair@$$CB_KW4LocationId@debugging_internal@lts_20250814@absl@@@std@@@std@@@?$FlatHashMapPolicy@_KW4LocationId@debugging_internal@lts_20250814@absl@@@container_internal@lts_20250814@absl@@SA?A_PPEAV?$allocator@U?$pair@$$CB_KW4LocationId@debugging_internal@lts_20250814@absl@@@std@@@std@@PEAT?$map_slot_type@_KW4LocationId@debugging_internal@lts_20250814@absl@@@123@@Z
	??$destroy@V?$allocator@U?$pair@$$CB_KW4LocationId@debugging_internal@lts_20250814@absl@@@std@@@std@@@?$common_policy_traits@U?$FlatHashMapPolicy@_KW4LocationId@debugging_internal@lts_20250814@absl@@@container_internal@lts_20250814@absl@@X@container_internal@lts_20250814@absl@@SA?A_PPEAV?$allocator@U?$pair@$$CB_KW4LocationId@debugging_internal@lts_20250814@absl@@@std@@@std@@PEAT?$map_slot_type@_KW4LocationId@debugging_internal@lts_20250814@absl@@@123@@Z
	??$destroy@V?$allocator@U?$pair@$$CB_KW4LocationId@debugging_internal@lts_20250814@absl@@@std@@@std@@@?$map_slot_policy@_KW4LocationId@debugging_internal@lts_20250814@absl@@@container_internal@lts_20250814@absl@@SA?A_PPEAV?$allocator@U?$pair@$$CB_KW4LocationId@debugging_internal@lts_20250814@absl@@@std@@@std@@PEAT?$map_slot_type@_KW4LocationId@debugging_internal@lts_20250814@absl@@@123@@Z
	??$destroy@V?$allocator@U?$pair@$$CB_K_K@std@@@std@@@?$common_policy_traits@U?$map_slot_policy@_K_K@container_internal@lts_20250814@absl@@X@container_internal@lts_20250814@absl@@SA?A_PPEAV?$allocator@U?$pair@$$CB_K_K@std@@@std@@PEAT?$map_slot_type@_K_K@123@@Z
	??$destroy@V?$allocator@U?$pair@$$CB_K_K@std@@@std@@@?$map_slot_policy@_K_K@container_internal@lts_20250814@absl@@SA?A_PPEAV?$allocator@U?$pair@$$CB_K_K@std@@@std@@PEAT?$map_slot_type@_K_K@123@@Z
	??$destroy@V?$basic_string@DU?$char_traits@D@std@@V?$allocator@D@2@@std@@@?$_Default_allocator_traits@V?$allocator@V?$basic_string@DU?$char_traits@D@std@@V?$allocator@D@2@@std@@@std@@@std@@SAXAEAV?$allocator@V?$basic_string@DU?$char_traits@D@std@@V?$allocator@D@2@@std@@@1@QEAV?$basic_string@DU?$char_traits@D@std@@V?$allocator@D@2@@1@@Z
	??$destroy@V?$function@$$A6AXXZ@std@@@?$_Default_allocator_traits@V?$allocator@V?$function@$$A6AXXZ@std@@@std@@@std@@SAXAEAV?$allocator@V?$function@$$A6AXXZ@std@@@1@QEAV?$function@$$A6AXXZ@1@@Z
	??$destroy@V?$unique_ptr@VCRCImpl@crc_internal@lts_20250814@absl@@U?$default_delete@VCRCImpl@crc_internal@lts_20250814@absl@@@std@@@std@@@?$_Default_allocator_traits@V?$allocator@V?$unique_ptr@VCRCImpl@crc_internal@lts_20250814@absl@@U?$default_delete@VCRCImpl@crc_internal@lts_20250814@absl@@@std@@@std@@@std@@@std@@SAXAEAV?$allocator@V?$unique_ptr@VCRCImpl@crc_internal@lts_20250814@absl@@U?$default_delete@VCRCImpl@crc_internal@lts_20250814@absl@@@std@@@std@@@1@QEAV?$unique_ptr@VCRCImpl@crc_internal@lts_20250814@absl@@U?$default_delete@VCRCImpl@crc_internal@lts_20250814@absl@@@std@@@1@@Z
	??$destroy@_K@?$_Default_allocator_traits@V?$allocator@_K@std@@@std@@SAXAEAV?$allocator@_K@1@QEA_K@Z
	??$destroy_is_trivial@V?$allocator@U?$pair@$$CBV?$basic_string@DU?$char_traits@D@std@@V?$allocator@D@2@@std@@W4StringId@debugging_internal@lts_20250814@absl@@@std@@@std@@@?$common_policy_traits@U?$FlatHashMapPolicy@V?$basic_string@DU?$char_traits@D@std@@V?$allocator@D@2@@std@@W4StringId@debugging_internal@lts_20250814@absl@@@container_internal@lts_20250814@absl@@X@container_internal@lts_20250814@absl@@SA_NXZ
	??$destroy_is_trivial@V?$allocator@U?$pair@$$CB_KW4LocationId@debugging_internal@lts_20250814@absl@@@std@@@std@@@?$common_policy_traits@U?$FlatHashMapPolicy@_KW4LocationId@debugging_internal@lts_20250814@absl@@@container_internal@lts_20250814@absl@@X@container_internal@lts_20250814@absl@@SA_NXZ
	??$distance@PEBU?$pair@V?$basic_string@DU?$char_traits@D@std@@V?$allocator@D@2@@std@@W4StringId@debugging_internal@lts_20250814@absl@@@std@@@std@@YA_JPEBU?$pair@V?$basic_string@DU?$char_traits@D@std@@V?$allocator@D@2@@std@@W4StringId@debugging_internal@lts_20250814@absl@@@0@0@Z
	??$distance@PEBUPayload@status_internal@lts_20250814@absl@@@std@@YA_JPEBUPayload@status_internal@lts_20250814@absl@@0@Z
	??$distance@PEBUTransition@cctz@time_internal@lts_20250814@absl@@@std@@YA_JPEBUTransition@cctz@time_internal@lts_20250814@absl@@0@Z
	??$distance@PEBVFormatArgImpl@str_format_internal@lts_20250814@absl@@@std@@YA_JPEBVFormatArgImpl@str_format_internal@lts_20250814@absl@@0@Z
	??$duration_cast@V?$duration@_JU?$ratio@$00$00@std@@@chrono@std@@HU?$ratio@$0OBA@$00@3@$0A@@chrono@std@@YA?AV?$duration@_JU?$ratio@$00$00@std@@@01@AEBV?$duration@HU?$ratio@$0OBA@$00@std@@@01@@Z
	??$duration_cast@V?$duration@_JU?$ratio@$00$00@std@@@chrono@std@@_JU?$ratio@$00$0JIJGIA@@3@$0A@@chrono@std@@YA?AV?$duration@_JU?$ratio@$00$00@std@@@01@AEBV?$duration@_JU?$ratio@$00$0JIJGIA@@std@@@01@@Z
	??$duration_cast@V?$duration@_JU?$ratio@$00$0DLJKMKAA@@std@@@chrono@std@@_JU?$ratio@$00$0DLJKMKAA@@3@$0A@@chrono@std@@YA?AV?$duration@_JU?$ratio@$00$0DLJKMKAA@@std@@@01@AEBV201@@Z
	??$duration_cast@V?$duration@_JU?$ratio@$00$0DLJKMKAA@@std@@@chrono@std@@_JU?$ratio@$00$0DOI@@3@$0A@@chrono@std@@YA?AV?$duration@_JU?$ratio@$00$0DLJKMKAA@@std@@@01@AEBV?$duration@_JU?$ratio@$00$0DOI@@std@@@01@@Z
	??$duration_cast@V?$duration@_JU?$ratio@$00$0DLJKMKAA@@std@@@chrono@std@@_JU?$ratio@$00$0JIJGIA@@3@$0A@@chrono@std@@YA?AV?$duration@_JU?$ratio@$00$0DLJKMKAA@@std@@@01@AEBV?$duration@_JU?$ratio@$00$0JIJGIA@@std@@@01@@Z
	??$duration_cast@V?$duration@_JU?$ratio@$00$0DOI@@std@@@chrono@std@@_JU?$ratio@$00$0DLJKMKAA@@3@$0A@@chrono@std@@YA?AV?$duration@_JU?$ratio@$00$0DOI@@std@@@01@AEBV?$duration@_JU?$ratio@$00$0DLJKMKAA@@std@@@01@@Z
	??$duration_cast@V?$duration@_JU?$ratio@$00$0DOI@@std@@@chrono@std@@_JU?$ratio@$00$0JIJGIA@@3@$0A@@chrono@std@@YA?AV?$duration@_JU?$ratio@$00$0DOI@@std@@@01@AEBV?$duration@_JU?$ratio@$00$0JIJGIA@@std@@@01@@Z
	??$duration_cast@V?$duration@_JU?$ratio@$00$0JIJGIA@@std@@@chrono@std@@_JU?$ratio@$00$00@3@$0A@@chrono@std@@YA?AV?$duration@_JU?$ratio@$00$0JIJGIA@@std@@@01@AEBV?$duration@_JU?$ratio@$00$00@std@@@01@@Z
	??$duration_cast@V?$duration@_JU?$ratio@$00$0JIJGIA@@std@@@chrono@std@@_JU?$ratio@$00$0DOI@@3@$0A@@chrono@std@@YA?AV?$duration@_JU?$ratio@$00$0JIJGIA@@std@@@01@AEBV?$duration@_JU?$ratio@$00$0DOI@@std@@@01@@Z
	??$duration_cast@V?$duration@_JU?$ratio@$00$0JIJGIA@@std@@@chrono@std@@_JU?$ratio@$00$0PECEA@@3@$0A@@chrono@std@@YA?AV?$duration@_JU?$ratio@$00$0JIJGIA@@std@@@01@AEBV?$duration@_JU?$ratio@$00$0PECEA@@std@@@01@@Z
	??$duration_cast@V?$duration@_JU?$ratio@$00$0PECEA@@std@@@chrono@std@@_JU?$ratio@$00$0DLJKMKAA@@3@$0A@@chrono@std@@YA?AV?$duration@_JU?$ratio@$00$0PECEA@@std@@@01@AEBV?$duration@_JU?$ratio@$00$0DLJKMKAA@@std@@@01@@Z
	??$element@U?$FlatHashMapPolicy@V?$basic_string@DU?$char_traits@D@std@@V?$allocator@D@2@@std@@W4StringId@debugging_internal@lts_20250814@absl@@@container_internal@lts_20250814@absl@@@?$common_policy_traits@U?$FlatHashMapPolicy@V?$basic_string@DU?$char_traits@D@std@@V?$allocator@D@2@@std@@W4StringId@debugging_internal@lts_20250814@absl@@@container_internal@lts_20250814@absl@@X@container_internal@lts_20250814@absl@@SAAEAU?$pair@$$CBV?$basic_string@DU?$char_traits@D@std@@V?$allocator@D@2@@std@@W4StringId@debugging_internal@lts_20250814@absl@@@std@@PEAT?$map_slot_type@V?$basic_string@DU?$char_traits@D@std@@V?$allocator@D@2@@std@@W4StringId@debugging_internal@lts_20250814@absl@@@123@@Z
	??$element@U?$FlatHashMapPolicy@_KW4LocationId@debugging_internal@lts_20250814@absl@@@container_internal@lts_20250814@absl@@@?$common_policy_traits@U?$FlatHashMapPolicy@_KW4LocationId@debugging_internal@lts_20250814@absl@@@container_internal@lts_20250814@absl@@X@container_internal@lts_20250814@absl@@SAAEAU?$pair@$$CB_KW4LocationId@debugging_internal@lts_20250814@absl@@@std@@PEAT?$map_slot_type@_KW4LocationId@debugging_internal@lts_20250814@absl@@@123@@Z
	??$element@U?$map_slot_policy@_K_K@container_internal@lts_20250814@absl@@@?$common_policy_traits@U?$map_slot_policy@_K_K@container_internal@lts_20250814@absl@@X@container_internal@lts_20250814@absl@@SAAEAU?$pair@$$CB_K_K@std@@PEAT?$map_slot_type@_K_K@123@@Z
	??$emplace@$$V@?$vector@UTransition@cctz@time_internal@lts_20250814@absl@@V?$allocator@UTransition@cctz@time_internal@lts_20250814@absl@@@std@@@std@@QEAA?AV?$_Vector_iterator@V?$_Vector_val@U?$_Simple_types@UTransition@cctz@time_internal@lts_20250814@absl@@@std@@@std@@@1@V?$_Vector_const_iterator@V?$_Vector_val@U?$_Simple_types@UTransition@cctz@time_internal@lts_20250814@absl@@@std@@@std@@@1@@Z
	??$emplace@$$V@?$vector@UTransitionType@cctz@time_internal@lts_20250814@absl@@V?$allocator@UTransitionType@cctz@time_internal@lts_20250814@absl@@@std@@@std@@QEAA?AV?$_Vector_iterator@V?$_Vector_val@U?$_Simple_types@UTransitionType@cctz@time_internal@lts_20250814@absl@@@std@@@std@@@1@V?$_Vector_const_iterator@V?$_Vector_val@U?$_Simple_types@UTransitionType@cctz@time_internal@lts_20250814@absl@@@std@@@std@@@1@@Z
	??$emplace@AEAV?$basic_string_view@DU?$char_traits@D@std@@@std@@W4StringId@debugging_internal@lts_20250814@absl@@$0A@@?$raw_hash_set@U?$FlatHashMapPolicy@V?$basic_string@DU?$char_traits@D@std@@V?$allocator@D@2@@std@@W4StringId@debugging_internal@lts_20250814@absl@@@container_internal@lts_20250814@absl@@UStringHash@234@UStringEq@234@V?$allocator@U?$pair@$$CBV?$basic_string@DU?$char_traits@D@std@@V?$allocator@D@2@@std@@W4StringId@debugging_internal@lts_20250814@absl@@@std@@@std@@@container_internal@lts_20250814@absl@@QEAA?AU?$pair@Viterator@?$raw_hash_set@U?$FlatHashMapPolicy@V?$basic_string@DU?$char_traits@D@std@@V?$allocator@D@2@@std@@W4StringId@debugging_internal@lts_20250814@absl@@@container_internal@lts_20250814@absl@@UStringHash@234@UStringEq@234@V?$allocator@U?$pair@$$CBV?$basic_string@DU?$char_traits@D@std@@V?$allocator@D@2@@std@@W4StringId@debugging_internal@lts_20250814@absl@@@std@@@std@@@container_internal@lts_20250814@absl@@_N@std@@AEAV?$basic_string_view@DU?$char_traits@D@std@@@5@$$QEAW4StringId@debugging_internal@23@@Z
	??$emplace@AEA_KAEA_K@?$btree_set_container@V?$btree@U?$map_params@_K_KU?$less@_K@std@@V?$allocator@U?$pair@$$CB_K_K@std@@@2@$0BAA@$0A@@container_internal@lts_20250814@absl@@@container_internal@lts_20250814@absl@@@container_internal@lts_20250814@absl@@QEAA?AU?$pair@V?$btree_iterator@V?$btree_node@U?$map_params@_K_KU?$less@_K@std@@V?$allocator@U?$pair@$$CB_K_K@std@@@2@$0BAA@$0A@@container_internal@lts_20250814@absl@@@container_internal@lts_20250814@absl@@AEAU?$pair@$$CB_K_K@std@@PEAU56@@container_internal@lts_20250814@absl@@_N@std@@AEA_K0@Z
	??$emplace@AEBH@?$_Hash@V?$_Uset_traits@HV?$_Uhash_compare@HU?$hash@H@std@@U?$equal_to@H@2@@std@@V?$allocator@H@2@$0A@@std@@@std@@QEAA?AU?$pair@V?$_List_const_iterator@V?$_List_val@U?$_List_simple_types@H@std@@@std@@@std@@_N@1@AEBH@Z
	??$emplace@AEBQEBUCordRep@cord_internal@lts_20250814@absl@@@?$_Hash@V?$_Uset_traits@PEBUCordRep@cord_internal@lts_20250814@absl@@V?$_Uhash_compare@PEBUCordRep@cord_internal@lts_20250814@absl@@U?$hash@PEBUCordRep@cord_internal@lts_20250814@absl@@@std@@U?$equal_to@PEBUCordRep@cord_internal@lts_20250814@absl@@@6@@std@@V?$allocator@PEBUCordRep@cord_internal@lts_20250814@absl@@@6@$0A@@std@@@std@@QEAA?AU?$pair@V?$_List_const_iterator@V?$_List_val@U?$_List_simple_types@PEBUCordRep@cord_internal@lts_20250814@absl@@@std@@@std@@@std@@_N@1@AEBQEBUCordRep@cord_internal@lts_20250814@absl@@@Z
	??$emplace@AEBU?$pair@V?$basic_string@DU?$char_traits@D@std@@V?$allocator@D@2@@std@@W4StringId@debugging_internal@lts_20250814@absl@@@std@@$0A@@?$raw_hash_set@U?$FlatHashMapPolicy@V?$basic_string@DU?$char_traits@D@std@@V?$allocator@D@2@@std@@W4StringId@debugging_internal@lts_20250814@absl@@@container_internal@lts_20250814@absl@@UStringHash@234@UStringEq@234@V?$allocator@U?$pair@$$CBV?$basic_string@DU?$char_traits@D@std@@V?$allocator@D@2@@std@@W4StringId@debugging_internal@lts_20250814@absl@@@std@@@std@@@container_internal@lts_20250814@absl@@QEAA?AU?$pair@Viterator@?$raw_hash_set@U?$FlatHashMapPolicy@V?$basic_string@DU?$char_traits@D@std@@V?$allocator@D@2@@std@@W4StringId@debugging_internal@lts_20250814@absl@@@container_internal@lts_20250814@absl@@UStringHash@234@UStringEq@234@V?$allocator@U?$pair@$$CBV?$basic_string@DU?$char_traits@D@std@@V?$allocator@D@2@@std@@W4StringId@debugging_internal@lts_20250814@absl@@@std@@@std@@@container_internal@lts_20250814@absl@@_N@std@@AEBU?$pair@V?$basic_string@DU?$char_traits@D@std@@V?$allocator@D@2@@std@@W4StringId@debugging_internal@lts_20250814@absl@@@5@@Z
	??$emplace@_KW4LocationId@debugging_internal@lts_20250814@absl@@$0A@@?$raw_hash_set@U?$FlatHashMapPolicy@_KW4LocationId@debugging_internal@lts_20250814@absl@@@container_internal@lts_20250814@absl@@U?$Hash@_K@hash_internal@34@U?$equal_to@_K@std@@V?$allocator@U?$pair@$$CB_KW4LocationId@debugging_internal@lts_20250814@absl@@@std@@@8@@container_internal@lts_20250814@absl@@QEAA?AU?$pair@Viterator@?$raw_hash_set@U?$FlatHashMapPolicy@_KW4LocationId@debugging_internal@lts_20250814@absl@@@container_internal@lts_20250814@absl@@U?$Hash@_K@hash_internal@34@U?$equal_to@_K@std@@V?$allocator@U?$pair@$$CB_KW4LocationId@debugging_internal@lts_20250814@absl@@@std@@@8@@container_internal@lts_20250814@absl@@_N@std@@$$QEA_K$$QEAW4LocationId@debugging_internal@23@@Z
	??$emplace_at@AEBUpiecewise_construct_t@std@@V?$tuple@$$QEA_K@2@V?$tuple@$$QEAW4LocationId@debugging_internal@lts_20250814@absl@@@2@@?$raw_hash_set@U?$FlatHashMapPolicy@_KW4LocationId@debugging_internal@lts_20250814@absl@@@container_internal@lts_20250814@absl@@U?$Hash@_K@hash_internal@34@U?$equal_to@_K@std@@V?$allocator@U?$pair@$$CB_KW4LocationId@debugging_internal@lts_20250814@absl@@@std@@@8@@container_internal@lts_20250814@absl@@IEAAXViterator@0123@AEBUpiecewise_construct_t@std@@$$QEAV?$tuple@$$QEA_K@6@$$QEAV?$tuple@$$QEAW4LocationId@debugging_internal@lts_20250814@absl@@@6@@Z
	??$emplace_at@AEBUpiecewise_construct_t@std@@V?$tuple@AEAV?$basic_string_view@DU?$char_traits@D@std@@@std@@@2@V?$tuple@$$QEAW4StringId@debugging_internal@lts_20250814@absl@@@2@@?$raw_hash_set@U?$FlatHashMapPolicy@V?$basic_string@DU?$char_traits@D@std@@V?$allocator@D@2@@std@@W4StringId@debugging_internal@lts_20250814@absl@@@container_internal@lts_20250814@absl@@UStringHash@234@UStringEq@234@V?$allocator@U?$pair@$$CBV?$basic_string@DU?$char_traits@D@std@@V?$allocator@D@2@@std@@W4StringId@debugging_internal@lts_20250814@absl@@@std@@@std@@@container_internal@lts_20250814@absl@@IEAAXViterator@0123@AEBUpiecewise_construct_t@std@@$$QEAV?$tuple@AEAV?$basic_string_view@DU?$char_traits@D@std@@@std@@@6@$$QEAV?$tuple@$$QEAW4StringId@debugging_internal@lts_20250814@absl@@@6@@Z
	??$emplace_at@AEBUpiecewise_construct_t@std@@V?$tuple@AEBV?$basic_string@DU?$char_traits@D@std@@V?$allocator@D@2@@std@@@2@V?$tuple@AEBW4StringId@debugging_internal@lts_20250814@absl@@@2@@?$raw_hash_set@U?$FlatHashMapPolicy@V?$basic_string@DU?$char_traits@D@std@@V?$allocator@D@2@@std@@W4StringId@debugging_internal@lts_20250814@absl@@@container_internal@lts_20250814@absl@@UStringHash@234@UStringEq@234@V?$allocator@U?$pair@$$CBV?$basic_string@DU?$char_traits@D@std@@V?$allocator@D@2@@std@@W4StringId@debugging_internal@lts_20250814@absl@@@std@@@std@@@container_internal@lts_20250814@absl@@IEAAXViterator@0123@AEBUpiecewise_construct_t@std@@$$QEAV?$tuple@AEBV?$basic_string@DU?$char_traits@D@std@@V?$allocator@D@2@@std@@@6@$$QEAV?$tuple@AEBW4StringId@debugging_internal@lts_20250814@absl@@@6@@Z
	??$emplace_back@AEAV?$basic_string_view@DU?$char_traits@D@std@@@std@@AEBV12@AEA_K@?$vector@UViableSubstitution@strings_internal@lts_20250814@absl@@V?$allocator@UViableSubstitution@strings_internal@lts_20250814@absl@@@std@@@std@@QEAAAEAUViableSubstitution@strings_internal@lts_20250814@absl@@AEAV?$basic_string_view@DU?$char_traits@D@std@@@1@AEBV61@AEA_K@Z
	??$emplace_back@AEAW4StringId@debugging_internal@lts_20250814@absl@@_J@?$vector@U?$pair@W4StringId@debugging_internal@lts_20250814@absl@@_J@std@@V?$allocator@U?$pair@W4StringId@debugging_internal@lts_20250814@absl@@_J@std@@@2@@std@@QEAAAEAU?$pair@W4StringId@debugging_internal@lts_20250814@absl@@_J@1@AEAW4StringId@debugging_internal@lts_20250814@absl@@$$QEA_J@Z
	??$emplace_back@AEBNH@?$vector@U?$pair@N_K@std@@V?$allocator@U?$pair@N_K@std@@@2@@std@@QEAAAEAU?$pair@N_K@1@AEBN$$QEAH@Z
	??$emplace_back@AEBQEAUCordRep@cord_internal@lts_20250814@absl@@@?$InlinedVector@PEAUCordRep@cord_internal@lts_20250814@absl@@$01V?$allocator@PEAUCordRep@cord_internal@lts_20250814@absl@@@std@@@lts_20250814@absl@@QEAAAEAPEAUCordRep@cord_internal@12@AEBQEAU3412@@Z
	??$emplace_back@AEBQEAVLogSink@lts_20250814@absl@@@?$InlinedVector@PEAVLogSink@lts_20250814@absl@@$0BA@V?$allocator@PEAVLogSink@lts_20250814@absl@@@std@@@lts_20250814@absl@@QEAAAEAPEAVLogSink@12@AEBQEAV312@@Z
	??$emplace_back@AEBV?$basic_string_view@DU?$char_traits@D@std@@@std@@AEAH@?$vector@U?$pair@V?$basic_string_view@DU?$char_traits@D@std@@@std@@H@std@@V?$allocator@U?$pair@V?$basic_string_view@DU?$char_traits@D@std@@@std@@H@std@@@2@@std@@QEAAAEAU?$pair@V?$basic_string_view@DU?$char_traits@D@std@@@std@@H@1@AEBV?$basic_string_view@DU?$char_traits@D@std@@@1@AEAH@Z
	??$emplace_back@HVcrc32c_t@lts_20250814@absl@@@?$deque@UPrefixCrc@CrcCordState@crc_internal@lts_20250814@absl@@V?$allocator@UPrefixCrc@CrcCordState@crc_internal@lts_20250814@absl@@@std@@@std@@QEAAAEAUPrefixCrc@CrcCordState@crc_internal@lts_20250814@absl@@$$QEAH$$QEAVcrc32c_t@56@@Z
	??$emplace_back@UPayload@status_internal@lts_20250814@absl@@@?$InlinedVector@UPayload@status_internal@lts_20250814@absl@@$00V?$allocator@UPayload@status_internal@lts_20250814@absl@@@std@@@lts_20250814@absl@@QEAAAEAUPayload@status_internal@12@$$QEAU3412@@Z
	??$emplace_value@AEAPEAT?$map_slot_type@_K_K@container_internal@lts_20250814@absl@@@?$btree_node@U?$map_params@_K_KU?$less@_K@std@@V?$allocator@U?$pair@$$CB_K_K@std@@@2@$0BAA@$0A@@container_internal@lts_20250814@absl@@@container_internal@lts_20250814@absl@@QEAAXEPEAV?$allocator@U?$pair@$$CB_K_K@std@@@std@@AEAPEAT?$map_slot_type@_K_K@123@@Z
	??$emplace_value@PEAT?$map_slot_type@_K_K@container_internal@lts_20250814@absl@@@?$btree_node@U?$map_params@_K_KU?$less@_K@std@@V?$allocator@U?$pair@$$CB_K_K@std@@@2@$0BAA@$0A@@container_internal@lts_20250814@absl@@@container_internal@lts_20250814@absl@@QEAAXEPEAV?$allocator@U?$pair@$$CB_K_K@std@@@std@@$$QEAPEAT?$map_slot_type@_K_K@123@@Z
	??$end@I$07@std@@YAPEAIAEAY07I@Z
	??$end@V?$vector@NV?$allocator@N@std@@@std@@@std@@YA?AV?$_Vector_iterator@V?$_Vector_val@U?$_Simple_types@N@std@@@std@@@0@AEAV?$vector@NV?$allocator@N@std@@@0@@Z
	??$equal@PEBDV?$_String_const_iterator@V?$_String_val@U?$_Simple_types@D@std@@@std@@@std@@@std@@YA_NQEBD0V?$_String_const_iterator@V?$_String_val@U?$_Simple_types@D@std@@@std@@@0@@Z
	??$equal@PEBDV?$_String_const_iterator@V?$_String_val@U?$_Simple_types@D@std@@@std@@@std@@U?$equal_to@X@2@@std@@YA_NQEBD0V?$_String_const_iterator@V?$_String_val@U?$_Simple_types@D@std@@@std@@@0@U?$equal_to@X@0@@Z
	??$equal_to@V?$basic_string@DU?$char_traits@D@std@@V?$allocator@D@2@@std@@@?$raw_hash_set@U?$FlatHashMapPolicy@V?$basic_string@DU?$char_traits@D@std@@V?$allocator@D@2@@std@@W4StringId@debugging_internal@lts_20250814@absl@@@container_internal@lts_20250814@absl@@UStringHash@234@UStringEq@234@V?$allocator@U?$pair@$$CBV?$basic_string@DU?$char_traits@D@std@@V?$allocator@D@2@@std@@W4StringId@debugging_internal@lts_20250814@absl@@@std@@@std@@@container_internal@lts_20250814@absl@@AEBA_NAEBV?$basic_string@DU?$char_traits@D@std@@V?$allocator@D@2@@std@@PEAT?$map_slot_type@V?$basic_string@DU?$char_traits@D@std@@V?$allocator@D@2@@std@@W4StringId@debugging_internal@lts_20250814@absl@@@123@@Z
	??$equal_to@V?$basic_string_view@DU?$char_traits@D@std@@@std@@@?$raw_hash_set@U?$FlatHashMapPolicy@V?$basic_string@DU?$char_traits@D@std@@V?$allocator@D@2@@std@@W4StringId@debugging_internal@lts_20250814@absl@@@container_internal@lts_20250814@absl@@UStringHash@234@UStringEq@234@V?$allocator@U?$pair@$$CBV?$basic_string@DU?$char_traits@D@std@@V?$allocator@D@2@@std@@W4StringId@debugging_internal@lts_20250814@absl@@@std@@@std@@@container_internal@lts_20250814@absl@@AEBA_NAEBV?$basic_string_view@DU?$char_traits@D@std@@@std@@PEAT?$map_slot_type@V?$basic_string@DU?$char_traits@D@std@@V?$allocator@D@2@@std@@W4StringId@debugging_internal@lts_20250814@absl@@@123@@Z
	??$equal_to@_K@?$raw_hash_set@U?$FlatHashMapPolicy@_KW4LocationId@debugging_internal@lts_20250814@absl@@@container_internal@lts_20250814@absl@@U?$Hash@_K@hash_internal@34@U?$equal_to@_K@std@@V?$allocator@U?$pair@$$CB_KW4LocationId@debugging_internal@lts_20250814@absl@@@std@@@8@@container_internal@lts_20250814@absl@@AEBA_NAEB_KPEAT?$map_slot_type@_KW4LocationId@debugging_internal@lts_20250814@absl@@@123@@Z
	??$exchange@PEAPEBVCordzHandle@cord_internal@lts_20250814@absl@@$$T@std@@YAPEAPEBVCordzHandle@cord_internal@lts_20250814@absl@@AEAPEAPEBV1234@$$QEA$$T@Z
	??$exchange@PEAU?$_List_node@HPEAX@std@@$$T@std@@YAPEAU?$_List_node@HPEAX@0@AEAPEAU10@$$QEA$$T@Z
	??$exchange@PEAU?$_List_node@PEBUCordRep@cord_internal@lts_20250814@absl@@PEAX@std@@$$T@std@@YAPEAU?$_List_node@PEBUCordRep@cord_internal@lts_20250814@absl@@PEAX@0@AEAPEAU10@$$QEA$$T@Z
	??$exchange@PEAU?$_List_node@U?$pair@$$CBV?$basic_string@DU?$char_traits@D@std@@V?$allocator@D@2@@std@@PEBVImpl@time_zone@cctz@time_internal@lts_20250814@absl@@@std@@PEAX@std@@$$T@std@@YAPEAU?$_List_node@U?$pair@$$CBV?$basic_string@DU?$char_traits@D@std@@V?$allocator@D@2@@std@@PEBVImpl@time_zone@cctz@time_internal@lts_20250814@absl@@@std@@PEAX@0@AEAPEAU10@$$QEA$$T@Z
	??$exchange@PEAU?$pair@N_K@std@@$$T@std@@YAPEAU?$pair@N_K@0@AEAPEAU10@$$QEA$$T@Z
	??$exchange@PEAUViableSubstitution@strings_internal@lts_20250814@absl@@$$T@std@@YAPEAUViableSubstitution@strings_internal@lts_20250814@absl@@AEAPEAU1234@$$QEA$$T@Z
	??$exchange@PEAU_Container_proxy@std@@$$T@std@@YAPEAU_Container_proxy@0@AEAPEAU10@$$QEA$$T@Z
	??$exchange@PEAU_iobuf@@$$T@std@@YAPEAU_iobuf@@AEAPEAU1@$$QEA$$T@Z
	??$exchange@PEAV?$InlinedVector@UPayload@status_internal@lts_20250814@absl@@$00V?$allocator@UPayload@status_internal@lts_20250814@absl@@@std@@@lts_20250814@absl@@$$T@std@@YAPEAV?$InlinedVector@UPayload@status_internal@lts_20250814@absl@@$00V?$allocator@UPayload@status_internal@lts_20250814@absl@@@std@@@lts_20250814@absl@@AEAPEAV123@$$QEA$$T@Z
	??$exchange@PEAV?$InlinedVector@UPayload@status_internal@lts_20250814@absl@@$00V?$allocator@UPayload@status_internal@lts_20250814@absl@@@std@@@lts_20250814@absl@@AEAPEAV123@@std@@YAPEAV?$InlinedVector@UPayload@status_internal@lts_20250814@absl@@$00V?$allocator@UPayload@status_internal@lts_20250814@absl@@@std@@@lts_20250814@absl@@AEAPEAV123@0@Z
	??$exchange@PEAVFallbackCrcMemcpyEngine@crc_internal@lts_20250814@absl@@$$T@std@@YAPEAVFallbackCrcMemcpyEngine@crc_internal@lts_20250814@absl@@AEAPEAV1234@$$QEA$$T@Z
	??$exchange@PEAVTimeZoneInfo@cctz@time_internal@lts_20250814@absl@@$$T@std@@YAPEAVTimeZoneInfo@cctz@time_internal@lts_20250814@absl@@AEAPEAV12345@$$QEA$$T@Z
	??$exchange@PEAVTimeZoneInfo@cctz@time_internal@lts_20250814@absl@@AEAPEAV12345@@std@@YAPEAVTimeZoneInfo@cctz@time_internal@lts_20250814@absl@@AEAPEAV12345@0@Z
	??$exchange@PEAVTimeZoneLibC@cctz@time_internal@lts_20250814@absl@@$$T@std@@YAPEAVTimeZoneLibC@cctz@time_internal@lts_20250814@absl@@AEAPEAV12345@$$QEA$$T@Z
	??$exchange@PEAVZoneInfoSource@cctz@time_internal@lts_20250814@absl@@$$T@std@@YAPEAVZoneInfoSource@cctz@time_internal@lts_20250814@absl@@AEAPEAV12345@$$QEA$$T@Z
	??$exchange@PEAV_Facet_base@std@@$$T@std@@YAPEAV_Facet_base@0@AEAPEAV10@$$QEA$$T@Z
	??$exchange@PEAX$$T@std@@YAPEAXAEAPEAX$$QEA$$T@Z
	??$exchange@PEBVImpl@time_zone@cctz@time_internal@lts_20250814@absl@@$$T@std@@YAPEBVImpl@time_zone@cctz@time_internal@lts_20250814@absl@@AEAPEBV123456@$$QEA$$T@Z
	??$exchange@_JH@std@@YA_JAEA_J$$QEAH@Z
	??$fill@PEAV?$_List_unchecked_const_iterator@V?$_List_val@U?$_List_simple_types@H@std@@@std@@U_Iterator_base0@2@@std@@V12@@std@@YAXQEAV?$_List_unchecked_const_iterator@V?$_List_val@U?$_List_simple_types@H@std@@@std@@U_Iterator_base0@2@@0@0AEBV10@@Z
	??$fill@PEAV?$_List_unchecked_const_iterator@V?$_List_val@U?$_List_simple_types@PEBUCordRep@cord_internal@lts_20250814@absl@@@std@@@std@@U_Iterator_base0@2@@std@@V12@@std@@YAXQEAV?$_List_unchecked_const_iterator@V?$_List_val@U?$_List_simple_types@PEBUCordRep@cord_internal@lts_20250814@absl@@@std@@@std@@U_Iterator_base0@2@@0@0AEBV10@@Z
	??$fill@PEAV?$_List_unchecked_iterator@V?$_List_val@U?$_List_simple_types@U?$pair@$$CBV?$basic_string@DU?$char_traits@D@std@@V?$allocator@D@2@@std@@PEBVImpl@time_zone@cctz@time_internal@lts_20250814@absl@@@std@@@std@@@std@@@std@@V12@@std@@YAXQEAV?$_List_unchecked_iterator@V?$_List_val@U?$_List_simple_types@U?$pair@$$CBV?$basic_string@DU?$char_traits@D@std@@V?$allocator@D@2@@std@@PEBVImpl@time_zone@cctz@time_internal@lts_20250814@absl@@@std@@@std@@@std@@@0@0AEBV10@@Z
	??$fill@PEA_K_K@std@@YAXQEA_K0AEB_K@Z
	??$fill_n@PEAD_JD@std@@YAPEADPEAD_JAEBD@Z
	??$fill_n@PEAH_KH@std@@YAPEAHPEAH_KAEBH@Z
	??$fill_n@PEAIHI@std@@YAPEAIPEAIHAEBI@Z
	??$find@PEBDD@std@@YAPEBDPEBDQEBDAEBD@Z
	??$find@PEB_W_W@std@@YAPEB_WPEB_WQEB_WAEB_W@Z
	??$find@V?$_Vector_iterator@V?$_Vector_val@U?$_Simple_types@PEAVLogSink@lts_20250814@absl@@@std@@@std@@@std@@PEAVLogSink@lts_20250814@absl@@@std@@YA?AV?$_Vector_iterator@V?$_Vector_val@U?$_Simple_types@PEAVLogSink@lts_20250814@absl@@@std@@@std@@@0@V10@V10@AEBQEAVLogSink@lts_20250814@absl@@@Z
	??$find_if_not@V?$_String_view_iterator@U?$char_traits@D@std@@@std@@P6A_NE@Z@std@@YA?AV?$_String_view_iterator@U?$char_traits@D@std@@@0@V10@V10@P6A_NE@Z@Z
	??$find_if_not@V?$reverse_iterator@V?$_String_view_iterator@U?$char_traits@D@std@@@std@@@std@@P6A_NE@Z@std@@YA?AV?$reverse_iterator@V?$_String_view_iterator@U?$char_traits@D@std@@@std@@@0@V10@V10@P6A_NE@Z@Z
	??$find_or_prepare_insert@V?$basic_string@DU?$char_traits@D@std@@V?$allocator@D@2@@std@@@?$raw_hash_set@U?$FlatHashMapPolicy@V?$basic_string@DU?$char_traits@D@std@@V?$allocator@D@2@@std@@W4StringId@debugging_internal@lts_20250814@absl@@@container_internal@lts_20250814@absl@@UStringHash@234@UStringEq@234@V?$allocator@U?$pair@$$CBV?$basic_string@DU?$char_traits@D@std@@V?$allocator@D@2@@std@@W4StringId@debugging_internal@lts_20250814@absl@@@std@@@std@@@container_internal@lts_20250814@absl@@IEAA?AU?$pair@Viterator@?$raw_hash_set@U?$FlatHashMapPolicy@V?$basic_string@DU?$char_traits@D@std@@V?$allocator@D@2@@std@@W4StringId@debugging_internal@lts_20250814@absl@@@container_internal@lts_20250814@absl@@UStringHash@234@UStringEq@234@V?$allocator@U?$pair@$$CBV?$basic_string@DU?$char_traits@D@std@@V?$allocator@D@2@@std@@W4StringId@debugging_internal@lts_20250814@absl@@@std@@@std@@@container_internal@lts_20250814@absl@@_N@std@@AEBV?$basic_string@DU?$char_traits@D@std@@V?$allocator@D@2@@5@@Z
	??$find_or_prepare_insert@V?$basic_string_view@DU?$char_traits@D@std@@@std@@@?$raw_hash_set@U?$FlatHashMapPolicy@V?$basic_string@DU?$char_traits@D@std@@V?$allocator@D@2@@std@@W4StringId@debugging_internal@lts_20250814@absl@@@container_internal@lts_20250814@absl@@UStringHash@234@UStringEq@234@V?$allocator@U?$pair@$$CBV?$basic_string@DU?$char_traits@D@std@@V?$allocator@D@2@@std@@W4StringId@debugging_internal@lts_20250814@absl@@@std@@@std@@@container_internal@lts_20250814@absl@@IEAA?AU?$pair@Viterator@?$raw_hash_set@U?$FlatHashMapPolicy@V?$basic_string@DU?$char_traits@D@std@@V?$allocator@D@2@@std@@W4StringId@debugging_internal@lts_20250814@absl@@@container_internal@lts_20250814@absl@@UStringHash@234@UStringEq@234@V?$allocator@U?$pair@$$CBV?$basic_string@DU?$char_traits@D@std@@V?$allocator@D@2@@std@@W4StringId@debugging_internal@lts_20250814@absl@@@std@@@std@@@container_internal@lts_20250814@absl@@_N@std@@AEBV?$basic_string_view@DU?$char_traits@D@std@@@5@@Z
	??$find_or_prepare_insert@_K@?$raw_hash_set@U?$FlatHashMapPolicy@_KW4LocationId@debugging_internal@lts_20250814@absl@@@container_internal@lts_20250814@absl@@U?$Hash@_K@hash_internal@34@U?$equal_to@_K@std@@V?$allocator@U?$pair@$$CB_KW4LocationId@debugging_internal@lts_20250814@absl@@@std@@@8@@container_internal@lts_20250814@absl@@IEAA?AU?$pair@Viterator@?$raw_hash_set@U?$FlatHashMapPolicy@_KW4LocationId@debugging_internal@lts_20250814@absl@@@container_internal@lts_20250814@absl@@U?$Hash@_K@hash_internal@34@U?$equal_to@_K@std@@V?$allocator@U?$pair@$$CB_KW4LocationId@debugging_internal@lts_20250814@absl@@@std@@@8@@container_internal@lts_20250814@absl@@_N@std@@AEB_K@Z
	??$find_or_prepare_insert_large@V?$basic_string@DU?$char_traits@D@std@@V?$allocator@D@2@@std@@@?$raw_hash_set@U?$FlatHashMapPolicy@V?$basic_string@DU?$char_traits@D@std@@V?$allocator@D@2@@std@@W4StringId@debugging_internal@lts_20250814@absl@@@container_internal@lts_20250814@absl@@UStringHash@234@UStringEq@234@V?$allocator@U?$pair@$$CBV?$basic_string@DU?$char_traits@D@std@@V?$allocator@D@2@@std@@W4StringId@debugging_internal@lts_20250814@absl@@@std@@@std@@@container_internal@lts_20250814@absl@@AEAA?AU?$pair@Viterator@?$raw_hash_set@U?$FlatHashMapPolicy@V?$basic_string@DU?$char_traits@D@std@@V?$allocator@D@2@@std@@W4StringId@debugging_internal@lts_20250814@absl@@@container_internal@lts_20250814@absl@@UStringHash@234@UStringEq@234@V?$allocator@U?$pair@$$CBV?$basic_string@DU?$char_traits@D@std@@V?$allocator@D@2@@std@@W4StringId@debugging_internal@lts_20250814@absl@@@std@@@std@@@container_internal@lts_20250814@absl@@_N@std@@AEBV?$basic_string@DU?$char_traits@D@std@@V?$allocator@D@2@@5@@Z
	??$find_or_prepare_insert_large@V?$basic_string_view@DU?$char_traits@D@std@@@std@@@?$raw_hash_set@U?$FlatHashMapPolicy@V?$basic_string@DU?$char_traits@D@std@@V?$allocator@D@2@@std@@W4StringId@debugging_internal@lts_20250814@absl@@@container_internal@lts_20250814@absl@@UStringHash@234@UStringEq@234@V?$allocator@U?$pair@$$CBV?$basic_string@DU?$char_traits@D@std@@V?$allocator@D@2@@std@@W4StringId@debugging_internal@lts_20250814@absl@@@std@@@std@@@container_internal@lts_20250814@absl@@AEAA?AU?$pair@Viterator@?$raw_hash_set@U?$FlatHashMapPolicy@V?$basic_string@DU?$char_traits@D@std@@V?$allocator@D@2@@std@@W4StringId@debugging_internal@lts_20250814@absl@@@container_internal@lts_20250814@absl@@UStringHash@234@UStringEq@234@V?$allocator@U?$pair@$$CBV?$basic_string@DU?$char_traits@D@std@@V?$allocator@D@2@@std@@W4StringId@debugging_internal@lts_20250814@absl@@@std@@@std@@@container_internal@lts_20250814@absl@@_N@std@@AEBV?$basic_string_view@DU?$char_traits@D@std@@@5@@Z
	??$find_or_prepare_insert_large@_K@?$raw_hash_set@U?$FlatHashMapPolicy@_KW4LocationId@debugging_internal@lts_20250814@absl@@@container_internal@lts_20250814@absl@@U?$Hash@_K@hash_internal@34@U?$equal_to@_K@std@@V?$allocator@U?$pair@$$CB_KW4LocationId@debugging_internal@lts_20250814@absl@@@std@@@8@@container_internal@lts_20250814@absl@@AEAA?AU?$pair@Viterator@?$raw_hash_set@U?$FlatHashMapPolicy@_KW4LocationId@debugging_internal@lts_20250814@absl@@@container_internal@lts_20250814@absl@@U?$Hash@_K@hash_internal@34@U?$equal_to@_K@std@@V?$allocator@U?$pair@$$CB_KW4LocationId@debugging_internal@lts_20250814@absl@@@std@@@8@@container_internal@lts_20250814@absl@@_N@std@@AEB_K@Z
	??$find_or_prepare_insert_small@V?$basic_string@DU?$char_traits@D@std@@V?$allocator@D@2@@std@@@?$raw_hash_set@U?$FlatHashMapPolicy@V?$basic_string@DU?$char_traits@D@std@@V?$allocator@D@2@@std@@W4StringId@debugging_internal@lts_20250814@absl@@@container_internal@lts_20250814@absl@@UStringHash@234@UStringEq@234@V?$allocator@U?$pair@$$CBV?$basic_string@DU?$char_traits@D@std@@V?$allocator@D@2@@std@@W4StringId@debugging_internal@lts_20250814@absl@@@std@@@std@@@container_internal@lts_20250814@absl@@AEAA?AU?$pair@Viterator@?$raw_hash_set@U?$FlatHashMapPolicy@V?$basic_string@DU?$char_traits@D@std@@V?$allocator@D@2@@std@@W4StringId@debugging_internal@lts_20250814@absl@@@container_internal@lts_20250814@absl@@UStringHash@234@UStringEq@234@V?$allocator@U?$pair@$$CBV?$basic_string@DU?$char_traits@D@std@@V?$allocator@D@2@@std@@W4StringId@debugging_internal@lts_20250814@absl@@@std@@@std@@@container_internal@lts_20250814@absl@@_N@std@@AEBV?$basic_string@DU?$char_traits@D@std@@V?$allocator@D@2@@5@@Z
	??$find_or_prepare_insert_small@V?$basic_string_view@DU?$char_traits@D@std@@@std@@@?$raw_hash_set@U?$FlatHashMapPolicy@V?$basic_string@DU?$char_traits@D@std@@V?$allocator@D@2@@std@@W4StringId@debugging_internal@lts_20250814@absl@@@container_internal@lts_20250814@absl@@UStringHash@234@UStringEq@234@V?$allocator@U?$pair@$$CBV?$basic_string@DU?$char_traits@D@std@@V?$allocator@D@2@@std@@W4StringId@debugging_internal@lts_20250814@absl@@@std@@@std@@@container_internal@lts_20250814@absl@@AEAA?AU?$pair@Viterator@?$raw_hash_set@U?$FlatHashMapPolicy@V?$basic_string@DU?$char_traits@D@std@@V?$allocator@D@2@@std@@W4StringId@debugging_internal@lts_20250814@absl@@@container_internal@lts_20250814@absl@@UStringHash@234@UStringEq@234@V?$allocator@U?$pair@$$CBV?$basic_string@DU?$char_traits@D@std@@V?$allocator@D@2@@std@@W4StringId@debugging_internal@lts_20250814@absl@@@std@@@std@@@container_internal@lts_20250814@absl@@_N@std@@AEBV?$basic_string_view@DU?$char_traits@D@std@@@5@@Z
	??$find_or_prepare_insert_small@_K@?$raw_hash_set@U?$FlatHashMapPolicy@_KW4LocationId@debugging_internal@lts_20250814@absl@@@container_internal@lts_20250814@absl@@U?$Hash@_K@hash_internal@34@U?$equal_to@_K@std@@V?$allocator@U?$pair@$$CB_KW4LocationId@debugging_internal@lts_20250814@absl@@@std@@@8@@container_internal@lts_20250814@absl@@AEAA?AU?$pair@Viterator@?$raw_hash_set@U?$FlatHashMapPolicy@_KW4LocationId@debugging_internal@lts_20250814@absl@@@container_internal@lts_20250814@absl@@U?$Hash@_K@hash_internal@34@U?$equal_to@_K@std@@V?$allocator@U?$pair@$$CB_KW4LocationId@debugging_internal@lts_20250814@absl@@@std@@@8@@container_internal@lts_20250814@absl@@_N@std@@AEB_K@Z
	??$find_or_prepare_insert_soo@_K@?$raw_hash_set@U?$FlatHashMapPolicy@_KW4LocationId@debugging_internal@lts_20250814@absl@@@container_internal@lts_20250814@absl@@U?$Hash@_K@hash_internal@34@U?$equal_to@_K@std@@V?$allocator@U?$pair@$$CB_KW4LocationId@debugging_internal@lts_20250814@absl@@@std@@@8@@container_internal@lts_20250814@absl@@AEAA?AU?$pair@Viterator@?$raw_hash_set@U?$FlatHashMapPolicy@_KW4LocationId@debugging_internal@lts_20250814@absl@@@container_internal@lts_20250814@absl@@U?$Hash@_K@hash_internal@34@U?$equal_to@_K@std@@V?$allocator@U?$pair@$$CB_KW4LocationId@debugging_internal@lts_20250814@absl@@@std@@@8@@container_internal@lts_20250814@absl@@_N@std@@AEB_K@Z
	??$forward@$$T@std@@YA$$QEA$$TAEA$$T@Z
	??$forward@A6AXXZ@std@@YAA6AXXZA6AXXZ@Z
	??$forward@AEAG@std@@YAAEAGAEAG@Z
	??$forward@AEAH@std@@YAAEAHAEAH@Z
	??$forward@AEAPEAD@std@@YAAEAPEADAEAPEAD@Z
	??$forward@AEAPEAH@std@@YAAEAPEAHAEAPEAH@Z
	??$forward@AEAPEAI@std@@YAAEAPEAIAEAPEAI@Z
	??$forward@AEAPEAT?$map_slot_type@_K_K@container_internal@lts_20250814@absl@@@std@@YAAEAPEAT?$map_slot_type@_K_K@container_internal@lts_20250814@absl@@AEAPEAT1234@@Z
	??$forward@AEAPEAU?$_List_node@HPEAX@std@@@std@@YAAEAPEAU?$_List_node@HPEAX@0@AEAPEAU10@@Z
	??$forward@AEAPEAU?$_List_node@PEBUCordRep@cord_internal@lts_20250814@absl@@PEAX@std@@@std@@YAAEAPEAU?$_List_node@PEBUCordRep@cord_internal@lts_20250814@absl@@PEAX@0@AEAPEAU10@@Z
	??$forward@AEAPEAU?$_List_node@U?$pair@$$CBV?$basic_string@DU?$char_traits@D@std@@V?$allocator@D@2@@std@@PEBVImpl@time_zone@cctz@time_internal@lts_20250814@absl@@@std@@PEAX@std@@@std@@YAAEAPEAU?$_List_node@U?$pair@$$CBV?$basic_string@DU?$char_traits@D@std@@V?$allocator@D@2@@std@@PEBVImpl@time_zone@cctz@time_internal@lts_20250814@absl@@@std@@PEAX@0@AEAPEAU10@@Z
	??$forward@AEAPEAULogMessageData@LogMessage@log_internal@lts_20250814@absl@@@std@@YAAEAPEAULogMessageData@LogMessage@log_internal@lts_20250814@absl@@AEAPEAU12345@@Z
	??$forward@AEAPEAUThreadIdentity@base_internal@lts_20250814@absl@@@std@@YAAEAPEAUThreadIdentity@base_internal@lts_20250814@absl@@AEAPEAU1234@@Z
	??$forward@AEAPEAU_iobuf@@@std@@YAAEAPEAU_iobuf@@AEAPEAU1@@Z
	??$forward@AEAPEAV?$InlinedVector@UPayload@status_internal@lts_20250814@absl@@$00V?$allocator@UPayload@status_internal@lts_20250814@absl@@@std@@@lts_20250814@absl@@@std@@YAAEAPEAV?$InlinedVector@UPayload@status_internal@lts_20250814@absl@@$00V?$allocator@UPayload@status_internal@lts_20250814@absl@@@std@@@lts_20250814@absl@@AEAPEAV123@@Z
	??$forward@AEAPEAVFallbackCrcMemcpyEngine@crc_internal@lts_20250814@absl@@@std@@YAAEAPEAVFallbackCrcMemcpyEngine@crc_internal@lts_20250814@absl@@AEAPEAV1234@@Z
	??$forward@AEAPEAVTimeZoneInfo@cctz@time_internal@lts_20250814@absl@@@std@@YAAEAPEAVTimeZoneInfo@cctz@time_internal@lts_20250814@absl@@AEAPEAV12345@@Z
	??$forward@AEAPEAVTimeZoneLibC@cctz@time_internal@lts_20250814@absl@@@std@@YAAEAPEAVTimeZoneLibC@cctz@time_internal@lts_20250814@absl@@AEAPEAV12345@@Z
	??$forward@AEAPEAVZoneInfoSource@cctz@time_internal@lts_20250814@absl@@@std@@YAAEAPEAVZoneInfoSource@cctz@time_internal@lts_20250814@absl@@AEAPEAV12345@@Z
	??$forward@AEAPEAV_Facet_base@std@@@std@@YAAEAPEAV_Facet_base@0@AEAPEAV10@@Z
	??$forward@AEAPEAVseed_seq@std@@@std@@YAAEAPEAVseed_seq@0@AEAPEAV10@@Z
	??$forward@AEAPEAX@std@@YAAEAPEAXAEAPEAX@Z
	??$forward@AEAPEBD@std@@YAAEAPEBDAEAPEBD@Z
	??$forward@AEAPEBUTransition@cctz@time_internal@lts_20250814@absl@@@std@@YAAEAPEBUTransition@cctz@time_internal@lts_20250814@absl@@AEAPEBU12345@@Z
	??$forward@AEAPEBVImpl@time_zone@cctz@time_internal@lts_20250814@absl@@@std@@YAAEAPEBVImpl@time_zone@cctz@time_internal@lts_20250814@absl@@AEAPEBV123456@@Z
	??$forward@AEAU?$pair@$$CBV?$basic_string@DU?$char_traits@D@std@@V?$allocator@D@2@@std@@W4StringId@debugging_internal@lts_20250814@absl@@@std@@@std@@YAAEAU?$pair@$$CBV?$basic_string@DU?$char_traits@D@std@@V?$allocator@D@2@@std@@W4StringId@debugging_internal@lts_20250814@absl@@@0@AEAU10@@Z
	??$forward@AEAU?$pair@$$CB_KW4LocationId@debugging_internal@lts_20250814@absl@@@std@@@std@@YAAEAU?$pair@$$CB_KW4LocationId@debugging_internal@lts_20250814@absl@@@0@AEAU10@@Z
	??$forward@AEAV?$InlinedVector@UPayload@status_internal@lts_20250814@absl@@$00V?$allocator@UPayload@status_internal@lts_20250814@absl@@@std@@@lts_20250814@absl@@@std@@YAAEAV?$InlinedVector@UPayload@status_internal@lts_20250814@absl@@$00V?$allocator@UPayload@status_internal@lts_20250814@absl@@@std@@@lts_20250814@absl@@AEAV123@@Z
	??$forward@AEAV?$allocator@PEAUCordRep@cord_internal@lts_20250814@absl@@@std@@@std@@YAAEAV?$allocator@PEAUCordRep@cord_internal@lts_20250814@absl@@@0@AEAV10@@Z
	??$forward@AEAV?$allocator@PEAVLogSink@lts_20250814@absl@@@std@@@std@@YAAEAV?$allocator@PEAVLogSink@lts_20250814@absl@@@0@AEAV10@@Z
	??$forward@AEAV?$allocator@UPayload@status_internal@lts_20250814@absl@@@std@@@std@@YAAEAV?$allocator@UPayload@status_internal@lts_20250814@absl@@@0@AEAV10@@Z
	??$forward@AEAV?$basic_string@DU?$char_traits@D@std@@V?$allocator@D@2@@std@@@std@@YAAEAV?$basic_string@DU?$char_traits@D@std@@V?$allocator@D@2@@0@AEAV10@@Z
	??$forward@AEAV?$basic_string_view@DU?$char_traits@D@std@@@std@@@std@@YAAEAV?$basic_string_view@DU?$char_traits@D@std@@@0@AEAV10@@Z
	??$forward@AEAV?$btree_iterator@V?$btree_node@U?$map_params@_K_KU?$less@_K@std@@V?$allocator@U?$pair@$$CB_K_K@std@@@2@$0BAA@$0A@@container_internal@lts_20250814@absl@@@container_internal@lts_20250814@absl@@AEAU?$pair@$$CB_K_K@std@@PEAU56@@container_internal@lts_20250814@absl@@@std@@YAAEAV?$btree_iterator@V?$btree_node@U?$map_params@_K_KU?$less@_K@std@@V?$allocator@U?$pair@$$CB_K_K@std@@@2@$0BAA@$0A@@container_internal@lts_20250814@absl@@@container_internal@lts_20250814@absl@@AEAU?$pair@$$CB_K_K@std@@PEAU56@@container_internal@lts_20250814@absl@@AEAV1234@@Z
	??$forward@AEAV?$reverse_iterator@PEBD@std@@@std@@YAAEAV?$reverse_iterator@PEBD@0@AEAV10@@Z
	??$forward@AEAVCord@lts_20250814@absl@@@std@@YAAEAVCord@lts_20250814@absl@@AEAV123@@Z
	??$forward@AEAW4LogSeverity@lts_20250814@absl@@@std@@YAAEAW4LogSeverity@lts_20250814@absl@@AEAW4123@@Z
	??$forward@AEAW4StringId@debugging_internal@lts_20250814@absl@@@std@@YAAEAW4StringId@debugging_internal@lts_20250814@absl@@AEAW41234@@Z
	??$forward@AEAY00$$CBD@std@@YAAEAY00$$CBDAEAY00$$CBD@Z
	??$forward@AEAY04$$CBD@std@@YAAEAY04$$CBDAEAY04$$CBD@Z
	??$forward@AEAY06$$CBD@std@@YAAEAY06$$CBDAEAY06$$CBD@Z
	??$forward@AEAY0BB@$$CBD@std@@YAAEAY0BB@$$CBDAEAY0BB@$$CBD@Z
	??$forward@AEAY0BM@$$CBD@std@@YAAEAY0BM@$$CBDAEAY0BM@$$CBD@Z
	??$forward@AEAY0CC@$$CBD@std@@YAAEAY0CC@$$CBDAEAY0CC@$$CBD@Z
	??$forward@AEAY0CG@$$CBD@std@@YAAEAY0CG@$$CBDAEAY0CG@$$CBD@Z
	??$forward@AEAY0LLI@D@std@@YAAEAY0LLI@DAEAY0LLI@D@Z
	??$forward@AEAY0N@$$CBD@std@@YAAEAY0N@$$CBDAEAY0N@$$CBD@Z
	??$forward@AEAY0O@$$CBD@std@@YAAEAY0O@$$CBDAEAY0O@$$CBD@Z
	??$forward@AEA_J@std@@YAAEA_JAEA_J@Z
	??$forward@AEA_K@std@@YAAEA_KAEA_K@Z
	??$forward@AEA_N@std@@YAAEA_NAEA_N@Z
	??$forward@AEBH@std@@YAAEBHAEBH@Z
	??$forward@AEBI@std@@YAAEBIAEBI@Z
	??$forward@AEBN@std@@YAAEBNAEBN@Z
	??$forward@AEBQ6AXPEAX@Z@std@@YAAEBQ6AXPEAX@ZAEBQ6AX0@Z@Z
	??$forward@AEBQEAD@std@@YAAEBQEADAEBQEAD@Z
	??$forward@AEBQEAU?$_List_node@HPEAX@std@@@std@@YAAEBQEAU?$_List_node@HPEAX@0@AEBQEAU10@@Z
	??$forward@AEBQEAU?$_List_node@PEBUCordRep@cord_internal@lts_20250814@absl@@PEAX@std@@@std@@YAAEBQEAU?$_List_node@PEBUCordRep@cord_internal@lts_20250814@absl@@PEAX@0@AEBQEAU10@@Z
	??$forward@AEBQEAU?$_List_node@U?$pair@$$CBV?$basic_string@DU?$char_traits@D@std@@V?$allocator@D@2@@std@@PEBVImpl@time_zone@cctz@time_internal@lts_20250814@absl@@@std@@PEAX@std@@@std@@YAAEBQEAU?$_List_node@U?$pair@$$CBV?$basic_string@DU?$char_traits@D@std@@V?$allocator@D@2@@std@@PEBVImpl@time_zone@cctz@time_internal@lts_20250814@absl@@@std@@PEAX@0@AEBQEAU10@@Z
	??$forward@AEBQEAUCordRep@cord_internal@lts_20250814@absl@@@std@@YAAEBQEAUCordRep@cord_internal@lts_20250814@absl@@AEBQEAU1234@@Z
	??$forward@AEBQEAVCordzHandle@cord_internal@lts_20250814@absl@@@std@@YAAEBQEAVCordzHandle@cord_internal@lts_20250814@absl@@AEBQEAV1234@@Z
	??$forward@AEBQEAVLogSink@lts_20250814@absl@@@std@@YAAEBQEAVLogSink@lts_20250814@absl@@AEBQEAV123@@Z
	??$forward@AEBQEAX@std@@YAAEBQEAXAEBQEAX@Z
	??$forward@AEBQEBD@std@@YAAEBQEBDAEBQEBD@Z
	??$forward@AEBQEBUCordRep@cord_internal@lts_20250814@absl@@@std@@YAAEBQEBUCordRep@cord_internal@lts_20250814@absl@@AEBQEBU1234@@Z
	??$forward@AEBQEBVCordzHandle@cord_internal@lts_20250814@absl@@@std@@YAAEBQEBVCordzHandle@cord_internal@lts_20250814@absl@@AEBQEBV1234@@Z
	??$forward@AEBQEBVImpl@time_zone@cctz@time_internal@lts_20250814@absl@@@std@@YAAEBQEBVImpl@time_zone@cctz@time_internal@lts_20250814@absl@@AEBQEBV123456@@Z
	??$forward@AEBU?$pair@V?$basic_string@DU?$char_traits@D@std@@V?$allocator@D@2@@std@@W4StringId@debugging_internal@lts_20250814@absl@@@std@@@std@@YAAEBU?$pair@V?$basic_string@DU?$char_traits@D@std@@V?$allocator@D@2@@std@@W4StringId@debugging_internal@lts_20250814@absl@@@0@AEBU10@@Z
	??$forward@AEBUHashtablezInfo@container_internal@lts_20250814@absl@@@std@@YAAEBUHashtablezInfo@container_internal@lts_20250814@absl@@AEBU1234@@Z
	??$forward@AEBUPayload@status_internal@lts_20250814@absl@@@std@@YAAEBUPayload@status_internal@lts_20250814@absl@@AEBU1234@@Z
	??$forward@AEBUPrefixCrc@CrcCordState@crc_internal@lts_20250814@absl@@@std@@YAAEBUPrefixCrc@CrcCordState@crc_internal@lts_20250814@absl@@AEBU12345@@Z
	??$forward@AEBUStringEq@container_internal@lts_20250814@absl@@@std@@YAAEBUStringEq@container_internal@lts_20250814@absl@@AEBU1234@@Z
	??$forward@AEBUStringHash@container_internal@lts_20250814@absl@@@std@@YAAEBUStringHash@container_internal@lts_20250814@absl@@AEBU1234@@Z
	??$forward@AEBUTransition@cctz@time_internal@lts_20250814@absl@@@std@@YAAEBUTransition@cctz@time_internal@lts_20250814@absl@@AEBU12345@@Z
	??$forward@AEBUchecked_compare@?$key_compare_adapter@U?$less@_K@std@@_K@container_internal@lts_20250814@absl@@@std@@YAAEBUchecked_compare@?$key_compare_adapter@U?$less@_K@std@@_K@container_internal@lts_20250814@absl@@AEBU12345@@Z
	??$forward@AEBUpiecewise_construct_t@std@@@std@@YAAEBUpiecewise_construct_t@0@AEBU10@@Z
	??$forward@AEBV?$_List_unchecked_const_iterator@V?$_List_val@U?$_List_simple_types@H@std@@@std@@U_Iterator_base0@2@@std@@@std@@YAAEBV?$_List_unchecked_const_iterator@V?$_List_val@U?$_List_simple_types@H@std@@@std@@U_Iterator_base0@2@@0@AEBV10@@Z
	??$forward@AEBV?$_List_unchecked_const_iterator@V?$_List_val@U?$_List_simple_types@PEBUCordRep@cord_internal@lts_20250814@absl@@@std@@@std@@U_Iterator_base0@2@@std@@@std@@YAAEBV?$_List_unchecked_const_iterator@V?$_List_val@U?$_List_simple_types@PEBUCordRep@cord_internal@lts_20250814@absl@@@std@@@std@@U_Iterator_base0@2@@0@AEBV10@@Z
	??$forward@AEBV?$_List_unchecked_iterator@V?$_List_val@U?$_List_simple_types@U?$pair@$$CBV?$basic_string@DU?$char_traits@D@std@@V?$allocator@D@2@@std@@PEBVImpl@time_zone@cctz@time_internal@lts_20250814@absl@@@std@@@std@@@std@@@std@@@std@@YAAEBV?$_List_unchecked_iterator@V?$_List_val@U?$_List_simple_types@U?$pair@$$CBV?$basic_string@DU?$char_traits@D@std@@V?$allocator@D@2@@std@@PEBVImpl@time_zone@cctz@time_internal@lts_20250814@absl@@@std@@@std@@@std@@@0@AEBV10@@Z
	??$forward@AEBV?$allocator@D@std@@@std@@YAAEBV?$allocator@D@0@AEBV10@@Z
	??$forward@AEBV?$allocator@H@std@@@std@@YAAEBV?$allocator@H@0@AEBV10@@Z
	??$forward@AEBV?$allocator@PEBUCordRep@cord_internal@lts_20250814@absl@@@std@@@std@@YAAEBV?$allocator@PEBUCordRep@cord_internal@lts_20250814@absl@@@0@AEBV10@@Z
	??$forward@AEBV?$allocator@U?$pair@$$CBV?$basic_string@DU?$char_traits@D@std@@V?$allocator@D@2@@std@@PEBVImpl@time_zone@cctz@time_internal@lts_20250814@absl@@@std@@@std@@@std@@YAAEBV?$allocator@U?$pair@$$CBV?$basic_string@DU?$char_traits@D@std@@V?$allocator@D@2@@std@@PEBVImpl@time_zone@cctz@time_internal@lts_20250814@absl@@@std@@@0@AEBV10@@Z
	??$forward@AEBV?$allocator@U?$pair@$$CBV?$basic_string@DU?$char_traits@D@std@@V?$allocator@D@2@@std@@W4StringId@debugging_internal@lts_20250814@absl@@@std@@@std@@@std@@YAAEBV?$allocator@U?$pair@$$CBV?$basic_string@DU?$char_traits@D@std@@V?$allocator@D@2@@std@@W4StringId@debugging_internal@lts_20250814@absl@@@std@@@0@AEBV10@@Z
	??$forward@AEBV?$allocator@U?$pair@$$CB_K_K@std@@@std@@@std@@YAAEBV?$allocator@U?$pair@$$CB_K_K@std@@@0@AEBV10@@Z
	??$forward@AEBV?$allocator@UPayload@status_internal@lts_20250814@absl@@@std@@@std@@YAAEBV?$allocator@UPayload@status_internal@lts_20250814@absl@@@0@AEBV10@@Z
	??$forward@AEBV?$allocator@V?$basic_string_view@DU?$char_traits@D@std@@@std@@@std@@@std@@YAAEBV?$allocator@V?$basic_string_view@DU?$char_traits@D@std@@@std@@@0@AEBV10@@Z
	??$forward@AEBV?$allocator@VFormatArgImpl@str_format_internal@lts_20250814@absl@@@std@@@std@@YAAEBV?$allocator@VFormatArgImpl@str_format_internal@lts_20250814@absl@@@0@AEBV10@@Z
	??$forward@AEBV?$basic_string@DU?$char_traits@D@std@@V?$allocator@D@2@@std@@@std@@YAAEBV?$basic_string@DU?$char_traits@D@std@@V?$allocator@D@2@@0@AEBV10@@Z
	??$forward@AEBV?$basic_string_view@DU?$char_traits@D@std@@@std@@@std@@YAAEBV?$basic_string_view@DU?$char_traits@D@std@@@0@AEBV10@@Z
	??$forward@AEBVCord@lts_20250814@absl@@@std@@YAAEBVCord@lts_20250814@absl@@AEBV123@@Z
	??$forward@AEBVFormatArgImpl@str_format_internal@lts_20250814@absl@@@std@@YAAEBVFormatArgImpl@str_format_internal@lts_20250814@absl@@AEBV1234@@Z
	??$forward@AEBW4LocationId@debugging_internal@lts_20250814@absl@@@std@@YAAEBW4LocationId@debugging_internal@lts_20250814@absl@@AEBW41234@@Z
	??$forward@AEBW4StringId@debugging_internal@lts_20250814@absl@@@std@@YAAEBW4StringId@debugging_internal@lts_20250814@absl@@AEBW41234@@Z
	??$forward@AEB_J@std@@YAAEB_JAEB_J@Z
	??$forward@AEB_K@std@@YAAEB_KAEB_K@Z
	??$forward@G@std@@YA$$QEAGAEAG@Z
	??$forward@H@std@@YA$$QEAHAEAH@Z
	??$forward@I@std@@YA$$QEAIAEAI@Z
	??$forward@M@std@@YA$$QEAMAEAM@Z
	??$forward@N@std@@YA$$QEANAEAN@Z
	??$forward@P6AHPEAU_iobuf@@@Z@std@@YA$$QEAP6AHPEAU_iobuf@@@ZAEAP6AH0@Z@Z
	??$forward@PEAD@std@@YA$$QEAPEADAEAPEAD@Z
	??$forward@PEAH@std@@YA$$QEAPEAHAEAPEAH@Z
	??$forward@PEAI@std@@YA$$QEAPEAIAEAPEAI@Z
	??$forward@PEAPEAD@std@@YA$$QEAPEAPEADAEAPEAPEAD@Z
	??$forward@PEAPEAPEBVImpl@time_zone@cctz@time_internal@lts_20250814@absl@@@std@@YA$$QEAPEAPEAPEBVImpl@time_zone@cctz@time_internal@lts_20250814@absl@@AEAPEAPEAPEBV123456@@Z
	??$forward@PEAPEAUPrefixCrc@CrcCordState@crc_internal@lts_20250814@absl@@@std@@YA$$QEAPEAPEAUPrefixCrc@CrcCordState@crc_internal@lts_20250814@absl@@AEAPEAPEAU12345@@Z
	??$forward@PEAPEAVLogSink@lts_20250814@absl@@@std@@YA$$QEAPEAPEAVLogSink@lts_20250814@absl@@AEAPEAPEAV123@@Z
	??$forward@PEAPEBVCordzHandle@cord_internal@lts_20250814@absl@@@std@@YA$$QEAPEAPEBVCordzHandle@cord_internal@lts_20250814@absl@@AEAPEAPEBV1234@@Z
	??$forward@PEAT?$map_slot_type@_K_K@container_internal@lts_20250814@absl@@@std@@YA$$QEAPEAT?$map_slot_type@_K_K@container_internal@lts_20250814@absl@@AEAPEAT1234@@Z
	??$forward@PEAU?$_List_node@U?$pair@$$CBV?$basic_string@DU?$char_traits@D@std@@V?$allocator@D@2@@std@@PEBVImpl@time_zone@cctz@time_internal@lts_20250814@absl@@@std@@PEAX@std@@@std@@YA$$QEAPEAU?$_List_node@U?$pair@$$CBV?$basic_string@DU?$char_traits@D@std@@V?$allocator@D@2@@std@@PEBVImpl@time_zone@cctz@time_internal@lts_20250814@absl@@@std@@PEAX@0@AEAPEAU10@@Z
	??$forward@PEAU?$pair@N_K@std@@@std@@YA$$QEAPEAU?$pair@N_K@0@AEAPEAU10@@Z
	??$forward@PEAUCordRep@cord_internal@lts_20250814@absl@@@std@@YA$$QEAPEAUCordRep@cord_internal@lts_20250814@absl@@AEAPEAU1234@@Z
	??$forward@PEAUViableSubstitution@strings_internal@lts_20250814@absl@@@std@@YA$$QEAPEAUViableSubstitution@strings_internal@lts_20250814@absl@@AEAPEAU1234@@Z
	??$forward@PEAU_Container_base12@std@@@std@@YA$$QEAPEAU_Container_base12@0@AEAPEAU10@@Z
	??$forward@PEAU_iobuf@@@std@@YA$$QEAPEAU_iobuf@@AEAPEAU1@@Z
	??$forward@PEAV?$InlinedVector@UPayload@status_internal@lts_20250814@absl@@$00V?$allocator@UPayload@status_internal@lts_20250814@absl@@@std@@@lts_20250814@absl@@@std@@YA$$QEAPEAV?$InlinedVector@UPayload@status_internal@lts_20250814@absl@@$00V?$allocator@UPayload@status_internal@lts_20250814@absl@@@std@@@lts_20250814@absl@@AEAPEAV123@@Z
	??$forward@PEAV?$btree_node@U?$map_params@_K_KU?$less@_K@std@@V?$allocator@U?$pair@$$CB_K_K@std@@@2@$0BAA@$0A@@container_internal@lts_20250814@absl@@@container_internal@lts_20250814@absl@@@std@@YA$$QEAPEAV?$btree_node@U?$map_params@_K_KU?$less@_K@std@@V?$allocator@U?$pair@$$CB_K_K@std@@@2@$0BAA@$0A@@container_internal@lts_20250814@absl@@@container_internal@lts_20250814@absl@@AEAPEAV1234@@Z
	??$forward@PEAVCondVar@lts_20250814@absl@@@std@@YA$$QEAPEAVCondVar@lts_20250814@absl@@AEAPEAV123@@Z
	??$forward@PEAVCordzHandle@cord_internal@lts_20250814@absl@@@std@@YA$$QEAPEAVCordzHandle@cord_internal@lts_20250814@absl@@AEAPEAV1234@@Z
	??$forward@PEAVFallbackCrcMemcpyEngine@crc_internal@lts_20250814@absl@@@std@@YA$$QEAPEAVFallbackCrcMemcpyEngine@crc_internal@lts_20250814@absl@@AEAPEAV1234@@Z
	??$forward@PEAVLogSink@lts_20250814@absl@@@std@@YA$$QEAPEAVLogSink@lts_20250814@absl@@AEAPEAV123@@Z
	??$forward@PEAVMutex@lts_20250814@absl@@@std@@YA$$QEAPEAVMutex@lts_20250814@absl@@AEAPEAV123@@Z
	??$forward@PEAVSpinLock@base_internal@lts_20250814@absl@@@std@@YA$$QEAPEAVSpinLock@base_internal@lts_20250814@absl@@AEAPEAV1234@@Z
	??$forward@PEAVTimeZoneInfo@cctz@time_internal@lts_20250814@absl@@@std@@YA$$QEAPEAVTimeZoneInfo@cctz@time_internal@lts_20250814@absl@@AEAPEAV12345@@Z
	??$forward@PEAVTimeZoneLibC@cctz@time_internal@lts_20250814@absl@@@std@@YA$$QEAPEAVTimeZoneLibC@cctz@time_internal@lts_20250814@absl@@AEAPEAV12345@@Z
	??$forward@PEAVZoneInfoSource@cctz@time_internal@lts_20250814@absl@@@std@@YA$$QEAPEAVZoneInfoSource@cctz@time_internal@lts_20250814@absl@@AEAPEAV12345@@Z
	??$forward@PEAW4ctrl_t@container_internal@lts_20250814@absl@@@std@@YA$$QEAPEAW4ctrl_t@container_internal@lts_20250814@absl@@AEAPEAW41234@@Z
	??$forward@PEAX@std@@YA$$QEAPEAXAEAPEAX@Z
	??$forward@PEBD@std@@YA$$QEAPEBDAEAPEBD@Z
	??$forward@PEBVCordzHandle@cord_internal@lts_20250814@absl@@@std@@YA$$QEAPEBVCordzHandle@cord_internal@lts_20250814@absl@@AEAPEBV1234@@Z
	??$forward@PEBW4ctrl_t@container_internal@lts_20250814@absl@@@std@@YA$$QEAPEBW4ctrl_t@container_internal@lts_20250814@absl@@AEAPEBW41234@@Z
	??$forward@PEBX@std@@YA$$QEAPEBXAEAPEBX@Z
	??$forward@PEB_W@std@@YA$$QEAPEB_WAEAPEB_W@Z
	??$forward@U?$EqualElement@V?$basic_string@DU?$char_traits@D@std@@V?$allocator@D@2@@std@@UStringEq@container_internal@lts_20250814@absl@@@container_internal@lts_20250814@absl@@@std@@YA$$QEAU?$EqualElement@V?$basic_string@DU?$char_traits@D@std@@V?$allocator@D@2@@std@@UStringEq@container_internal@lts_20250814@absl@@@container_internal@lts_20250814@absl@@AEAU1234@@Z
	??$forward@U?$EqualElement@V?$basic_string_view@DU?$char_traits@D@std@@@std@@UStringEq@container_internal@lts_20250814@absl@@@container_internal@lts_20250814@absl@@@std@@YA$$QEAU?$EqualElement@V?$basic_string_view@DU?$char_traits@D@std@@@std@@UStringEq@container_internal@lts_20250814@absl@@@container_internal@lts_20250814@absl@@AEAU1234@@Z
	??$forward@U?$EqualElement@_KU?$equal_to@_K@std@@@container_internal@lts_20250814@absl@@@std@@YA$$QEAU?$EqualElement@_KU?$equal_to@_K@std@@@container_internal@lts_20250814@absl@@AEAU1234@@Z
	??$forward@U?$Hash@_K@hash_internal@lts_20250814@absl@@@std@@YA$$QEAU?$Hash@_K@hash_internal@lts_20250814@absl@@AEAU1234@@Z
	??$forward@U?$HashElement@U?$Hash@_K@hash_internal@lts_20250814@absl@@$00@container_internal@lts_20250814@absl@@@std@@YA$$QEAU?$HashElement@U?$Hash@_K@hash_internal@lts_20250814@absl@@$00@container_internal@lts_20250814@absl@@AEAU1234@@Z
	??$forward@U?$HashElement@UStringHash@container_internal@lts_20250814@absl@@$00@container_internal@lts_20250814@absl@@@std@@YA$$QEAU?$HashElement@UStringHash@container_internal@lts_20250814@absl@@$00@container_internal@lts_20250814@absl@@AEAU1234@@Z
	??$forward@U?$_Optional_construct_base@V?$basic_string@DU?$char_traits@D@std@@V?$allocator@D@2@@std@@@std@@@std@@YA$$QEAU?$_Optional_construct_base@V?$basic_string@DU?$char_traits@D@std@@V?$allocator@D@2@@std@@@0@AEAU10@@Z
	??$forward@U?$default_delete@V?$InlinedVector@UPayload@status_internal@lts_20250814@absl@@$00V?$allocator@UPayload@status_internal@lts_20250814@absl@@@std@@@lts_20250814@absl@@@std@@@std@@YA$$QEAU?$default_delete@V?$InlinedVector@UPayload@status_internal@lts_20250814@absl@@$00V?$allocator@UPayload@status_internal@lts_20250814@absl@@@std@@@lts_20250814@absl@@@0@AEAU10@@Z
	??$forward@U?$default_delete@VFallbackCrcMemcpyEngine@crc_internal@lts_20250814@absl@@@std@@@std@@YA$$QEAU?$default_delete@VFallbackCrcMemcpyEngine@crc_internal@lts_20250814@absl@@@0@AEAU10@@Z
	??$forward@U?$default_delete@VTimeZoneInfo@cctz@time_internal@lts_20250814@absl@@@std@@@std@@YA$$QEAU?$default_delete@VTimeZoneInfo@cctz@time_internal@lts_20250814@absl@@@0@AEAU10@@Z
	??$forward@U?$default_delete@VTimeZoneLibC@cctz@time_internal@lts_20250814@absl@@@std@@@std@@YA$$QEAU?$default_delete@VTimeZoneLibC@cctz@time_internal@lts_20250814@absl@@@0@AEAU10@@Z
	??$forward@U?$default_delete@VZoneInfoSource@cctz@time_internal@lts_20250814@absl@@@std@@@std@@YA$$QEAU?$default_delete@VZoneInfoSource@cctz@time_internal@lts_20250814@absl@@@0@AEAU10@@Z
	??$forward@U?$equal_to@_K@std@@@std@@YA$$QEAU?$equal_to@_K@0@AEAU10@@Z
	??$forward@U?$pair@$$CBV?$basic_string@DU?$char_traits@D@std@@V?$allocator@D@2@@std@@W4StringId@debugging_internal@lts_20250814@absl@@@std@@@std@@YA$$QEAU?$pair@$$CBV?$basic_string@DU?$char_traits@D@std@@V?$allocator@D@2@@std@@W4StringId@debugging_internal@lts_20250814@absl@@@0@AEAU10@@Z
	??$forward@U?$pair@$$CB_KW4LocationId@debugging_internal@lts_20250814@absl@@@std@@@std@@YA$$QEAU?$pair@$$CB_KW4LocationId@debugging_internal@lts_20250814@absl@@@0@AEAU10@@Z
	??$forward@U?$pair@$$CB_K_K@std@@@std@@YA$$QEAU?$pair@$$CB_K_K@0@AEAU10@@Z
	??$forward@U?$pair@N_K@std@@@std@@YA$$QEAU?$pair@N_K@0@AEAU10@@Z
	??$forward@U?$pair@V?$basic_string@DU?$char_traits@D@std@@V?$allocator@D@2@@std@@W4StringId@debugging_internal@lts_20250814@absl@@@std@@@std@@YA$$QEAU?$pair@V?$basic_string@DU?$char_traits@D@std@@V?$allocator@D@2@@std@@W4StringId@debugging_internal@lts_20250814@absl@@@0@AEAU10@@Z
	??$forward@U?$pair@V?$basic_string_view@DU?$char_traits@D@std@@@std@@H@std@@@std@@YA$$QEAU?$pair@V?$basic_string_view@DU?$char_traits@D@std@@@std@@H@0@AEAU10@@Z
	??$forward@U?$pair@W4StringId@debugging_internal@lts_20250814@absl@@_J@std@@@std@@YA$$QEAU?$pair@W4StringId@debugging_internal@lts_20250814@absl@@_J@0@AEAU10@@Z
	??$forward@U?$pair@_KW4LocationId@debugging_internal@lts_20250814@absl@@@std@@@std@@YA$$QEAU?$pair@_KW4LocationId@debugging_internal@lts_20250814@absl@@@0@AEAU10@@Z
	??$forward@U?$pair@_K_K@std@@@std@@YA$$QEAU?$pair@_K_K@0@AEAU10@@Z
	??$forward@UConversionItem@ParsedFormatBase@str_format_internal@lts_20250814@absl@@@std@@YA$$QEAUConversionItem@ParsedFormatBase@str_format_internal@lts_20250814@absl@@AEAU12345@@Z
	??$forward@UEmplaceDecomposable@?$raw_hash_set@U?$FlatHashMapPolicy@V?$basic_string@DU?$char_traits@D@std@@V?$allocator@D@2@@std@@W4StringId@debugging_internal@lts_20250814@absl@@@container_internal@lts_20250814@absl@@UStringHash@234@UStringEq@234@V?$allocator@U?$pair@$$CBV?$basic_string@DU?$char_traits@D@std@@V?$allocator@D@2@@std@@W4StringId@debugging_internal@lts_20250814@absl@@@std@@@std@@@container_internal@lts_20250814@absl@@@std@@YA$$QEAUEmplaceDecomposable@?$raw_hash_set@U?$FlatHashMapPolicy@V?$basic_string@DU?$char_traits@D@std@@V?$allocator@D@2@@std@@W4StringId@debugging_internal@lts_20250814@absl@@@container_internal@lts_20250814@absl@@UStringHash@234@UStringEq@234@V?$allocator@U?$pair@$$CBV?$basic_string@DU?$char_traits@D@std@@V?$allocator@D@2@@std@@W4StringId@debugging_internal@lts_20250814@absl@@@std@@@std@@@container_internal@lts_20250814@absl@@AEAU12345@@Z
	??$forward@UEmplaceDecomposable@?$raw_hash_set@U?$FlatHashMapPolicy@_KW4LocationId@debugging_internal@lts_20250814@absl@@@container_internal@lts_20250814@absl@@U?$Hash@_K@hash_internal@34@U?$equal_to@_K@std@@V?$allocator@U?$pair@$$CB_KW4LocationId@debugging_internal@lts_20250814@absl@@@std@@@8@@container_internal@lts_20250814@absl@@@std@@YA$$QEAUEmplaceDecomposable@?$raw_hash_set@U?$FlatHashMapPolicy@_KW4LocationId@debugging_internal@lts_20250814@absl@@@container_internal@lts_20250814@absl@@U?$Hash@_K@hash_internal@34@U?$equal_to@_K@std@@V?$allocator@U?$pair@$$CB_KW4LocationId@debugging_internal@lts_20250814@absl@@@std@@@8@@container_internal@lts_20250814@absl@@AEAU12345@@Z
	??$forward@UMapping@ProfileBuilder@debugging_internal@lts_20250814@absl@@@std@@YA$$QEAUMapping@ProfileBuilder@debugging_internal@lts_20250814@absl@@AEAU12345@@Z
	??$forward@UPayload@status_internal@lts_20250814@absl@@@std@@YA$$QEAUPayload@status_internal@lts_20250814@absl@@AEAU1234@@Z
	??$forward@UPrefixCrc@CrcCordState@crc_internal@lts_20250814@absl@@@std@@YA$$QEAUPrefixCrc@CrcCordState@crc_internal@lts_20250814@absl@@AEAU12345@@Z
	??$forward@UTransition@cctz@time_internal@lts_20250814@absl@@@std@@YA$$QEAUTransition@cctz@time_internal@lts_20250814@absl@@AEAU12345@@Z
	??$forward@UTransitionType@cctz@time_internal@lts_20250814@absl@@@std@@YA$$QEAUTransitionType@cctz@time_internal@lts_20250814@absl@@AEAU12345@@Z
	??$forward@UViableSubstitution@strings_internal@lts_20250814@absl@@@std@@YA$$QEAUViableSubstitution@strings_internal@lts_20250814@absl@@AEAU1234@@Z
	??$forward@U_Zero_then_variadic_args_t@std@@@std@@YA$$QEAU_Zero_then_variadic_args_t@0@AEAU10@@Z
	??$forward@V?$Span@I@lts_20250814@absl@@@std@@YA$$QEAV?$Span@I@lts_20250814@absl@@AEAV123@@Z
	??$forward@V?$_List_iterator@V?$_List_val@U?$_List_simple_types@H@std@@@std@@@std@@@std@@YA$$QEAV?$_List_iterator@V?$_List_val@U?$_List_simple_types@H@std@@@std@@@0@AEAV10@@Z
	??$forward@V?$_List_iterator@V?$_List_val@U?$_List_simple_types@PEBUCordRep@cord_internal@lts_20250814@absl@@@std@@@std@@@std@@@std@@YA$$QEAV?$_List_iterator@V?$_List_val@U?$_List_simple_types@PEBUCordRep@cord_internal@lts_20250814@absl@@@std@@@std@@@0@AEAV10@@Z
	??$forward@V?$allocator@D@std@@@std@@YA$$QEAV?$allocator@D@0@AEAV10@@Z
	??$forward@V?$allocator@PEAUCordRep@cord_internal@lts_20250814@absl@@@std@@@std@@YA$$QEAV?$allocator@PEAUCordRep@cord_internal@lts_20250814@absl@@@0@AEAV10@@Z
	??$forward@V?$allocator@PEAVLogSink@lts_20250814@absl@@@std@@@std@@YA$$QEAV?$allocator@PEAVLogSink@lts_20250814@absl@@@0@AEAV10@@Z
	??$forward@V?$allocator@PEBVCordzHandle@cord_internal@lts_20250814@absl@@@std@@@std@@YA$$QEAV?$allocator@PEBVCordzHandle@cord_internal@lts_20250814@absl@@@0@AEAV10@@Z
	??$forward@V?$allocator@U?$pair@$$CB_K_K@std@@@std@@@std@@YA$$QEAV?$allocator@U?$pair@$$CB_K_K@std@@@0@AEAV10@@Z
	??$forward@V?$allocator@U?$pair@N_K@std@@@std@@@std@@YA$$QEAV?$allocator@U?$pair@N_K@std@@@0@AEAV10@@Z
	??$forward@V?$allocator@UPayload@status_internal@lts_20250814@absl@@@std@@@std@@YA$$QEAV?$allocator@UPayload@status_internal@lts_20250814@absl@@@0@AEAV10@@Z
	??$forward@V?$allocator@UViableSubstitution@strings_internal@lts_20250814@absl@@@std@@@std@@YA$$QEAV?$allocator@UViableSubstitution@strings_internal@lts_20250814@absl@@@0@AEAV10@@Z
	??$forward@V?$basic_string@DU?$char_traits@D@std@@V?$allocator@D@2@@std@@@std@@YA$$QEAV?$basic_string@DU?$char_traits@D@std@@V?$allocator@D@2@@0@AEAV10@@Z
	??$forward@V?$basic_string_view@DU?$char_traits@D@std@@@std@@@std@@YA$$QEAV?$basic_string_view@DU?$char_traits@D@std@@@0@AEAV10@@Z
	??$forward@V?$btree_iterator@V?$btree_node@U?$map_params@_K_KU?$less@_K@std@@V?$allocator@U?$pair@$$CB_K_K@std@@@2@$0BAA@$0A@@container_internal@lts_20250814@absl@@@container_internal@lts_20250814@absl@@AEAU?$pair@$$CB_K_K@std@@PEAU56@@container_internal@lts_20250814@absl@@@std@@YA$$QEAV?$btree_iterator@V?$btree_node@U?$map_params@_K_KU?$less@_K@std@@V?$allocator@U?$pair@$$CB_K_K@std@@@2@$0BAA@$0A@@container_internal@lts_20250814@absl@@@container_internal@lts_20250814@absl@@AEAU?$pair@$$CB_K_K@std@@PEAU56@@container_internal@lts_20250814@absl@@AEAV1234@@Z
	??$forward@V?$function@$$A6AXXZ@std@@@std@@YA$$QEAV?$function@$$A6AXXZ@0@AEAV10@@Z
	??$forward@V?$tuple@$$QEAW4LocationId@debugging_internal@lts_20250814@absl@@@std@@@std@@YA$$QEAV?$tuple@$$QEAW4LocationId@debugging_internal@lts_20250814@absl@@@0@AEAV10@@Z
	??$forward@V?$tuple@$$QEAW4StringId@debugging_internal@lts_20250814@absl@@@std@@@std@@YA$$QEAV?$tuple@$$QEAW4StringId@debugging_internal@lts_20250814@absl@@@0@AEAV10@@Z
	??$forward@V?$tuple@$$QEA_K@std@@@std@@YA$$QEAV?$tuple@$$QEA_K@0@AEAV10@@Z
	??$forward@V?$tuple@$$V@std@@@std@@YA$$QEAV?$tuple@$$V@0@AEAV10@@Z
	??$forward@V?$tuple@AEAV?$basic_string_view@DU?$char_traits@D@std@@@std@@@std@@@std@@YA$$QEAV?$tuple@AEAV?$basic_string_view@DU?$char_traits@D@std@@@std@@@0@AEAV10@@Z
	??$forward@V?$tuple@AEBV?$basic_string@DU?$char_traits@D@std@@V?$allocator@D@2@@std@@@std@@@std@@YA$$QEAV?$tuple@AEBV?$basic_string@DU?$char_traits@D@std@@V?$allocator@D@2@@std@@@0@AEAV10@@Z
	??$forward@V?$tuple@AEBW4StringId@debugging_internal@lts_20250814@absl@@@std@@@std@@YA$$QEAV?$tuple@AEBW4StringId@debugging_internal@lts_20250814@absl@@@0@AEAV10@@Z
	??$forward@VCommonFields@container_internal@lts_20250814@absl@@@std@@YA$$QEAVCommonFields@container_internal@lts_20250814@absl@@AEAV1234@@Z
	??$forward@VCord@lts_20250814@absl@@@std@@YA$$QEAVCord@lts_20250814@absl@@AEAV123@@Z
	??$forward@VTime@lts_20250814@absl@@@std@@YA$$QEAVTime@lts_20250814@absl@@AEAV123@@Z
	??$forward@Vcrc32c_t@lts_20250814@absl@@@std@@YA$$QEAVcrc32c_t@lts_20250814@absl@@AEAV123@@Z
	??$forward@Viterator@?$raw_hash_set@U?$FlatHashMapPolicy@V?$basic_string@DU?$char_traits@D@std@@V?$allocator@D@2@@std@@W4StringId@debugging_internal@lts_20250814@absl@@@container_internal@lts_20250814@absl@@UStringHash@234@UStringEq@234@V?$allocator@U?$pair@$$CBV?$basic_string@DU?$char_traits@D@std@@V?$allocator@D@2@@std@@W4StringId@debugging_internal@lts_20250814@absl@@@std@@@std@@@container_internal@lts_20250814@absl@@@std@@YA$$QEAViterator@?$raw_hash_set@U?$FlatHashMapPolicy@V?$basic_string@DU?$char_traits@D@std@@V?$allocator@D@2@@std@@W4StringId@debugging_internal@lts_20250814@absl@@@container_internal@lts_20250814@absl@@UStringHash@234@UStringEq@234@V?$allocator@U?$pair@$$CBV?$basic_string@DU?$char_traits@D@std@@V?$allocator@D@2@@std@@W4StringId@debugging_internal@lts_20250814@absl@@@std@@@std@@@container_internal@lts_20250814@absl@@AEAV12345@@Z
	??$forward@Viterator@?$raw_hash_set@U?$FlatHashMapPolicy@_KW4LocationId@debugging_internal@lts_20250814@absl@@@container_internal@lts_20250814@absl@@U?$Hash@_K@hash_internal@34@U?$equal_to@_K@std@@V?$allocator@U?$pair@$$CB_KW4LocationId@debugging_internal@lts_20250814@absl@@@std@@@8@@container_internal@lts_20250814@absl@@@std@@YA$$QEAViterator@?$raw_hash_set@U?$FlatHashMapPolicy@_KW4LocationId@debugging_internal@lts_20250814@absl@@@container_internal@lts_20250814@absl@@U?$Hash@_K@hash_internal@34@U?$equal_to@_K@std@@V?$allocator@U?$pair@$$CB_KW4LocationId@debugging_internal@lts_20250814@absl@@@std@@@8@@container_internal@lts_20250814@absl@@AEAV12345@@Z
	??$forward@W4LocationId@debugging_internal@lts_20250814@absl@@@std@@YA$$QEAW4LocationId@debugging_internal@lts_20250814@absl@@AEAW41234@@Z
	??$forward@W4LogSeverity@lts_20250814@absl@@@std@@YA$$QEAW4LogSeverity@lts_20250814@absl@@AEAW4123@@Z
	??$forward@W4StringId@debugging_internal@lts_20250814@absl@@@std@@YA$$QEAW4StringId@debugging_internal@lts_20250814@absl@@AEAW41234@@Z
	??$forward@_J@std@@YA$$QEA_JAEA_J@Z
	??$forward@_K@std@@YA$$QEA_KAEA_K@Z
	??$forward@_N@std@@YA$$QEA_NAEA_N@Z
	??$forward_as_tuple@$$V@std@@YA?AV?$tuple@$$V@0@XZ
	??$forward_as_tuple@AEAV?$basic_string_view@DU?$char_traits@D@std@@@std@@@std@@YA?AV?$tuple@AEAV?$basic_string_view@DU?$char_traits@D@std@@@std@@@0@AEAV?$basic_string_view@DU?$char_traits@D@std@@@0@@Z
	??$forward_as_tuple@AEBV?$basic_string@DU?$char_traits@D@std@@V?$allocator@D@2@@std@@@std@@YA?AV?$tuple@AEBV?$basic_string@DU?$char_traits@D@std@@V?$allocator@D@2@@std@@@0@AEBV?$basic_string@DU?$char_traits@D@std@@V?$allocator@D@2@@0@@Z
	??$forward_as_tuple@AEBW4LocationId@debugging_internal@lts_20250814@absl@@@std@@YA?AV?$tuple@AEBW4LocationId@debugging_internal@lts_20250814@absl@@@0@AEBW4LocationId@debugging_internal@lts_20250814@absl@@@Z
	??$forward_as_tuple@AEBW4StringId@debugging_internal@lts_20250814@absl@@@std@@YA?AV?$tuple@AEBW4StringId@debugging_internal@lts_20250814@absl@@@0@AEBW4StringId@debugging_internal@lts_20250814@absl@@@Z
	??$forward_as_tuple@AEB_K@std@@YA?AV?$tuple@AEB_K@0@AEB_K@Z
	??$forward_as_tuple@W4LocationId@debugging_internal@lts_20250814@absl@@@std@@YA?AV?$tuple@$$QEAW4LocationId@debugging_internal@lts_20250814@absl@@@0@$$QEAW4LocationId@debugging_internal@lts_20250814@absl@@@Z
	??$forward_as_tuple@W4StringId@debugging_internal@lts_20250814@absl@@@std@@YA?AV?$tuple@$$QEAW4StringId@debugging_internal@lts_20250814@absl@@@0@$$QEAW4StringId@debugging_internal@lts_20250814@absl@@@Z
	??$forward_as_tuple@_K@std@@YA?AV?$tuple@$$QEA_K@0@$$QEA_K@Z
	??$get@$00$$CB_KW4LocationId@debugging_internal@lts_20250814@absl@@@std@@YAAEBW4LocationId@debugging_internal@lts_20250814@absl@@AEBU?$pair@$$CB_KW4LocationId@debugging_internal@lts_20250814@absl@@@0@@Z
	??$get@$00@?$CompressedTuple@Uchecked_compare@?$key_compare_adapter@U?$less@_K@std@@_K@container_internal@lts_20250814@absl@@V?$allocator@U?$pair@$$CB_K_K@std@@@std@@PEAV?$btree_node@U?$map_params@_K_KU?$less@_K@std@@V?$allocator@U?$pair@$$CB_K_K@std@@@2@$0BAA@$0A@@container_internal@lts_20250814@absl@@@345@@container_internal@lts_20250814@absl@@QEGAAAEAV?$allocator@U?$pair@$$CB_K_K@std@@@std@@XZ
	??$get@$00@?$CompressedTuple@Uchecked_compare@?$key_compare_adapter@U?$less@_K@std@@_K@container_internal@lts_20250814@absl@@V?$allocator@U?$pair@$$CB_K_K@std@@@std@@PEAV?$btree_node@U?$map_params@_K_KU?$less@_K@std@@V?$allocator@U?$pair@$$CB_K_K@std@@@2@$0BAA@$0A@@container_internal@lts_20250814@absl@@@345@@container_internal@lts_20250814@absl@@QEGBAAEBV?$allocator@U?$pair@$$CB_K_K@std@@@std@@XZ
	??$get@$00@?$CompressedTuple@V?$allocator@PEAUCordRep@cord_internal@lts_20250814@absl@@@std@@PEAPEAUCordRep@cord_internal@lts_20250814@absl@@@container_internal@lts_20250814@absl@@QEGAAAEAPEAPEAUCordRep@cord_internal@23@XZ
	??$get@$00@?$CompressedTuple@V?$allocator@PEAUCordRep@cord_internal@lts_20250814@absl@@@std@@_K@container_internal@lts_20250814@absl@@QEGAAAEA_KXZ
	??$get@$00@?$CompressedTuple@V?$allocator@PEAUCordRep@cord_internal@lts_20250814@absl@@@std@@_K@container_internal@lts_20250814@absl@@QEGBAAEB_KXZ
	??$get@$00@?$CompressedTuple@V?$allocator@PEAVLogSink@lts_20250814@absl@@@std@@PEAPEAVLogSink@lts_20250814@absl@@@container_internal@lts_20250814@absl@@QEGAAAEAPEAPEAVLogSink@23@XZ
	??$get@$00@?$CompressedTuple@V?$allocator@PEAVLogSink@lts_20250814@absl@@@std@@_K@container_internal@lts_20250814@absl@@QEGAAAEA_KXZ
	??$get@$00@?$CompressedTuple@V?$allocator@PEAVLogSink@lts_20250814@absl@@@std@@_K@container_internal@lts_20250814@absl@@QEGBAAEB_KXZ
	??$get@$00@?$CompressedTuple@V?$allocator@UPayload@status_internal@lts_20250814@absl@@@std@@PEAUPayload@status_internal@lts_20250814@absl@@@container_internal@lts_20250814@absl@@QEGAAAEAPEAUPayload@status_internal@23@XZ
	??$get@$00@?$CompressedTuple@V?$allocator@UPayload@status_internal@lts_20250814@absl@@@std@@_K@container_internal@lts_20250814@absl@@QEGAAAEA_KXZ
	??$get@$00@?$CompressedTuple@V?$allocator@UPayload@status_internal@lts_20250814@absl@@@std@@_K@container_internal@lts_20250814@absl@@QEGBAAEB_KXZ
	??$get@$00@?$CompressedTuple@V?$allocator@VFormatArgImpl@str_format_internal@lts_20250814@absl@@@std@@_K@container_internal@lts_20250814@absl@@QEGAAAEA_KXZ
	??$get@$00@?$CompressedTuple@V?$allocator@VFormatArgImpl@str_format_internal@lts_20250814@absl@@@std@@_K@container_internal@lts_20250814@absl@@QEGBAAEB_KXZ
	??$get@$00@?$CompressedTuple@VCommonFields@container_internal@lts_20250814@absl@@U?$Hash@_K@hash_internal@34@U?$equal_to@_K@std@@V?$allocator@D@8@@container_internal@lts_20250814@absl@@QEGAAAEAU?$Hash@_K@hash_internal@23@XZ
	??$get@$00@?$CompressedTuple@VCommonFields@container_internal@lts_20250814@absl@@U?$Hash@_K@hash_internal@34@U?$equal_to@_K@std@@V?$allocator@D@8@@container_internal@lts_20250814@absl@@QEGBAAEBU?$Hash@_K@hash_internal@23@XZ
	??$get@$00@?$CompressedTuple@VCommonFields@container_internal@lts_20250814@absl@@UStringHash@234@UStringEq@234@V?$allocator@D@std@@@container_internal@lts_20250814@absl@@QEGAAAEAUStringHash@123@XZ
	??$get@$00@?$CompressedTuple@VCommonFields@container_internal@lts_20250814@absl@@UStringHash@234@UStringEq@234@V?$allocator@D@std@@@container_internal@lts_20250814@absl@@QEGBAAEBUStringHash@123@XZ
	??$get@$00@?$CompressedTuple@_KV?$allocator@D@std@@@container_internal@lts_20250814@absl@@QEGAAAEAV?$allocator@D@std@@XZ
	??$get@$00AEBV?$basic_string_view@DU?$char_traits@D@std@@@std@@AEBH@std@@YAAEBHAEBV?$tuple@AEBV?$basic_string_view@DU?$char_traits@D@std@@@std@@AEBH@0@@Z
	??$get@$00V?$basic_string_view@DU?$char_traits@D@std@@@std@@V12@@std@@YAAEBV?$basic_string_view@DU?$char_traits@D@std@@@0@AEBU?$pair@V?$basic_string_view@DU?$char_traits@D@std@@@std@@V12@@0@@Z
	??$get@$00V?$btree_iterator@V?$btree_node@U?$map_params@_K_KU?$less@_K@std@@V?$allocator@U?$pair@$$CB_K_K@std@@@2@$0BAA@$0A@@container_internal@lts_20250814@absl@@@container_internal@lts_20250814@absl@@AEAU?$pair@$$CB_K_K@std@@PEAU56@@container_internal@lts_20250814@absl@@_N@std@@YA$$QEA_N$$QEAU?$pair@V?$btree_iterator@V?$btree_node@U?$map_params@_K_KU?$less@_K@std@@V?$allocator@U?$pair@$$CB_K_K@std@@@2@$0BAA@$0A@@container_internal@lts_20250814@absl@@@container_internal@lts_20250814@absl@@AEAU?$pair@$$CB_K_K@std@@PEAU56@@container_internal@lts_20250814@absl@@_N@0@@Z
	??$get@$01@?$CompressedTuple@Uchecked_compare@?$key_compare_adapter@U?$less@_K@std@@_K@container_internal@lts_20250814@absl@@V?$allocator@U?$pair@$$CB_K_K@std@@@std@@PEAV?$btree_node@U?$map_params@_K_KU?$less@_K@std@@V?$allocator@U?$pair@$$CB_K_K@std@@@2@$0BAA@$0A@@container_internal@lts_20250814@absl@@@345@@container_internal@lts_20250814@absl@@QEGAAAEAPEAV?$btree_node@U?$map_params@_K_KU?$less@_K@std@@V?$allocator@U?$pair@$$CB_K_K@std@@@2@$0BAA@$0A@@container_internal@lts_20250814@absl@@@123@XZ
	??$get@$01@?$CompressedTuple@VCommonFields@container_internal@lts_20250814@absl@@U?$Hash@_K@hash_internal@34@U?$equal_to@_K@std@@V?$allocator@D@8@@container_internal@lts_20250814@absl@@QEGBAAEBU?$equal_to@_K@std@@XZ
	??$get@$01@?$CompressedTuple@VCommonFields@container_internal@lts_20250814@absl@@UStringHash@234@UStringEq@234@V?$allocator@D@std@@@container_internal@lts_20250814@absl@@QEGBAAEBUStringEq@123@XZ
	??$get@$02@?$CompressedTuple@VCommonFields@container_internal@lts_20250814@absl@@U?$Hash@_K@hash_internal@34@U?$equal_to@_K@std@@V?$allocator@D@8@@container_internal@lts_20250814@absl@@QEGAAAEAV?$allocator@D@std@@XZ
	??$get@$02@?$CompressedTuple@VCommonFields@container_internal@lts_20250814@absl@@UStringHash@234@UStringEq@234@V?$allocator@D@std@@@container_internal@lts_20250814@absl@@QEGAAAEAV?$allocator@D@std@@XZ
	??$get@$0A@$$CB_KW4LocationId@debugging_internal@lts_20250814@absl@@@std@@YAAEB_KAEBU?$pair@$$CB_KW4LocationId@debugging_internal@lts_20250814@absl@@@0@@Z
	??$get@$0A@$$QEA_K@std@@YAAEA_KAEAV?$tuple@$$QEA_K@0@@Z
	??$get@$0A@@?$CompressedTuple@Uchecked_compare@?$key_compare_adapter@U?$less@_K@std@@_K@container_internal@lts_20250814@absl@@V?$allocator@U?$pair@$$CB_K_K@std@@@std@@PEAV?$btree_node@U?$map_params@_K_KU?$less@_K@std@@V?$allocator@U?$pair@$$CB_K_K@std@@@2@$0BAA@$0A@@container_internal@lts_20250814@absl@@@345@@container_internal@lts_20250814@absl@@QEGBAAEBUchecked_compare@?$key_compare_adapter@U?$less@_K@std@@_K@123@XZ
	??$get@$0A@@?$CompressedTuple@V?$allocator@PEAUCordRep@cord_internal@lts_20250814@absl@@@std@@PEAPEAUCordRep@cord_internal@lts_20250814@absl@@@container_internal@lts_20250814@absl@@QEGAAAEAV?$allocator@PEAUCordRep@cord_internal@lts_20250814@absl@@@std@@XZ
	??$get@$0A@@?$CompressedTuple@V?$allocator@PEAUCordRep@cord_internal@lts_20250814@absl@@@std@@_K@container_internal@lts_20250814@absl@@QEGAAAEAV?$allocator@PEAUCordRep@cord_internal@lts_20250814@absl@@@std@@XZ
	??$get@$0A@@?$CompressedTuple@V?$allocator@PEAVLogSink@lts_20250814@absl@@@std@@PEAPEAVLogSink@lts_20250814@absl@@@container_internal@lts_20250814@absl@@QEGAAAEAV?$allocator@PEAVLogSink@lts_20250814@absl@@@std@@XZ
	??$get@$0A@@?$CompressedTuple@V?$allocator@PEAVLogSink@lts_20250814@absl@@@std@@_K@container_internal@lts_20250814@absl@@QEGAAAEAV?$allocator@PEAVLogSink@lts_20250814@absl@@@std@@XZ
	??$get@$0A@@?$CompressedTuple@V?$allocator@UPayload@status_internal@lts_20250814@absl@@@std@@PEAUPayload@status_internal@lts_20250814@absl@@@container_internal@lts_20250814@absl@@QEGAAAEAV?$allocator@UPayload@status_internal@lts_20250814@absl@@@std@@XZ
	??$get@$0A@@?$CompressedTuple@V?$allocator@UPayload@status_internal@lts_20250814@absl@@@std@@_K@container_internal@lts_20250814@absl@@QEGAAAEAV?$allocator@UPayload@status_internal@lts_20250814@absl@@@std@@XZ
	??$get@$0A@@?$CompressedTuple@V?$allocator@UPayload@status_internal@lts_20250814@absl@@@std@@_K@container_internal@lts_20250814@absl@@QEGBAAEBV?$allocator@UPayload@status_internal@lts_20250814@absl@@@std@@XZ
	??$get@$0A@@?$CompressedTuple@V?$allocator@VFormatArgImpl@str_format_internal@lts_20250814@absl@@@std@@_K@container_internal@lts_20250814@absl@@QEGAAAEAV?$allocator@VFormatArgImpl@str_format_internal@lts_20250814@absl@@@std@@XZ
	??$get@$0A@@?$CompressedTuple@VCommonFields@container_internal@lts_20250814@absl@@U?$Hash@_K@hash_internal@34@U?$equal_to@_K@std@@V?$allocator@D@8@@container_internal@lts_20250814@absl@@QEGAAAEAVCommonFields@123@XZ
	??$get@$0A@@?$CompressedTuple@VCommonFields@container_internal@lts_20250814@absl@@U?$Hash@_K@hash_internal@34@U?$equal_to@_K@std@@V?$allocator@D@8@@container_internal@lts_20250814@absl@@QEGBAAEBVCommonFields@123@XZ
	??$get@$0A@@?$CompressedTuple@VCommonFields@container_internal@lts_20250814@absl@@UStringHash@234@UStringEq@234@V?$allocator@D@std@@@container_internal@lts_20250814@absl@@QEGAAAEAVCommonFields@123@XZ
	??$get@$0A@@?$CompressedTuple@VCommonFields@container_internal@lts_20250814@absl@@UStringHash@234@UStringEq@234@V?$allocator@D@std@@@container_internal@lts_20250814@absl@@QEGBAAEBVCommonFields@123@XZ
	??$get@$0A@@?$CompressedTuple@_KV?$allocator@D@std@@@container_internal@lts_20250814@absl@@QEGBAAEB_KXZ
	??$get@$0A@AEAV?$basic_string_view@DU?$char_traits@D@std@@@std@@@std@@YAAEAV?$basic_string_view@DU?$char_traits@D@std@@@0@AEAV?$tuple@AEAV?$basic_string_view@DU?$char_traits@D@std@@@std@@@0@@Z
	??$get@$0A@AEBV?$basic_string@DU?$char_traits@D@std@@V?$allocator@D@2@@std@@@std@@YAAEBV?$basic_string@DU?$char_traits@D@std@@V?$allocator@D@2@@0@AEAV?$tuple@AEBV?$basic_string@DU?$char_traits@D@std@@V?$allocator@D@2@@std@@@0@@Z
	??$get@$0A@AEBV?$basic_string_view@DU?$char_traits@D@std@@@std@@AEBH@std@@YAAEBV?$basic_string_view@DU?$char_traits@D@std@@@0@AEBV?$tuple@AEBV?$basic_string_view@DU?$char_traits@D@std@@@std@@AEBH@0@@Z
	??$get@$0A@AEB_K@std@@YAAEB_KAEAV?$tuple@AEB_K@0@@Z
	??$get@$0A@AEB_K@std@@YAAEB_KAEBV?$tuple@AEB_K@0@@Z
	??$get@$0A@V?$basic_string_view@DU?$char_traits@D@std@@@std@@V12@@std@@YAAEBV?$basic_string_view@DU?$char_traits@D@std@@@0@AEBU?$pair@V?$basic_string_view@DU?$char_traits@D@std@@@std@@V12@@0@@Z
	??$get@$0A@V?$btree_iterator@V?$btree_node@U?$map_params@_K_KU?$less@_K@std@@V?$allocator@U?$pair@$$CB_K_K@std@@@2@$0BAA@$0A@@container_internal@lts_20250814@absl@@@container_internal@lts_20250814@absl@@AEAU?$pair@$$CB_K_K@std@@PEAU56@@container_internal@lts_20250814@absl@@_N@std@@YA$$QEAV?$btree_iterator@V?$btree_node@U?$map_params@_K_KU?$less@_K@std@@V?$allocator@U?$pair@$$CB_K_K@std@@@2@$0BAA@$0A@@container_internal@lts_20250814@absl@@@container_internal@lts_20250814@absl@@AEAU?$pair@$$CB_K_K@std@@PEAU56@@container_internal@lts_20250814@absl@@$$QEAU?$pair@V?$btree_iterator@V?$btree_node@U?$map_params@_K_KU?$less@_K@std@@V?$allocator@U?$pair@$$CB_K_K@std@@@2@$0BAA@$0A@@container_internal@lts_20250814@absl@@@container_internal@lts_20250814@absl@@AEAU?$pair@$$CB_K_K@std@@PEAU56@@container_internal@lts_20250814@absl@@_N@0@@Z
	??$get_time@D@std@@YA?AU?$_Timeobj@DPEAUtm@@@0@PEAUtm@@PEBD@Z
	??$getline@DU?$char_traits@D@std@@V?$allocator@D@2@@std@@YAAEAV?$basic_istream@DU?$char_traits@D@std@@@0@$$QEAV10@AEAV?$basic_string@DU?$char_traits@D@std@@V?$allocator@D@2@@0@D@Z
	??$getline@DU?$char_traits@D@std@@V?$allocator@D@2@@std@@YAAEAV?$basic_istream@DU?$char_traits@D@std@@@0@AEAV10@AEAV?$basic_string@DU?$char_traits@D@std@@V?$allocator@D@2@@0@@Z
	??$has_single_bit@_K@lts_20250814@absl@@YA_N_K@Z
	??$hash@U?$Hash@V?$basic_string_view@DU?$char_traits@D@std@@@std@@@hash_internal@lts_20250814@absl@@V?$basic_string_view@DU?$char_traits@D@std@@@std@@@HashWithSeed@hash_internal@lts_20250814@absl@@QEBA_KAEBU?$Hash@V?$basic_string_view@DU?$char_traits@D@std@@@std@@@123@AEBV?$basic_string_view@DU?$char_traits@D@std@@@std@@_K@Z
	??$hash@U?$Hash@_K@hash_internal@lts_20250814@absl@@_K@HashWithSeed@hash_internal@lts_20250814@absl@@QEBA_KAEBU?$Hash@_K@123@AEB_K_K@Z
	??$hash@UStringHash@container_internal@lts_20250814@absl@@V?$basic_string@DU?$char_traits@D@std@@V?$allocator@D@2@@std@@@HashWithSeed@hash_internal@lts_20250814@absl@@QEBA_KAEBUStringHash@container_internal@23@AEBV?$basic_string@DU?$char_traits@D@std@@V?$allocator@D@2@@std@@_K@Z
	??$hash@UStringHash@container_internal@lts_20250814@absl@@V?$basic_string_view@DU?$char_traits@D@std@@@std@@@HashWithSeed@hash_internal@lts_20250814@absl@@QEBA_KAEBUStringHash@container_internal@23@AEBV?$basic_string_view@DU?$char_traits@D@std@@@std@@_K@Z
	??$hash@V?$basic_string_view@DU?$char_traits@D@std@@@std@@@MixingHashState@hash_internal@lts_20250814@absl@@SA_KAEBV?$basic_string_view@DU?$char_traits@D@std@@@std@@@Z
	??$hash@V?$tuple@AEBV?$basic_string_view@DU?$char_traits@D@std@@@std@@AEBH@std@@@MixingHashState@hash_internal@lts_20250814@absl@@SA_KAEBV?$tuple@AEBV?$basic_string_view@DU?$char_traits@D@std@@@std@@AEBH@std@@@Z
	??$hash@V?$tuple@AEB_K@std@@@MixingHashState@hash_internal@lts_20250814@absl@@SA_KAEBV?$tuple@AEB_K@std@@@Z
	??$hash@_K@MixingHashState@hash_internal@lts_20250814@absl@@SA_KAEB_K@Z
	??$hash_bytes@VMixingHashState@hash_internal@lts_20250814@absl@@H$0A@@hash_internal@lts_20250814@absl@@YA?AVMixingHashState@012@V3012@AEBH@Z
	??$hash_bytes@VMixingHashState@hash_internal@lts_20250814@absl@@_K$0A@@hash_internal@lts_20250814@absl@@YA?AVMixingHashState@012@V3012@AEB_K@Z
	??$hash_of@V?$basic_string@DU?$char_traits@D@std@@V?$allocator@D@2@@std@@@?$raw_hash_set@U?$FlatHashMapPolicy@V?$basic_string@DU?$char_traits@D@std@@V?$allocator@D@2@@std@@W4StringId@debugging_internal@lts_20250814@absl@@@container_internal@lts_20250814@absl@@UStringHash@234@UStringEq@234@V?$allocator@U?$pair@$$CBV?$basic_string@DU?$char_traits@D@std@@V?$allocator@D@2@@std@@W4StringId@debugging_internal@lts_20250814@absl@@@std@@@std@@@container_internal@lts_20250814@absl@@AEBA_KAEBV?$basic_string@DU?$char_traits@D@std@@V?$allocator@D@2@@std@@@Z
	??$hash_of@V?$basic_string_view@DU?$char_traits@D@std@@@std@@@?$raw_hash_set@U?$FlatHashMapPolicy@V?$basic_string@DU?$char_traits@D@std@@V?$allocator@D@2@@std@@W4StringId@debugging_internal@lts_20250814@absl@@@container_internal@lts_20250814@absl@@UStringHash@234@UStringEq@234@V?$allocator@U?$pair@$$CBV?$basic_string@DU?$char_traits@D@std@@V?$allocator@D@2@@std@@W4StringId@debugging_internal@lts_20250814@absl@@@std@@@std@@@container_internal@lts_20250814@absl@@AEBA_KAEBV?$basic_string_view@DU?$char_traits@D@std@@@std@@@Z
	??$hash_of@_K@?$raw_hash_set@U?$FlatHashMapPolicy@_KW4LocationId@debugging_internal@lts_20250814@absl@@@container_internal@lts_20250814@absl@@U?$Hash@_K@hash_internal@34@U?$equal_to@_K@std@@V?$allocator@U?$pair@$$CB_KW4LocationId@debugging_internal@lts_20250814@absl@@@std@@@8@@container_internal@lts_20250814@absl@@AEBA_KAEB_K@Z
	??$hash_range_or_bytes@VMixingHashState@hash_internal@lts_20250814@absl@@D@hash_internal@lts_20250814@absl@@YA?AVMixingHashState@012@V3012@PEBD_K@Z
	??$hash_tuple@VMixingHashState@hash_internal@lts_20250814@absl@@V?$tuple@AEBV?$basic_string_view@DU?$char_traits@D@std@@@std@@AEBH@std@@$0A@$00@hash_internal@lts_20250814@absl@@YA?AVMixingHashState@012@V3012@AEBV?$tuple@AEBV?$basic_string_view@DU?$char_traits@D@std@@@std@@AEBH@std@@U?$integer_sequence@_K$0A@$00@5@@Z
	??$hash_tuple@VMixingHashState@hash_internal@lts_20250814@absl@@V?$tuple@AEB_K@std@@$0A@@hash_internal@lts_20250814@absl@@YA?AVMixingHashState@012@V3012@AEBV?$tuple@AEB_K@std@@U?$integer_sequence@_K$0A@@5@@Z
	??$hash_with_seed@V?$basic_string_view@DU?$char_traits@D@std@@@std@@$0A@@MixingHashState@hash_internal@lts_20250814@absl@@SA_KAEBV?$basic_string_view@DU?$char_traits@D@std@@@std@@_K@Z
	??$hash_with_seed@V?$tuple@AEBV?$basic_string_view@DU?$char_traits@D@std@@@std@@AEBH@std@@$0A@@MixingHashState@hash_internal@lts_20250814@absl@@SA_KAEBV?$tuple@AEBV?$basic_string_view@DU?$char_traits@D@std@@@std@@AEBH@std@@_K@Z
	??$hash_with_seed@V?$tuple@AEB_K@std@@$0A@@MixingHashState@hash_internal@lts_20250814@absl@@SA_KAEBV?$tuple@AEB_K@std@@_K@Z
	??$hash_with_seed@_K$0A@@MixingHashState@hash_internal@lts_20250814@absl@@SA_K_K0@Z
	??$insert@PEBU?$pair@V?$basic_string@DU?$char_traits@D@std@@V?$allocator@D@2@@std@@W4StringId@debugging_internal@lts_20250814@absl@@@std@@@?$raw_hash_set@U?$FlatHashMapPolicy@V?$basic_string@DU?$char_traits@D@std@@V?$allocator@D@2@@std@@W4StringId@debugging_internal@lts_20250814@absl@@@container_internal@lts_20250814@absl@@UStringHash@234@UStringEq@234@V?$allocator@U?$pair@$$CBV?$basic_string@DU?$char_traits@D@std@@V?$allocator@D@2@@std@@W4StringId@debugging_internal@lts_20250814@absl@@@std@@@std@@@container_internal@lts_20250814@absl@@QEAAXPEBU?$pair@V?$basic_string@DU?$char_traits@D@std@@V?$allocator@D@2@@std@@W4StringId@debugging_internal@lts_20250814@absl@@@std@@0@Z
	??$insert_unique@_KAEAPEAT?$map_slot_type@_K_K@container_internal@lts_20250814@absl@@@?$btree@U?$map_params@_K_KU?$less@_K@std@@V?$allocator@U?$pair@$$CB_K_K@std@@@2@$0BAA@$0A@@container_internal@lts_20250814@absl@@@container_internal@lts_20250814@absl@@QEAA?AU?$pair@V?$btree_iterator@V?$btree_node@U?$map_params@_K_KU?$less@_K@std@@V?$allocator@U?$pair@$$CB_K_K@std@@@2@$0BAA@$0A@@container_internal@lts_20250814@absl@@@container_internal@lts_20250814@absl@@AEAU?$pair@$$CB_K_K@std@@PEAU56@@container_internal@lts_20250814@absl@@_N@std@@AEB_KAEAPEAT?$map_slot_type@_K_K@123@@Z
	??$internal_emplace@AEAPEAT?$map_slot_type@_K_K@container_internal@lts_20250814@absl@@@?$btree@U?$map_params@_K_KU?$less@_K@std@@V?$allocator@U?$pair@$$CB_K_K@std@@@2@$0BAA@$0A@@container_internal@lts_20250814@absl@@@container_internal@lts_20250814@absl@@AEAA?AV?$btree_iterator@V?$btree_node@U?$map_params@_K_KU?$less@_K@std@@V?$allocator@U?$pair@$$CB_K_K@std@@@2@$0BAA@$0A@@container_internal@lts_20250814@absl@@@container_internal@lts_20250814@absl@@AEAU?$pair@$$CB_K_K@std@@PEAU56@@123@V4123@AEAPEAT?$map_slot_type@_K_K@123@@Z
	??$internal_last@V?$btree_iterator@V?$btree_node@U?$map_params@_K_KU?$less@_K@std@@V?$allocator@U?$pair@$$CB_K_K@std@@@2@$0BAA@$0A@@container_internal@lts_20250814@absl@@@container_internal@lts_20250814@absl@@AEAU?$pair@$$CB_K_K@std@@PEAU56@@container_internal@lts_20250814@absl@@@?$btree@U?$map_params@_K_KU?$less@_K@std@@V?$allocator@U?$pair@$$CB_K_K@std@@@2@$0BAA@$0A@@container_internal@lts_20250814@absl@@@container_internal@lts_20250814@absl@@CA?AV?$btree_iterator@V?$btree_node@U?$map_params@_K_KU?$less@_K@std@@V?$allocator@U?$pair@$$CB_K_K@std@@@2@$0BAA@$0A@@container_internal@lts_20250814@absl@@@container_internal@lts_20250814@absl@@AEAU?$pair@$$CB_K_K@std@@PEAU56@@123@V4123@@Z
	??$internal_locate@_K@?$btree@U?$map_params@_K_KU?$less@_K@std@@V?$allocator@U?$pair@$$CB_K_K@std@@@2@$0BAA@$0A@@container_internal@lts_20250814@absl@@@container_internal@lts_20250814@absl@@AEBA?AU?$SearchResult@V?$btree_iterator@V?$btree_node@U?$map_params@_K_KU?$less@_K@std@@V?$allocator@U?$pair@$$CB_K_K@std@@@2@$0BAA@$0A@@container_internal@lts_20250814@absl@@@container_internal@lts_20250814@absl@@AEAU?$pair@$$CB_K_K@std@@PEAU56@@container_internal@lts_20250814@absl@@$0A@@123@AEB_K@Z
	??$internal_upper_bound@_K@?$btree@U?$map_params@_K_KU?$less@_K@std@@V?$allocator@U?$pair@$$CB_K_K@std@@@2@$0BAA@$0A@@container_internal@lts_20250814@absl@@@container_internal@lts_20250814@absl@@AEBA?AV?$btree_iterator@V?$btree_node@U?$map_params@_K_KU?$less@_K@std@@V?$allocator@U?$pair@$$CB_K_K@std@@@2@$0BAA@$0A@@container_internal@lts_20250814@absl@@@container_internal@lts_20250814@absl@@AEAU?$pair@$$CB_K_K@std@@PEAU56@@123@AEB_K@Z
	??$invoke@A6AXXZ@std@@YAXA6AXXZ@Z
	??$invoke@AEBU?$HashKey@U?$Hash@_K@hash_internal@lts_20250814@absl@@_K$00@container_internal@lts_20250814@absl@@_K$$V@std@@YA_KAEBU?$HashKey@U?$Hash@_K@hash_internal@lts_20250814@absl@@_K$00@container_internal@lts_20250814@absl@@$$QEA_K@Z
	??$invoke@AEBU?$HashKey@UStringHash@container_internal@lts_20250814@absl@@V?$basic_string@DU?$char_traits@D@std@@V?$allocator@D@2@@std@@$00@container_internal@lts_20250814@absl@@_K$$V@std@@YA_KAEBU?$HashKey@UStringHash@container_internal@lts_20250814@absl@@V?$basic_string@DU?$char_traits@D@std@@V?$allocator@D@2@@std@@$00@container_internal@lts_20250814@absl@@$$QEA_K@Z
	??$invoke@AEBU?$HashKey@UStringHash@container_internal@lts_20250814@absl@@V?$basic_string_view@DU?$char_traits@D@std@@@std@@$00@container_internal@lts_20250814@absl@@_K$$V@std@@YA_KAEBU?$HashKey@UStringHash@container_internal@lts_20250814@absl@@V?$basic_string_view@DU?$char_traits@D@std@@@std@@$00@container_internal@lts_20250814@absl@@$$QEA_K@Z
	??$invoke@AEBV<lambda_17cdf8ef4ee8f7f2e0a955d26fb7d5be>@@PEBW4ctrl_t@container_internal@lts_20250814@absl@@PEAX@std@@YAXAEBV<lambda_17cdf8ef4ee8f7f2e0a955d26fb7d5be>@@$$QEAPEBW4ctrl_t@container_internal@lts_20250814@absl@@$$QEAPEAX@Z
	??$invoke@AEBV<lambda_bc50e1e2b0efe80036ecdb03cfc5f386>@@PEBW4ctrl_t@container_internal@lts_20250814@absl@@PEAX@std@@YAXAEBV<lambda_bc50e1e2b0efe80036ecdb03cfc5f386>@@$$QEAPEBW4ctrl_t@container_internal@lts_20250814@absl@@$$QEAPEAX@Z
	??$invoke@AEBV<lambda_c884bfc8408f1d3d05393c9ea419951e>@@PEBW4ctrl_t@container_internal@lts_20250814@absl@@PEAX@std@@YAXAEBV<lambda_c884bfc8408f1d3d05393c9ea419951e>@@$$QEAPEBW4ctrl_t@container_internal@lts_20250814@absl@@$$QEAPEAX@Z
	??$invoke@AEBV<lambda_dc9c81c998fd861b1d3d53f3180a1638>@@PEBW4ctrl_t@container_internal@lts_20250814@absl@@PEAX@std@@YAXAEBV<lambda_dc9c81c998fd861b1d3d53f3180a1638>@@$$QEAPEBW4ctrl_t@container_internal@lts_20250814@absl@@$$QEAPEAX@Z
	??$invoke@AEBV<lambda_fc901c4f23cd8a4588bfa54a62041efc>@@PEBW4ctrl_t@container_internal@lts_20250814@absl@@PEAX@std@@YAXAEBV<lambda_fc901c4f23cd8a4588bfa54a62041efc>@@$$QEAPEBW4ctrl_t@container_internal@lts_20250814@absl@@$$QEAPEAX@Z
	??$invoke@UBufferSizeVisitor@?1??BufferSizeForStructuredProtoField@log_internal@lts_20250814@absl@@YA_KUStructuredProtoField@345@@Z@AEAV?$Span@$$CBD@45@$$V@std@@YA_K$$QEAUBufferSizeVisitor@?1??BufferSizeForStructuredProtoField@log_internal@lts_20250814@absl@@YA_KUStructuredProtoField@345@@Z@AEAV?$Span@$$CBD@45@@Z
	??$invoke@UBufferSizeVisitor@?1??BufferSizeForStructuredProtoField@log_internal@lts_20250814@absl@@YA_KUStructuredProtoField@345@@Z@AEAV?$variant@IHM@std@@$$V@std@@YA_K$$QEAUBufferSizeVisitor@?1??BufferSizeForStructuredProtoField@log_internal@lts_20250814@absl@@YA_KUStructuredProtoField@345@@Z@AEAV?$variant@IHM@0@@Z
	??$invoke@UBufferSizeVisitor@?1??BufferSizeForStructuredProtoField@log_internal@lts_20250814@absl@@YA_KUStructuredProtoField@345@@Z@AEAV?$variant@_K_JIH_N@std@@$$V@std@@YA_K$$QEAUBufferSizeVisitor@?1??BufferSizeForStructuredProtoField@log_internal@lts_20250814@absl@@YA_KUStructuredProtoField@345@@Z@AEAV?$variant@_K_JIH_N@0@@Z
	??$invoke@UBufferSizeVisitor@?1??BufferSizeForStructuredProtoField@log_internal@lts_20250814@absl@@YA_KUStructuredProtoField@345@@Z@AEAV?$variant@_K_JN@std@@$$V@std@@YA_K$$QEAUBufferSizeVisitor@?1??BufferSizeForStructuredProtoField@log_internal@lts_20250814@absl@@YA_KUStructuredProtoField@345@@Z@AEAV?$variant@_K_JN@0@@Z
	??$iota@V?$_Array_iterator@E$0GG@@std@@H@std@@YAXV?$_Array_iterator@E$0GG@@0@0H@Z
	??$isinf@N@@YA_NN@Z
	??$isinf@O@@YA_NO@Z
	??$isnan@N@@YA_NN@Z
	??$isnan@O@@YA_NO@Z
	??$launder@$$CBV?$basic_string@DU?$char_traits@D@std@@V?$allocator@D@2@@std@@@std@@YAPEBV?$basic_string@DU?$char_traits@D@std@@V?$allocator@D@2@@0@PEBV10@@Z
	??$launder@U?$pair@$$CBV?$basic_string@DU?$char_traits@D@std@@V?$allocator@D@2@@std@@W4StringId@debugging_internal@lts_20250814@absl@@@std@@@std@@YAPEAU?$pair@$$CBV?$basic_string@DU?$char_traits@D@std@@V?$allocator@D@2@@std@@W4StringId@debugging_internal@lts_20250814@absl@@@0@PEAU10@@Z
	??$launder@U?$pair@$$CB_KW4LocationId@debugging_internal@lts_20250814@absl@@@std@@@std@@YAPEAU?$pair@$$CB_KW4LocationId@debugging_internal@lts_20250814@absl@@@0@PEAU10@@Z
	??$launder@U?$pair@$$CB_K_K@std@@@std@@YAPEAU?$pair@$$CB_K_K@0@PEAU10@@Z
	??$launder@URefcountedRep@CrcCordState@crc_internal@lts_20250814@absl@@@std@@YAPEAURefcountedRep@CrcCordState@crc_internal@lts_20250814@absl@@PEAU12345@@Z
	??$launder@V?$SampleRecorder@UHashtablezInfo@container_internal@lts_20250814@absl@@@profiling_internal@lts_20250814@absl@@@std@@YAPEAV?$SampleRecorder@UHashtablezInfo@container_internal@lts_20250814@absl@@@profiling_internal@lts_20250814@absl@@PEAV1234@@Z
	??$launder@VMutex@lts_20250814@absl@@@std@@YAPEAVMutex@lts_20250814@absl@@PEAV123@@Z
	??$linear_search@_KU?$upper_bound_adapter@Uchecked_compare@?$key_compare_adapter@U?$less@_K@std@@_K@container_internal@lts_20250814@absl@@@container_internal@lts_20250814@absl@@@?$btree_node@U?$map_params@_K_KU?$less@_K@std@@V?$allocator@U?$pair@$$CB_K_K@std@@@2@$0BAA@$0A@@container_internal@lts_20250814@absl@@@container_internal@lts_20250814@absl@@QEBA?AU?$SearchResult@_K$0A@@123@AEB_KAEBU?$upper_bound_adapter@Uchecked_compare@?$key_compare_adapter@U?$less@_K@std@@_K@container_internal@lts_20250814@absl@@@123@@Z
	??$linear_search@_KUchecked_compare@?$key_compare_adapter@U?$less@_K@std@@_K@container_internal@lts_20250814@absl@@@?$btree_node@U?$map_params@_K_KU?$less@_K@std@@V?$allocator@U?$pair@$$CB_K_K@std@@@2@$0BAA@$0A@@container_internal@lts_20250814@absl@@@container_internal@lts_20250814@absl@@QEBA?AU?$SearchResult@_K$0A@@123@AEB_KAEBUchecked_compare@?$key_compare_adapter@U?$less@_K@std@@_K@123@@Z
	??$linear_search_impl@_KU?$upper_bound_adapter@Uchecked_compare@?$key_compare_adapter@U?$less@_K@std@@_K@container_internal@lts_20250814@absl@@@container_internal@lts_20250814@absl@@@?$btree_node@U?$map_params@_K_KU?$less@_K@std@@V?$allocator@U?$pair@$$CB_K_K@std@@@2@$0BAA@$0A@@container_internal@lts_20250814@absl@@@container_internal@lts_20250814@absl@@QEBA?AU?$SearchResult@_K$0A@@123@AEB_K_K_KAEBU?$upper_bound_adapter@Uchecked_compare@?$key_compare_adapter@U?$less@_K@std@@_K@container_internal@lts_20250814@absl@@@123@U?$integral_constant@_N$0A@@std@@@Z
	??$linear_search_impl@_KUchecked_compare@?$key_compare_adapter@U?$less@_K@std@@_K@container_internal@lts_20250814@absl@@@?$btree_node@U?$map_params@_K_KU?$less@_K@std@@V?$allocator@U?$pair@$$CB_K_K@std@@@2@$0BAA@$0A@@container_internal@lts_20250814@absl@@@container_internal@lts_20250814@absl@@QEBA?AU?$SearchResult@_K$0A@@123@AEB_K_K_KAEBUchecked_compare@?$key_compare_adapter@U?$less@_K@std@@_K@123@U?$integral_constant@_N$0A@@std@@@Z
	??$lower_bound@PEBUTransition@cctz@time_internal@lts_20250814@absl@@U12345@UByUnixTime@12345@@std@@YAPEBUTransition@cctz@time_internal@lts_20250814@absl@@PEBU12345@QEBU12345@AEBU12345@UByUnixTime@12345@@Z
	??$lower_bound@_K@?$btree_node@U?$map_params@_K_KU?$less@_K@std@@V?$allocator@U?$pair@$$CB_K_K@std@@@2@$0BAA@$0A@@container_internal@lts_20250814@absl@@@container_internal@lts_20250814@absl@@QEBA?AU?$SearchResult@_K$0A@@123@AEB_KAEBUchecked_compare@?$key_compare_adapter@U?$less@_K@std@@_K@123@@Z
	??$make_pair@_K_K@std@@YA?AU?$pair@_K_K@0@$$QEA_K0@Z
	??$make_unique@ULogMessageData@LogMessage@log_internal@lts_20250814@absl@@AEAPEBDAEAHAEAW4LogSeverity@45@VTime@45@$0A@@std@@YA?AV?$unique_ptr@ULogMessageData@LogMessage@log_internal@lts_20250814@absl@@U?$default_delete@ULogMessageData@LogMessage@log_internal@lts_20250814@absl@@@std@@@0@AEAPEBDAEAHAEAW4LogSeverity@lts_20250814@absl@@$$QEAVTime@34@@Z
	??$make_unique@V?$InlinedVector@UPayload@status_internal@lts_20250814@absl@@$00V?$allocator@UPayload@status_internal@lts_20250814@absl@@@std@@@lts_20250814@absl@@$$V$0A@@std@@YA?AV?$unique_ptr@V?$InlinedVector@UPayload@status_internal@lts_20250814@absl@@$00V?$allocator@UPayload@status_internal@lts_20250814@absl@@@std@@@lts_20250814@absl@@U?$default_delete@V?$InlinedVector@UPayload@status_internal@lts_20250814@absl@@$00V?$allocator@UPayload@status_internal@lts_20250814@absl@@@std@@@lts_20250814@absl@@@std@@@0@XZ
	??$make_unique@V?$InlinedVector@UPayload@status_internal@lts_20250814@absl@@$00V?$allocator@UPayload@status_internal@lts_20250814@absl@@@std@@@lts_20250814@absl@@AEAV123@$0A@@std@@YA?AV?$unique_ptr@V?$InlinedVector@UPayload@status_internal@lts_20250814@absl@@$00V?$allocator@UPayload@status_internal@lts_20250814@absl@@@std@@@lts_20250814@absl@@U?$default_delete@V?$InlinedVector@UPayload@status_internal@lts_20250814@absl@@$00V?$allocator@UPayload@status_internal@lts_20250814@absl@@@std@@@lts_20250814@absl@@@std@@@0@AEAV?$InlinedVector@UPayload@status_internal@lts_20250814@absl@@$00V?$allocator@UPayload@status_internal@lts_20250814@absl@@@std@@@lts_20250814@absl@@@Z
	??$make_unique@VFallbackCrcMemcpyEngine@crc_internal@lts_20250814@absl@@$$V$0A@@std@@YA?AV?$unique_ptr@VFallbackCrcMemcpyEngine@crc_internal@lts_20250814@absl@@U?$default_delete@VFallbackCrcMemcpyEngine@crc_internal@lts_20250814@absl@@@std@@@0@XZ
	??$make_unique@Vseed_seq@std@@AEAPEAIAEAPEAI$0A@@std@@YA?AV?$unique_ptr@Vseed_seq@std@@U?$default_delete@Vseed_seq@std@@@2@@0@AEAPEAI0@Z
	??$max@E@std@@YAAEBEAEBE0@Z
	??$max@H@std@@YAAEBHAEBH0@Z
	??$max@K@std@@YAAEBKAEBK0@Z
	??$max@PEAD@std@@YAAEBQEADAEBQEAD0@Z
	??$max@VDuration@lts_20250814@absl@@@std@@YAAEBVDuration@lts_20250814@absl@@AEBV123@0@Z
	??$max@_J@std@@YAAEB_JAEB_J0@Z
	??$max@_K@std@@YAAEB_KAEB_K0@Z
	??$merge@PEAHPEAHPEAH@std@@YAPEAHPEAH0000@Z
	??$merge@PEAHPEAHPEAHU?$less@X@std@@@std@@YAPEAHPEAH0000U?$less@X@0@@Z
	??$min@E@std@@YAAEBEAEBE0@Z
	??$min@E@std@@YAEV?$initializer_list@E@0@@Z
	??$min@EU?$less@X@std@@@std@@YAEV?$initializer_list@E@0@U?$less@X@0@@Z
	??$min@H@std@@YAAEBHAEBH0@Z
	??$min@VDuration@lts_20250814@absl@@@std@@YAAEBVDuration@lts_20250814@absl@@AEBV123@0@Z
	??$min@_J@std@@YAAEB_JAEB_J0@Z
	??$min@_K@std@@YAAEB_KAEB_K0@Z
	??$move@AEAD@std@@YA$$QEADAEAD@Z
	??$move@AEAH@std@@YA$$QEAHAEAH@Z
	??$move@AEAI@std@@YA$$QEAIAEAI@Z
	??$move@AEAP6AHPEAU_iobuf@@@Z@std@@YA$$QEAP6AHPEAU_iobuf@@@ZAEAP6AH0@Z@Z
	??$move@AEAPEAD@std@@YA$$QEAPEADAEAPEAD@Z
	??$move@AEAPEAH@std@@YA$$QEAPEAHAEAPEAH@Z
	??$move@AEAPEAI@std@@YA$$QEAPEAIAEAPEAI@Z
	??$move@AEAPEAPEAPEBVImpl@time_zone@cctz@time_internal@lts_20250814@absl@@@std@@YA$$QEAPEAPEAPEBVImpl@time_zone@cctz@time_internal@lts_20250814@absl@@AEAPEAPEAPEBV123456@@Z
	??$move@AEAPEAPEAUCordRep@cord_internal@lts_20250814@absl@@@std@@YA$$QEAPEAPEAUCordRep@cord_internal@lts_20250814@absl@@AEAPEAPEAU1234@@Z
	??$move@AEAPEAPEAUPrefixCrc@CrcCordState@crc_internal@lts_20250814@absl@@@std@@YA$$QEAPEAPEAUPrefixCrc@CrcCordState@crc_internal@lts_20250814@absl@@AEAPEAPEAU12345@@Z
	??$move@AEAPEAPEAVCordzHandle@cord_internal@lts_20250814@absl@@@std@@YA$$QEAPEAPEAVCordzHandle@cord_internal@lts_20250814@absl@@AEAPEAPEAV1234@@Z
	??$move@AEAPEAPEAVLogSink@lts_20250814@absl@@@std@@YA$$QEAPEAPEAVLogSink@lts_20250814@absl@@AEAPEAPEAV123@@Z
	??$move@AEAPEAPEBVCordzHandle@cord_internal@lts_20250814@absl@@@std@@YA$$QEAPEAPEBVCordzHandle@cord_internal@lts_20250814@absl@@AEAPEAPEBV1234@@Z
	??$move@AEAPEAU?$pair@N_K@std@@@std@@YA$$QEAPEAU?$pair@N_K@0@AEAPEAU10@@Z
	??$move@AEAPEAU?$pair@V?$basic_string_view@DU?$char_traits@D@std@@@std@@H@std@@@std@@YA$$QEAPEAU?$pair@V?$basic_string_view@DU?$char_traits@D@std@@@std@@H@0@AEAPEAU10@@Z
	??$move@AEAPEAU?$pair@W4StringId@debugging_internal@lts_20250814@absl@@_J@std@@@std@@YA$$QEAPEAU?$pair@W4StringId@debugging_internal@lts_20250814@absl@@_J@0@AEAPEAU10@@Z
	??$move@AEAPEAUConversionItem@ParsedFormatBase@str_format_internal@lts_20250814@absl@@@std@@YA$$QEAPEAUConversionItem@ParsedFormatBase@str_format_internal@lts_20250814@absl@@AEAPEAU12345@@Z
	??$move@AEAPEAUPayload@status_internal@lts_20250814@absl@@@std@@YA$$QEAPEAUPayload@status_internal@lts_20250814@absl@@AEAPEAU1234@@Z
	??$move@AEAPEAUTransition@cctz@time_internal@lts_20250814@absl@@@std@@YA$$QEAPEAUTransition@cctz@time_internal@lts_20250814@absl@@AEAPEAU12345@@Z
	??$move@AEAPEAUTransitionType@cctz@time_internal@lts_20250814@absl@@@std@@YA$$QEAPEAUTransitionType@cctz@time_internal@lts_20250814@absl@@AEAPEAU12345@@Z
	??$move@AEAPEAUViableSubstitution@strings_internal@lts_20250814@absl@@@std@@YA$$QEAPEAUViableSubstitution@strings_internal@lts_20250814@absl@@AEAPEAU1234@@Z
	??$move@AEAPEAVCordzHandle@cord_internal@lts_20250814@absl@@@std@@YA$$QEAPEAVCordzHandle@cord_internal@lts_20250814@absl@@AEAPEAV1234@@Z
	??$move@AEAPEAVLogSink@lts_20250814@absl@@@std@@YA$$QEAPEAVLogSink@lts_20250814@absl@@AEAPEAV123@@Z
	??$move@AEAPEA_K@std@@YA$$QEAPEA_KAEAPEA_K@Z
	??$move@AEAPEBD@std@@YA$$QEAPEBDAEAPEBD@Z
